
PmVpnDaemon:     file format elf32-littlearm


Disassembly of section .init:

0000a1bc <_init>:
    a1bc:	e92d4010 	push	{r4, lr}
    a1c0:	eb0001dc 	bl	a938 <call_gmon_start>
    a1c4:	e8bd8010 	pop	{r4, pc}

Disassembly of section .plt:

0000a1c8 <.plt>:
    a1c8:	e52de004 	push	{lr}		@ (str lr, [sp, #-4]!)
    a1cc:	e59fe004 	ldr	lr, [pc, #4]	@ a1d8 <.plt+0x10>
    a1d0:	e08fe00e 	add	lr, pc, lr
    a1d4:	e5bef008 	ldr	pc, [lr, #8]!
    a1d8:	00017518 	.word	0x00017518

0000a1dc <sqlite3_column_text@plt>:
    a1dc:	e28fc600 	add	ip, pc, #0, 12
    a1e0:	e28cca17 	add	ip, ip, #94208	@ 0x17000
    a1e4:	e5bcf518 	ldr	pc, [ip, #1304]!	@ 0x518

0000a1e8 <LSGmainAttach@plt>:
    a1e8:	e28fc600 	add	ip, pc, #0, 12
    a1ec:	e28cca17 	add	ip, ip, #94208	@ 0x17000
    a1f0:	e5bcf510 	ldr	pc, [ip, #1296]!	@ 0x510

0000a1f4 <LSMessageReply@plt>:
    a1f4:	e28fc600 	add	ip, pc, #0, 12
    a1f8:	e28cca17 	add	ip, ip, #94208	@ 0x17000
    a1fc:	e5bcf508 	ldr	pc, [ip, #1288]!	@ 0x508

0000a200 <g_free@plt>:
    a200:	e28fc600 	add	ip, pc, #0, 12
    a204:	e28cca17 	add	ip, ip, #94208	@ 0x17000
    a208:	e5bcf500 	ldr	pc, [ip, #1280]!	@ 0x500

0000a20c <sqlite3_close@plt>:
    a20c:	e28fc600 	add	ip, pc, #0, 12
    a210:	e28cca17 	add	ip, ip, #94208	@ 0x17000
    a214:	e5bcf4f8 	ldr	pc, [ip, #1272]!	@ 0x4f8

0000a218 <sigemptyset@plt>:
    a218:	e28fc600 	add	ip, pc, #0, 12
    a21c:	e28cca17 	add	ip, ip, #94208	@ 0x17000
    a220:	e5bcf4f0 	ldr	pc, [ip, #1264]!	@ 0x4f0

0000a224 <g_io_channel_shutdown@plt>:
    a224:	e28fc600 	add	ip, pc, #0, 12
    a228:	e28cca17 	add	ip, ip, #94208	@ 0x17000
    a22c:	e5bcf4e8 	ldr	pc, [ip, #1256]!	@ 0x4e8

0000a230 <abort@plt>:
    a230:	e28fc600 	add	ip, pc, #0, 12
    a234:	e28cca17 	add	ip, ip, #94208	@ 0x17000
    a238:	e5bcf4e0 	ldr	pc, [ip, #1248]!	@ 0x4e0

0000a23c <g_dir_close@plt>:
    a23c:	e28fc600 	add	ip, pc, #0, 12
    a240:	e28cca17 	add	ip, ip, #94208	@ 0x17000
    a244:	e5bcf4d8 	ldr	pc, [ip, #1240]!	@ 0x4d8

0000a248 <json_object_array_length@plt>:
    a248:	e28fc600 	add	ip, pc, #0, 12
    a24c:	e28cca17 	add	ip, ip, #94208	@ 0x17000
    a250:	e5bcf4d0 	ldr	pc, [ip, #1232]!	@ 0x4d0

0000a254 <__xstat@plt>:
    a254:	e28fc600 	add	ip, pc, #0, 12
    a258:	e28cca17 	add	ip, ip, #94208	@ 0x17000
    a25c:	e5bcf4c8 	ldr	pc, [ip, #1224]!	@ 0x4c8

0000a260 <g_hash_table_destroy@plt>:
    a260:	e28fc600 	add	ip, pc, #0, 12
    a264:	e28cca17 	add	ip, ip, #94208	@ 0x17000
    a268:	e5bcf4c0 	ldr	pc, [ip, #1216]!	@ 0x4c0

0000a26c <__libc_start_main@plt>:
    a26c:	e28fc600 	add	ip, pc, #0, 12
    a270:	e28cca17 	add	ip, ip, #94208	@ 0x17000
    a274:	e5bcf4b8 	ldr	pc, [ip, #1208]!	@ 0x4b8

0000a278 <g_str_hash@plt>:
    a278:	e28fc600 	add	ip, pc, #0, 12
    a27c:	e28cca17 	add	ip, ip, #94208	@ 0x17000
    a280:	e5bcf4b0 	ldr	pc, [ip, #1200]!	@ 0x4b0

0000a284 <g_dir_read_name@plt>:
    a284:	e28fc600 	add	ip, pc, #0, 12
    a288:	e28cca17 	add	ip, ip, #94208	@ 0x17000
    a28c:	e5bcf4a8 	ldr	pc, [ip, #1192]!	@ 0x4a8

0000a290 <g_main_loop_quit@plt>:
    a290:	e28fc600 	add	ip, pc, #0, 12
    a294:	e28cca17 	add	ip, ip, #94208	@ 0x17000
    a298:	e5bcf4a0 	ldr	pc, [ip, #1184]!	@ 0x4a0

0000a29c <LSRegisterPubPriv@plt>:
    a29c:	e28fc600 	add	ip, pc, #0, 12
    a2a0:	e28cca17 	add	ip, ip, #94208	@ 0x17000
    a2a4:	e5bcf498 	ldr	pc, [ip, #1176]!	@ 0x498

0000a2a8 <json_object_get_boolean@plt>:
    a2a8:	e28fc600 	add	ip, pc, #0, 12
    a2ac:	e28cca17 	add	ip, ip, #94208	@ 0x17000
    a2b0:	e5bcf490 	ldr	pc, [ip, #1168]!	@ 0x490

0000a2b4 <CertX509ReadStrProperty@plt>:
    a2b4:	e28fc600 	add	ip, pc, #0, 12
    a2b8:	e28cca17 	add	ip, ip, #94208	@ 0x17000
    a2bc:	e5bcf488 	ldr	pc, [ip, #1160]!	@ 0x488

0000a2c0 <LSCallOneReply@plt>:
    a2c0:	e28fc600 	add	ip, pc, #0, 12
    a2c4:	e28cca17 	add	ip, ip, #94208	@ 0x17000
    a2c8:	e5bcf480 	ldr	pc, [ip, #1152]!	@ 0x480

0000a2cc <__gmon_start__@plt>:
    a2cc:	e28fc600 	add	ip, pc, #0, 12
    a2d0:	e28cca17 	add	ip, ip, #94208	@ 0x17000
    a2d4:	e5bcf478 	ldr	pc, [ip, #1144]!	@ 0x478

0000a2d8 <g_source_set_callback@plt>:
    a2d8:	e28fc600 	add	ip, pc, #0, 12
    a2dc:	e28cca17 	add	ip, ip, #94208	@ 0x17000
    a2e0:	e5bcf470 	ldr	pc, [ip, #1136]!	@ 0x470

0000a2e4 <json_object_new_string@plt>:
    a2e4:	e28fc600 	add	ip, pc, #0, 12
    a2e8:	e28cca17 	add	ip, ip, #94208	@ 0x17000
    a2ec:	e5bcf468 	ldr	pc, [ip, #1128]!	@ 0x468

0000a2f0 <g_strcmp0@plt>:
    a2f0:	e28fc600 	add	ip, pc, #0, 12
    a2f4:	e28cca17 	add	ip, ip, #94208	@ 0x17000
    a2f8:	e5bcf460 	ldr	pc, [ip, #1120]!	@ 0x460

0000a2fc <g_strdup@plt>:
    a2fc:	e28fc600 	add	ip, pc, #0, 12
    a300:	e28cca17 	add	ip, ip, #94208	@ 0x17000
    a304:	e5bcf458 	ldr	pc, [ip, #1112]!	@ 0x458

0000a308 <g_hash_table_get_keys@plt>:
    a308:	e28fc600 	add	ip, pc, #0, 12
    a30c:	e28cca17 	add	ip, ip, #94208	@ 0x17000
    a310:	e5bcf450 	ldr	pc, [ip, #1104]!	@ 0x450

0000a314 <strncpy@plt>:
    a314:	e28fc600 	add	ip, pc, #0, 12
    a318:	e28cca17 	add	ip, ip, #94208	@ 0x17000
    a31c:	e5bcf448 	ldr	pc, [ip, #1096]!	@ 0x448

0000a320 <fclose@plt>:
    a320:	e28fc600 	add	ip, pc, #0, 12
    a324:	e28cca17 	add	ip, ip, #94208	@ 0x17000
    a328:	e5bcf440 	ldr	pc, [ip, #1088]!	@ 0x440

0000a32c <fgets@plt>:
    a32c:	e28fc600 	add	ip, pc, #0, 12
    a330:	e28cca17 	add	ip, ip, #94208	@ 0x17000
    a334:	e5bcf438 	ldr	pc, [ip, #1080]!	@ 0x438

0000a338 <LSRegisterCategory@plt>:
    a338:	e28fc600 	add	ip, pc, #0, 12
    a33c:	e28cca17 	add	ip, ip, #94208	@ 0x17000
    a340:	e5bcf430 	ldr	pc, [ip, #1072]!	@ 0x430

0000a344 <g_timer_new@plt>:
    a344:	e28fc600 	add	ip, pc, #0, 12
    a348:	e28cca17 	add	ip, ip, #94208	@ 0x17000
    a34c:	e5bcf428 	ldr	pc, [ip, #1064]!	@ 0x428

0000a350 <LPAppGetHandle@plt>:
    a350:	e28fc600 	add	ip, pc, #0, 12
    a354:	e28cca17 	add	ip, ip, #94208	@ 0x17000
    a358:	e5bcf420 	ldr	pc, [ip, #1056]!	@ 0x420

0000a35c <LSUnregister@plt>:
    a35c:	e28fc600 	add	ip, pc, #0, 12
    a360:	e28cca17 	add	ip, ip, #94208	@ 0x17000
    a364:	e5bcf418 	ldr	pc, [ip, #1048]!	@ 0x418

0000a368 <LSErrorFree@plt>:
    a368:	e28fc600 	add	ip, pc, #0, 12
    a36c:	e28cca17 	add	ip, ip, #94208	@ 0x17000
    a370:	e5bcf410 	ldr	pc, [ip, #1040]!	@ 0x410

0000a374 <g_hash_table_insert@plt>:
    a374:	e28fc600 	add	ip, pc, #0, 12
    a378:	e28cca17 	add	ip, ip, #94208	@ 0x17000
    a37c:	e5bcf408 	ldr	pc, [ip, #1032]!	@ 0x408

0000a380 <g_list_free@plt>:
    a380:	e28fc600 	add	ip, pc, #0, 12
    a384:	e28cca17 	add	ip, ip, #94208	@ 0x17000
    a388:	e5bcf400 	ldr	pc, [ip, #1024]!	@ 0x400

0000a38c <g_io_channel_read_to_end@plt>:
    a38c:	e28fc600 	add	ip, pc, #0, 12
    a390:	e28cca17 	add	ip, ip, #94208	@ 0x17000
    a394:	e5bcf3f8 	ldr	pc, [ip, #1016]!	@ 0x3f8

0000a398 <json_object_is_type@plt>:
    a398:	e28fc600 	add	ip, pc, #0, 12
    a39c:	e28cca17 	add	ip, ip, #94208	@ 0x17000
    a3a0:	e5bcf3f0 	ldr	pc, [ip, #1008]!	@ 0x3f0

0000a3a4 <json_object_get_type@plt>:
    a3a4:	e28fc600 	add	ip, pc, #0, 12
    a3a8:	e28cca17 	add	ip, ip, #94208	@ 0x17000
    a3ac:	e5bcf3e8 	ldr	pc, [ip, #1000]!	@ 0x3e8

0000a3b0 <dlclose@plt>:
    a3b0:	e28fc600 	add	ip, pc, #0, 12
    a3b4:	e28cca17 	add	ip, ip, #94208	@ 0x17000
    a3b8:	e5bcf3e0 	ldr	pc, [ip, #992]!	@ 0x3e0

0000a3bc <fopen@plt>:
    a3bc:	e28fc600 	add	ip, pc, #0, 12
    a3c0:	e28cca17 	add	ip, ip, #94208	@ 0x17000
    a3c4:	e5bcf3d8 	ldr	pc, [ip, #984]!	@ 0x3d8

0000a3c8 <memset@plt>:
    a3c8:	e28fc600 	add	ip, pc, #0, 12
    a3cc:	e28cca17 	add	ip, ip, #94208	@ 0x17000
    a3d0:	e5bcf3d0 	ldr	pc, [ip, #976]!	@ 0x3d0

0000a3d4 <g_string_printf@plt>:
    a3d4:	e28fc600 	add	ip, pc, #0, 12
    a3d8:	e28cca17 	add	ip, ip, #94208	@ 0x17000
    a3dc:	e5bcf3c8 	ldr	pc, [ip, #968]!	@ 0x3c8

0000a3e0 <json_object_array_get_idx@plt>:
    a3e0:	e28fc600 	add	ip, pc, #0, 12
    a3e4:	e28cca17 	add	ip, ip, #94208	@ 0x17000
    a3e8:	e5bcf3c0 	ldr	pc, [ip, #960]!	@ 0x3c0

0000a3ec <g_io_channel_new_file@plt>:
    a3ec:	e28fc600 	add	ip, pc, #0, 12
    a3f0:	e28cca17 	add	ip, ip, #94208	@ 0x17000
    a3f4:	e5bcf3b8 	ldr	pc, [ip, #952]!	@ 0x3b8

0000a3f8 <g_malloc@plt>:
    a3f8:	e28fc600 	add	ip, pc, #0, 12
    a3fc:	e28cca17 	add	ip, ip, #94208	@ 0x17000
    a400:	e5bcf3b0 	ldr	pc, [ip, #944]!	@ 0x3b0

0000a404 <setsid@plt>:
    a404:	e28fc600 	add	ip, pc, #0, 12
    a408:	e28cca17 	add	ip, ip, #94208	@ 0x17000
    a40c:	e5bcf3a8 	ldr	pc, [ip, #936]!	@ 0x3a8

0000a410 <json_object_get_string@plt>:
    a410:	e28fc600 	add	ip, pc, #0, 12
    a414:	e28cca17 	add	ip, ip, #94208	@ 0x17000
    a418:	e5bcf3a0 	ldr	pc, [ip, #928]!	@ 0x3a0

0000a41c <g_string_new@plt>:
    a41c:	e28fc600 	add	ip, pc, #0, 12
    a420:	e28cca17 	add	ip, ip, #94208	@ 0x17000
    a424:	e5bcf398 	ldr	pc, [ip, #920]!	@ 0x398

0000a428 <LSMessageIsSubscription@plt>:
    a428:	e28fc600 	add	ip, pc, #0, 12
    a42c:	e28cca17 	add	ip, ip, #94208	@ 0x17000
    a430:	e5bcf390 	ldr	pc, [ip, #912]!	@ 0x390

0000a434 <sqlite3_free@plt>:
    a434:	e28fc600 	add	ip, pc, #0, 12
    a438:	e28cca17 	add	ip, ip, #94208	@ 0x17000
    a43c:	e5bcf388 	ldr	pc, [ip, #904]!	@ 0x388

0000a440 <dlopen@plt>:
    a440:	e28fc600 	add	ip, pc, #0, 12
    a444:	e28cca17 	add	ip, ip, #94208	@ 0x17000
    a448:	e5bcf380 	ldr	pc, [ip, #896]!	@ 0x380

0000a44c <g_base64_decode@plt>:
    a44c:	e28fc600 	add	ip, pc, #0, 12
    a450:	e28cca17 	add	ip, ip, #94208	@ 0x17000
    a454:	e5bcf378 	ldr	pc, [ip, #888]!	@ 0x378

0000a458 <json_object_object_del@plt>:
    a458:	e28fc600 	add	ip, pc, #0, 12
    a45c:	e28cca17 	add	ip, ip, #94208	@ 0x17000
    a460:	e5bcf370 	ldr	pc, [ip, #880]!	@ 0x370

0000a464 <g_timer_elapsed@plt>:
    a464:	e28fc600 	add	ip, pc, #0, 12
    a468:	e28cca17 	add	ip, ip, #94208	@ 0x17000
    a46c:	e5bcf368 	ldr	pc, [ip, #872]!	@ 0x368

0000a470 <g_main_loop_new@plt>:
    a470:	e28fc600 	add	ip, pc, #0, 12
    a474:	e28cca17 	add	ip, ip, #94208	@ 0x17000
    a478:	e5bcf360 	ldr	pc, [ip, #864]!	@ 0x360

0000a47c <CertX509ReadTimeProperty@plt>:
    a47c:	e28fc600 	add	ip, pc, #0, 12
    a480:	e28cca17 	add	ip, ip, #94208	@ 0x17000
    a484:	e5bcf358 	ldr	pc, [ip, #856]!	@ 0x358

0000a488 <g_assertion_message_expr@plt>:
    a488:	e28fc600 	add	ip, pc, #0, 12
    a48c:	e28cca17 	add	ip, ip, #94208	@ 0x17000
    a490:	e5bcf350 	ldr	pc, [ip, #848]!	@ 0x350

0000a494 <free@plt>:
    a494:	e28fc600 	add	ip, pc, #0, 12
    a498:	e28cca17 	add	ip, ip, #94208	@ 0x17000
    a49c:	e5bcf348 	ldr	pc, [ip, #840]!	@ 0x348

0000a4a0 <LPAppCopyValue@plt>:
    a4a0:	e28fc600 	add	ip, pc, #0, 12
    a4a4:	e28cca17 	add	ip, ip, #94208	@ 0x17000
    a4a8:	e5bcf340 	ldr	pc, [ip, #832]!	@ 0x340

0000a4ac <getopt_long@plt>:
    a4ac:	e28fc600 	add	ip, pc, #0, 12
    a4b0:	e28cca17 	add	ip, ip, #94208	@ 0x17000
    a4b4:	e5bcf338 	ldr	pc, [ip, #824]!	@ 0x338

0000a4b8 <g_timeout_add_seconds@plt>:
    a4b8:	e28fc600 	add	ip, pc, #0, 12
    a4bc:	e28cca17 	add	ip, ip, #94208	@ 0x17000
    a4c0:	e5bcf330 	ldr	pc, [ip, #816]!	@ 0x330

0000a4c4 <g_strdup_printf@plt>:
    a4c4:	e28fc600 	add	ip, pc, #0, 12
    a4c8:	e28cca17 	add	ip, ip, #94208	@ 0x17000
    a4cc:	e5bcf328 	ldr	pc, [ip, #808]!	@ 0x328

0000a4d0 <json_object_get_object@plt>:
    a4d0:	e28fc600 	add	ip, pc, #0, 12
    a4d4:	e28cca17 	add	ip, ip, #94208	@ 0x17000
    a4d8:	e5bcf320 	ldr	pc, [ip, #800]!	@ 0x320

0000a4dc <g_main_context_new@plt>:
    a4dc:	e28fc600 	add	ip, pc, #0, 12
    a4e0:	e28cca17 	add	ip, ip, #94208	@ 0x17000
    a4e4:	e5bcf318 	ldr	pc, [ip, #792]!	@ 0x318

0000a4e8 <sqlite3_free_table@plt>:
    a4e8:	e28fc600 	add	ip, pc, #0, 12
    a4ec:	e28cca17 	add	ip, ip, #94208	@ 0x17000
    a4f0:	e5bcf310 	ldr	pc, [ip, #784]!	@ 0x310

0000a4f4 <g_string_free@plt>:
    a4f4:	e28fc600 	add	ip, pc, #0, 12
    a4f8:	e28cca17 	add	ip, ip, #94208	@ 0x17000
    a4fc:	e5bcf308 	ldr	pc, [ip, #776]!	@ 0x308

0000a500 <LSRegisterServerStatus@plt>:
    a500:	e28fc600 	add	ip, pc, #0, 12
    a504:	e28cca17 	add	ip, ip, #94208	@ 0x17000
    a508:	e5bcf300 	ldr	pc, [ip, #768]!	@ 0x300

0000a50c <json_tokener_parse@plt>:
    a50c:	e28fc600 	add	ip, pc, #0, 12
    a510:	e28cca17 	add	ip, ip, #94208	@ 0x17000
    a514:	e5bcf2f8 	ldr	pc, [ip, #760]!	@ 0x2f8

0000a518 <umask@plt>:
    a518:	e28fc600 	add	ip, pc, #0, 12
    a51c:	e28cca17 	add	ip, ip, #94208	@ 0x17000
    a520:	e5bcf2f0 	ldr	pc, [ip, #752]!	@ 0x2f0

0000a524 <g_hash_table_size@plt>:
    a524:	e28fc600 	add	ip, pc, #0, 12
    a528:	e28cca17 	add	ip, ip, #94208	@ 0x17000
    a52c:	e5bcf2e8 	ldr	pc, [ip, #744]!	@ 0x2e8

0000a530 <g_hash_table_new_full@plt>:
    a530:	e28fc600 	add	ip, pc, #0, 12
    a534:	e28cca17 	add	ip, ip, #94208	@ 0x17000
    a538:	e5bcf2e0 	ldr	pc, [ip, #736]!	@ 0x2e0

0000a53c <sqlite3_finalize@plt>:
    a53c:	e28fc600 	add	ip, pc, #0, 12
    a540:	e28cca17 	add	ip, ip, #94208	@ 0x17000
    a544:	e5bcf2d8 	ldr	pc, [ip, #728]!	@ 0x2d8

0000a548 <strlen@plt>:
    a548:	e28fc600 	add	ip, pc, #0, 12
    a54c:	e28cca17 	add	ip, ip, #94208	@ 0x17000
    a550:	e5bcf2d0 	ldr	pc, [ip, #720]!	@ 0x2d0

0000a554 <g_timer_start@plt>:
    a554:	e28fc600 	add	ip, pc, #0, 12
    a558:	e28cca17 	add	ip, ip, #94208	@ 0x17000
    a55c:	e5bcf2c8 	ldr	pc, [ip, #712]!	@ 0x2c8

0000a560 <unlink@plt>:
    a560:	e28fc600 	add	ip, pc, #0, 12
    a564:	e28cca17 	add	ip, ip, #94208	@ 0x17000
    a568:	e5bcf2c0 	ldr	pc, [ip, #704]!	@ 0x2c0

0000a56c <LSCall@plt>:
    a56c:	e28fc600 	add	ip, pc, #0, 12
    a570:	e28cca17 	add	ip, ip, #94208	@ 0x17000
    a574:	e5bcf2b8 	ldr	pc, [ip, #696]!	@ 0x2b8

0000a578 <g_timer_destroy@plt>:
    a578:	e28fc600 	add	ip, pc, #0, 12
    a57c:	e28cca17 	add	ip, ip, #94208	@ 0x17000
    a580:	e5bcf2b0 	ldr	pc, [ip, #688]!	@ 0x2b0

0000a584 <json_object_object_add@plt>:
    a584:	e28fc600 	add	ip, pc, #0, 12
    a588:	e28cca17 	add	ip, ip, #94208	@ 0x17000
    a58c:	e5bcf2a8 	ldr	pc, [ip, #680]!	@ 0x2a8

0000a590 <memcpy@plt>:
    a590:	e28fc600 	add	ip, pc, #0, 12
    a594:	e28cca17 	add	ip, ip, #94208	@ 0x17000
    a598:	e5bcf2a0 	ldr	pc, [ip, #672]!	@ 0x2a0

0000a59c <g_thread_init@plt>:
    a59c:	e28fc600 	add	ip, pc, #0, 12
    a5a0:	e28cca17 	add	ip, ip, #94208	@ 0x17000
    a5a4:	e5bcf298 	ldr	pc, [ip, #664]!	@ 0x298

0000a5a8 <LSMessageGetPayload@plt>:
    a5a8:	e28fc600 	add	ip, pc, #0, 12
    a5ac:	e28cca17 	add	ip, ip, #94208	@ 0x17000
    a5b0:	e5bcf290 	ldr	pc, [ip, #656]!	@ 0x290

0000a5b4 <PmLogPrint_@plt>:
    a5b4:	e28fc600 	add	ip, pc, #0, 12
    a5b8:	e28cca17 	add	ip, ip, #94208	@ 0x17000
    a5bc:	e5bcf288 	ldr	pc, [ip, #648]!	@ 0x288

0000a5c0 <sqlite3_mprintf@plt>:
    a5c0:	e28fc600 	add	ip, pc, #0, 12
    a5c4:	e28cca17 	add	ip, ip, #94208	@ 0x17000
    a5c8:	e5bcf280 	ldr	pc, [ip, #640]!	@ 0x280

0000a5cc <strtol@plt>:
    a5cc:	e28fc600 	add	ip, pc, #0, 12
    a5d0:	e28cca17 	add	ip, ip, #94208	@ 0x17000
    a5d4:	e5bcf278 	ldr	pc, [ip, #632]!	@ 0x278

0000a5d8 <sigaddset@plt>:
    a5d8:	e28fc600 	add	ip, pc, #0, 12
    a5dc:	e28cca17 	add	ip, ip, #94208	@ 0x17000
    a5e0:	e5bcf270 	ldr	pc, [ip, #624]!	@ 0x270

0000a5e4 <g_main_context_default@plt>:
    a5e4:	e28fc600 	add	ip, pc, #0, 12
    a5e8:	e28cca17 	add	ip, ip, #94208	@ 0x17000
    a5ec:	e5bcf268 	ldr	pc, [ip, #616]!	@ 0x268

0000a5f0 <json_object_get@plt>:
    a5f0:	e28fc600 	add	ip, pc, #0, 12
    a5f4:	e28cca17 	add	ip, ip, #94208	@ 0x17000
    a5f8:	e5bcf260 	ldr	pc, [ip, #608]!	@ 0x260

0000a5fc <ctime@plt>:
    a5fc:	e28fc600 	add	ip, pc, #0, 12
    a600:	e28cca17 	add	ip, ip, #94208	@ 0x17000
    a604:	e5bcf258 	ldr	pc, [ip, #600]!	@ 0x258

0000a608 <sqlite3_step@plt>:
    a608:	e28fc600 	add	ip, pc, #0, 12
    a60c:	e28cca17 	add	ip, ip, #94208	@ 0x17000
    a610:	e5bcf250 	ldr	pc, [ip, #592]!	@ 0x250

0000a614 <g_getenv@plt>:
    a614:	e28fc600 	add	ip, pc, #0, 12
    a618:	e28cca17 	add	ip, ip, #94208	@ 0x17000
    a61c:	e5bcf248 	ldr	pc, [ip, #584]!	@ 0x248

0000a620 <json_object_new_int@plt>:
    a620:	e28fc600 	add	ip, pc, #0, 12
    a624:	e28cca17 	add	ip, ip, #94208	@ 0x17000
    a628:	e5bcf240 	ldr	pc, [ip, #576]!	@ 0x240

0000a62c <CertGetDatabaseInfo@plt>:
    a62c:	e28fc600 	add	ip, pc, #0, 12
    a630:	e28cca17 	add	ip, ip, #94208	@ 0x17000
    a634:	e5bcf238 	ldr	pc, [ip, #568]!	@ 0x238

0000a638 <g_main_loop_is_running@plt>:
    a638:	e28fc600 	add	ip, pc, #0, 12
    a63c:	e28cca17 	add	ip, ip, #94208	@ 0x17000
    a640:	e5bcf230 	ldr	pc, [ip, #560]!	@ 0x230

0000a644 <g_string_assign@plt>:
    a644:	e28fc600 	add	ip, pc, #0, 12
    a648:	e28cca17 	add	ip, ip, #94208	@ 0x17000
    a64c:	e5bcf228 	ldr	pc, [ip, #552]!	@ 0x228

0000a650 <CertInitCertMgr@plt>:
    a650:	e28fc600 	add	ip, pc, #0, 12
    a654:	e28cca17 	add	ip, ip, #94208	@ 0x17000
    a658:	e5bcf220 	ldr	pc, [ip, #544]!	@ 0x220

0000a65c <makePathToCert@plt>:
    a65c:	e28fc600 	add	ip, pc, #0, 12
    a660:	e28cca17 	add	ip, ip, #94208	@ 0x17000
    a664:	e5bcf218 	ldr	pc, [ip, #536]!	@ 0x218

0000a668 <close@plt>:
    a668:	e28fc600 	add	ip, pc, #0, 12
    a66c:	e28cca17 	add	ip, ip, #94208	@ 0x17000
    a670:	e5bcf210 	ldr	pc, [ip, #528]!	@ 0x210

0000a674 <json_object_array_add@plt>:
    a674:	e28fc600 	add	ip, pc, #0, 12
    a678:	e28cca17 	add	ip, ip, #94208	@ 0x17000
    a67c:	e5bcf208 	ldr	pc, [ip, #520]!	@ 0x208

0000a680 <json_object_object_get@plt>:
    a680:	e28fc600 	add	ip, pc, #0, 12
    a684:	e28cca17 	add	ip, ip, #94208	@ 0x17000
    a688:	e5bcf200 	ldr	pc, [ip, #512]!	@ 0x200

0000a68c <json_object_new_array@plt>:
    a68c:	e28fc600 	add	ip, pc, #0, 12
    a690:	e28cca17 	add	ip, ip, #94208	@ 0x17000
    a694:	e5bcf1f8 	ldr	pc, [ip, #504]!	@ 0x1f8

0000a698 <LPAppSetValue@plt>:
    a698:	e28fc600 	add	ip, pc, #0, 12
    a69c:	e28cca17 	add	ip, ip, #94208	@ 0x17000
    a6a0:	e5bcf1f0 	ldr	pc, [ip, #496]!	@ 0x1f0

0000a6a4 <time@plt>:
    a6a4:	e28fc600 	add	ip, pc, #0, 12
    a6a8:	e28cca17 	add	ip, ip, #94208	@ 0x17000
    a6ac:	e5bcf1e8 	ldr	pc, [ip, #488]!	@ 0x1e8

0000a6b0 <g_timeout_source_new@plt>:
    a6b0:	e28fc600 	add	ip, pc, #0, 12
    a6b4:	e28cca17 	add	ip, ip, #94208	@ 0x17000
    a6b8:	e5bcf1e0 	ldr	pc, [ip, #480]!	@ 0x1e0

0000a6bc <LSSubscriptionReply@plt>:
    a6bc:	e28fc600 	add	ip, pc, #0, 12
    a6c0:	e28cca17 	add	ip, ip, #94208	@ 0x17000
    a6c4:	e5bcf1d8 	ldr	pc, [ip, #472]!	@ 0x1d8

0000a6c8 <g_hash_table_replace@plt>:
    a6c8:	e28fc600 	add	ip, pc, #0, 12
    a6cc:	e28cca17 	add	ip, ip, #94208	@ 0x17000
    a6d0:	e5bcf1d0 	ldr	pc, [ip, #464]!	@ 0x1d0

0000a6d4 <malloc@plt>:
    a6d4:	e28fc600 	add	ip, pc, #0, 12
    a6d8:	e28cca17 	add	ip, ip, #94208	@ 0x17000
    a6dc:	e5bcf1c8 	ldr	pc, [ip, #456]!	@ 0x1c8

0000a6e0 <LSRegister@plt>:
    a6e0:	e28fc600 	add	ip, pc, #0, 12
    a6e4:	e28cca17 	add	ip, ip, #94208	@ 0x17000
    a6e8:	e5bcf1c0 	ldr	pc, [ip, #448]!	@ 0x1c0

0000a6ec <g_main_context_unref@plt>:
    a6ec:	e28fc600 	add	ip, pc, #0, 12
    a6f0:	e28cca17 	add	ip, ip, #94208	@ 0x17000
    a6f4:	e5bcf1b8 	ldr	pc, [ip, #440]!	@ 0x1b8

0000a6f8 <sigaction@plt>:
    a6f8:	e28fc600 	add	ip, pc, #0, 12
    a6fc:	e28cca17 	add	ip, ip, #94208	@ 0x17000
    a700:	e5bcf1b0 	ldr	pc, [ip, #432]!	@ 0x1b0

0000a704 <chdir@plt>:
    a704:	e28fc600 	add	ip, pc, #0, 12
    a708:	e28cca17 	add	ip, ip, #94208	@ 0x17000
    a70c:	e5bcf1a8 	ldr	pc, [ip, #424]!	@ 0x1a8

0000a710 <g_string_new_len@plt>:
    a710:	e28fc600 	add	ip, pc, #0, 12
    a714:	e28cca17 	add	ip, ip, #94208	@ 0x17000
    a718:	e5bcf1a0 	ldr	pc, [ip, #416]!	@ 0x1a0

0000a71c <dlerror@plt>:
    a71c:	e28fc600 	add	ip, pc, #0, 12
    a720:	e28cca17 	add	ip, ip, #94208	@ 0x17000
    a724:	e5bcf198 	ldr	pc, [ip, #408]!	@ 0x198

0000a728 <g_hash_table_lookup@plt>:
    a728:	e28fc600 	add	ip, pc, #0, 12
    a72c:	e28cca17 	add	ip, ip, #94208	@ 0x17000
    a730:	e5bcf190 	ldr	pc, [ip, #400]!	@ 0x190

0000a734 <sqlite3_errmsg@plt>:
    a734:	e28fc600 	add	ip, pc, #0, 12
    a738:	e28cca17 	add	ip, ip, #94208	@ 0x17000
    a73c:	e5bcf188 	ldr	pc, [ip, #392]!	@ 0x188

0000a740 <g_base64_encode@plt>:
    a740:	e28fc600 	add	ip, pc, #0, 12
    a744:	e28cca17 	add	ip, ip, #94208	@ 0x17000
    a748:	e5bcf180 	ldr	pc, [ip, #384]!	@ 0x180

0000a74c <g_malloc0@plt>:
    a74c:	e28fc600 	add	ip, pc, #0, 12
    a750:	e28cca17 	add	ip, ip, #94208	@ 0x17000
    a754:	e5bcf178 	ldr	pc, [ip, #376]!	@ 0x178

0000a758 <X509_free@plt>:
    a758:	e28fc600 	add	ip, pc, #0, 12
    a75c:	e28cca17 	add	ip, ip, #94208	@ 0x17000
    a760:	e5bcf170 	ldr	pc, [ip, #368]!	@ 0x170

0000a764 <LSErrorInit@plt>:
    a764:	e28fc600 	add	ip, pc, #0, 12
    a768:	e28cca17 	add	ip, ip, #94208	@ 0x17000
    a76c:	e5bcf168 	ldr	pc, [ip, #360]!	@ 0x168

0000a770 <LSMessageUnref@plt>:
    a770:	e28fc600 	add	ip, pc, #0, 12
    a774:	e28cca17 	add	ip, ip, #94208	@ 0x17000
    a778:	e5bcf160 	ldr	pc, [ip, #352]!	@ 0x160

0000a77c <g_main_loop_unref@plt>:
    a77c:	e28fc600 	add	ip, pc, #0, 12
    a780:	e28cca17 	add	ip, ip, #94208	@ 0x17000
    a784:	e5bcf158 	ldr	pc, [ip, #344]!	@ 0x158

0000a788 <sqlite3_get_table@plt>:
    a788:	e28fc600 	add	ip, pc, #0, 12
    a78c:	e28cca17 	add	ip, ip, #94208	@ 0x17000
    a790:	e5bcf150 	ldr	pc, [ip, #336]!	@ 0x150

0000a794 <g_string_truncate@plt>:
    a794:	e28fc600 	add	ip, pc, #0, 12
    a798:	e28cca17 	add	ip, ip, #94208	@ 0x17000
    a79c:	e5bcf148 	ldr	pc, [ip, #328]!	@ 0x148

0000a7a0 <fork@plt>:
    a7a0:	e28fc600 	add	ip, pc, #0, 12
    a7a4:	e28cca17 	add	ip, ip, #94208	@ 0x17000
    a7a8:	e5bcf140 	ldr	pc, [ip, #320]!	@ 0x140

0000a7ac <g_source_attach@plt>:
    a7ac:	e28fc600 	add	ip, pc, #0, 12
    a7b0:	e28cca17 	add	ip, ip, #94208	@ 0x17000
    a7b4:	e5bcf138 	ldr	pc, [ip, #312]!	@ 0x138

0000a7b8 <PmLogGetContext@plt>:
    a7b8:	e28fc600 	add	ip, pc, #0, 12
    a7bc:	e28cca17 	add	ip, ip, #94208	@ 0x17000
    a7c0:	e5bcf130 	ldr	pc, [ip, #304]!	@ 0x130

0000a7c4 <g_error_free@plt>:
    a7c4:	e28fc600 	add	ip, pc, #0, 12
    a7c8:	e28cca17 	add	ip, ip, #94208	@ 0x17000
    a7cc:	e5bcf128 	ldr	pc, [ip, #296]!	@ 0x128

0000a7d0 <sqlite3_prepare@plt>:
    a7d0:	e28fc600 	add	ip, pc, #0, 12
    a7d4:	e28cca17 	add	ip, ip, #94208	@ 0x17000
    a7d8:	e5bcf120 	ldr	pc, [ip, #288]!	@ 0x120

0000a7dc <LPAppFreeHandle@plt>:
    a7dc:	e28fc600 	add	ip, pc, #0, 12
    a7e0:	e28cca17 	add	ip, ip, #94208	@ 0x17000
    a7e4:	e5bcf118 	ldr	pc, [ip, #280]!	@ 0x118

0000a7e8 <LSMessageRef@plt>:
    a7e8:	e28fc600 	add	ip, pc, #0, 12
    a7ec:	e28cca17 	add	ip, ip, #94208	@ 0x17000
    a7f0:	e5bcf110 	ldr	pc, [ip, #272]!	@ 0x110

0000a7f4 <json_object_new_boolean@plt>:
    a7f4:	e28fc600 	add	ip, pc, #0, 12
    a7f8:	e28cca17 	add	ip, ip, #94208	@ 0x17000
    a7fc:	e5bcf108 	ldr	pc, [ip, #264]!	@ 0x108

0000a800 <strncmp@plt>:
    a800:	e28fc600 	add	ip, pc, #0, 12
    a804:	e28cca17 	add	ip, ip, #94208	@ 0x17000
    a808:	e5bcf100 	ldr	pc, [ip, #256]!	@ 0x100

0000a80c <CertPemToX509@plt>:
    a80c:	e28fc600 	add	ip, pc, #0, 12
    a810:	e28cca17 	add	ip, ip, #94208	@ 0x17000
    a814:	e5bcf0f8 	ldr	pc, [ip, #248]!	@ 0xf8

0000a818 <json_object_new_object@plt>:
    a818:	e28fc600 	add	ip, pc, #0, 12
    a81c:	e28cca17 	add	ip, ip, #94208	@ 0x17000
    a820:	e5bcf0f0 	ldr	pc, [ip, #240]!	@ 0xf0

0000a824 <g_main_loop_run@plt>:
    a824:	e28fc600 	add	ip, pc, #0, 12
    a828:	e28cca17 	add	ip, ip, #94208	@ 0x17000
    a82c:	e5bcf0e8 	ldr	pc, [ip, #232]!	@ 0xe8

0000a830 <LSSubscriptionAdd@plt>:
    a830:	e28fc600 	add	ip, pc, #0, 12
    a834:	e28cca17 	add	ip, ip, #94208	@ 0x17000
    a838:	e5bcf0e0 	ldr	pc, [ip, #224]!	@ 0xe0

0000a83c <g_try_malloc0@plt>:
    a83c:	e28fc600 	add	ip, pc, #0, 12
    a840:	e28cca17 	add	ip, ip, #94208	@ 0x17000
    a844:	e5bcf0d8 	ldr	pc, [ip, #216]!	@ 0xd8

0000a848 <g_string_append@plt>:
    a848:	e28fc600 	add	ip, pc, #0, 12
    a84c:	e28cca17 	add	ip, ip, #94208	@ 0x17000
    a850:	e5bcf0d0 	ldr	pc, [ip, #208]!	@ 0xd0

0000a854 <g_string_append_printf@plt>:
    a854:	e28fc600 	add	ip, pc, #0, 12
    a858:	e28cca17 	add	ip, ip, #94208	@ 0x17000
    a85c:	e5bcf0c8 	ldr	pc, [ip, #200]!	@ 0xc8

0000a860 <strcmp@plt>:
    a860:	e28fc600 	add	ip, pc, #0, 12
    a864:	e28cca17 	add	ip, ip, #94208	@ 0x17000
    a868:	e5bcf0c0 	ldr	pc, [ip, #192]!	@ 0xc0

0000a86c <g_str_equal@plt>:
    a86c:	e28fc600 	add	ip, pc, #0, 12
    a870:	e28cca17 	add	ip, ip, #94208	@ 0x17000
    a874:	e5bcf0b8 	ldr	pc, [ip, #184]!	@ 0xb8

0000a878 <exit@plt>:
    a878:	e28fc600 	add	ip, pc, #0, 12
    a87c:	e28cca17 	add	ip, ip, #94208	@ 0x17000
    a880:	e5bcf0b0 	ldr	pc, [ip, #176]!	@ 0xb0

0000a884 <sqlite3_open@plt>:
    a884:	e28fc600 	add	ip, pc, #0, 12
    a888:	e28cca17 	add	ip, ip, #94208	@ 0x17000
    a88c:	e5bcf0a8 	ldr	pc, [ip, #168]!	@ 0xa8

0000a890 <g_dir_open@plt>:
    a890:	e28fc600 	add	ip, pc, #0, 12
    a894:	e28cca17 	add	ip, ip, #94208	@ 0x17000
    a898:	e5bcf0a0 	ldr	pc, [ip, #160]!	@ 0xa0

0000a89c <g_file_test@plt>:
    a89c:	e28fc600 	add	ip, pc, #0, 12
    a8a0:	e28cca17 	add	ip, ip, #94208	@ 0x17000
    a8a4:	e5bcf098 	ldr	pc, [ip, #152]!	@ 0x98

0000a8a8 <__errno_location@plt>:
    a8a8:	e28fc600 	add	ip, pc, #0, 12
    a8ac:	e28cca17 	add	ip, ip, #94208	@ 0x17000
    a8b0:	e5bcf090 	ldr	pc, [ip, #144]!	@ 0x90

0000a8b4 <json_object_put@plt>:
    a8b4:	e28fc600 	add	ip, pc, #0, 12
    a8b8:	e28cca17 	add	ip, ip, #94208	@ 0x17000
    a8bc:	e5bcf088 	ldr	pc, [ip, #136]!	@ 0x88

0000a8c0 <dlsym@plt>:
    a8c0:	e28fc600 	add	ip, pc, #0, 12
    a8c4:	e28cca17 	add	ip, ip, #94208	@ 0x17000
    a8c8:	e5bcf080 	ldr	pc, [ip, #128]!	@ 0x80

0000a8cc <CertGetDatabaseStrValue@plt>:
    a8cc:	e28fc600 	add	ip, pc, #0, 12
    a8d0:	e28cca17 	add	ip, ip, #94208	@ 0x17000
    a8d4:	e5bcf078 	ldr	pc, [ip, #120]!	@ 0x78

0000a8d8 <json_object_to_json_string@plt>:
    a8d8:	e28fc600 	add	ip, pc, #0, 12
    a8dc:	e28cca17 	add	ip, ip, #94208	@ 0x17000
    a8e0:	e5bcf070 	ldr	pc, [ip, #112]!	@ 0x70

0000a8e4 <g_ascii_strcasecmp@plt>:
    a8e4:	e28fc600 	add	ip, pc, #0, 12
    a8e8:	e28cca17 	add	ip, ip, #94208	@ 0x17000
    a8ec:	e5bcf068 	ldr	pc, [ip, #104]!	@ 0x68

0000a8f0 <fputs@plt>:
    a8f0:	e28fc600 	add	ip, pc, #0, 12
    a8f4:	e28cca17 	add	ip, ip, #94208	@ 0x17000
    a8f8:	e5bcf060 	ldr	pc, [ip, #96]!	@ 0x60

Disassembly of section .text:

0000a900 <_start>:
    a900:	e59fc024 	ldr	ip, [pc, #36]	@ a92c <_start+0x2c>
    a904:	e3a0b000 	mov	fp, #0
    a908:	e49d1004 	pop	{r1}		@ (ldr r1, [sp], #4)
    a90c:	e1a0200d 	mov	r2, sp
    a910:	e52d2004 	push	{r2}		@ (str r2, [sp, #-4]!)
    a914:	e52d0004 	push	{r0}		@ (str r0, [sp, #-4]!)
    a918:	e59f0010 	ldr	r0, [pc, #16]	@ a930 <_start+0x30>
    a91c:	e59f3010 	ldr	r3, [pc, #16]	@ a934 <_start+0x34>
    a920:	e52dc004 	push	{ip}		@ (str ip, [sp, #-4]!)
    a924:	ebfffe50 	bl	a26c <__libc_start_main@plt>
    a928:	ebfffe40 	bl	a230 <abort@plt>
    a92c:	00015454 	.word	0x00015454
    a930:	0000aa84 	.word	0x0000aa84
    a934:	00015458 	.word	0x00015458

0000a938 <call_gmon_start>:
    a938:	e59f3014 	ldr	r3, [pc, #20]	@ a954 <call_gmon_start+0x1c>
    a93c:	e59f2014 	ldr	r2, [pc, #20]	@ a958 <call_gmon_start+0x20>
    a940:	e08f3003 	add	r3, pc, r3
    a944:	e7931002 	ldr	r1, [r3, r2]
    a948:	e3510000 	cmp	r1, #0
    a94c:	012fff1e 	bxeq	lr
    a950:	eafffe5d 	b	a2cc <__gmon_start__@plt>
    a954:	00016da8 	.word	0x00016da8
    a958:	0000026c 	.word	0x0000026c

0000a95c <__do_global_dtors_aux>:
    a95c:	e3012a74 	movw	r2, #6772	@ 0x1a74
    a960:	e3402002 	movt	r2, #2
    a964:	e5d23000 	ldrb	r3, [r2]
    a968:	e3530000 	cmp	r3, #0
    a96c:	03a03001 	moveq	r3, #1
    a970:	05c23000 	strbeq	r3, [r2]
    a974:	e12fff1e 	bx	lr

0000a978 <frame_dummy>:
    a978:	e301059c 	movw	r0, #5532	@ 0x159c
    a97c:	e3400002 	movt	r0, #2
    a980:	e92d4010 	push	{r4, lr}
    a984:	e5903000 	ldr	r3, [r0]
    a988:	e3530000 	cmp	r3, #0
    a98c:	08bd8010 	popeq	{r4, pc}
    a990:	e3003000 	movw	r3, #0
    a994:	e3403000 	movt	r3, #0
    a998:	e3530000 	cmp	r3, #0
    a99c:	08bd8010 	popeq	{r4, pc}
    a9a0:	e12fff33 	blx	r3
    a9a4:	e8bd8010 	pop	{r4, pc}

0000a9a8 <initSignals>:
    a9a8:	e92d4030 	push	{r4, r5, lr}
    a9ac:	e24ddf45 	sub	sp, sp, #276	@ 0x114
    a9b0:	e28d4090 	add	r4, sp, #144	@ 0x90
    a9b4:	e28d5004 	add	r5, sp, #4
    a9b8:	e1a00004 	mov	r0, r4
    a9bc:	ebfffe15 	bl	a218 <sigemptyset@plt>
    a9c0:	e3a01001 	mov	r1, #1
    a9c4:	e1a00004 	mov	r0, r4
    a9c8:	ebffff02 	bl	a5d8 <sigaddset@plt>
    a9cc:	e3a01003 	mov	r1, #3
    a9d0:	e1a00004 	mov	r0, r4
    a9d4:	ebfffeff 	bl	a5d8 <sigaddset@plt>
    a9d8:	e3a0100f 	mov	r1, #15
    a9dc:	e1a00004 	mov	r0, r4
    a9e0:	ebfffefc 	bl	a5d8 <sigaddset@plt>
    a9e4:	e3a01000 	mov	r1, #0
    a9e8:	e3a0208c 	mov	r2, #140	@ 0x8c
    a9ec:	e1a00005 	mov	r0, r5
    a9f0:	ebfffe74 	bl	a3c8 <memset@plt>
    a9f4:	e1a01004 	mov	r1, r4
    a9f8:	e3a02080 	mov	r2, #128	@ 0x80
    a9fc:	e28d0008 	add	r0, sp, #8
    aa00:	e30a3d34 	movw	r3, #44340	@ 0xad34
    aa04:	e3403000 	movt	r3, #0
    aa08:	e58d3004 	str	r3, [sp, #4]
    aa0c:	ebfffedf 	bl	a590 <memcpy@plt>
    aa10:	e1a01005 	mov	r1, r5
    aa14:	e3a0000f 	mov	r0, #15
    aa18:	e3a02000 	mov	r2, #0
    aa1c:	ebffff35 	bl	a6f8 <sigaction@plt>
    aa20:	e3500000 	cmp	r0, #0
    aa24:	0a000010 	beq	aa6c <initSignals+0xc4>
    aa28:	e3010a78 	movw	r0, #6776	@ 0x1a78
    aa2c:	e3400002 	movt	r0, #2
    aa30:	e5904000 	ldr	r4, [r0]
    aa34:	e3540000 	cmp	r4, #0
    aa38:	0a000002 	beq	aa48 <initSignals+0xa0>
    aa3c:	e5941000 	ldr	r1, [r4]
    aa40:	e3510002 	cmp	r1, #2
    aa44:	da00000a 	ble	aa74 <initSignals+0xcc>
    aa48:	ebffff96 	bl	a8a8 <__errno_location@plt>
    aa4c:	e3052564 	movw	r2, #21860	@ 0x5564
    aa50:	e3a01003 	mov	r1, #3
    aa54:	e3402001 	movt	r2, #1
    aa58:	e1a05000 	mov	r5, r0
    aa5c:	e1a00004 	mov	r0, r4
    aa60:	e5953000 	ldr	r3, [r5]
    aa64:	ebfffed2 	bl	a5b4 <PmLogPrint_@plt>
    aa68:	e5950000 	ldr	r0, [r5]
    aa6c:	e28ddf45 	add	sp, sp, #276	@ 0x114
    aa70:	e8bd8030 	pop	{r4, r5, pc}
    aa74:	ebffff8b 	bl	a8a8 <__errno_location@plt>
    aa78:	e1a05000 	mov	r5, r0
    aa7c:	e5950000 	ldr	r0, [r5]
    aa80:	eafffff9 	b	aa6c <initSignals+0xc4>

0000aa84 <main>:
    aa84:	e92d41f0 	push	{r4, r5, r6, r7, r8, lr}
    aa88:	e3016a78 	movw	r6, #6776	@ 0x1a78
    aa8c:	e3406002 	movt	r6, #2
    aa90:	e24dd010 	sub	sp, sp, #16
    aa94:	e1a07000 	mov	r7, r0
    aa98:	e1a08001 	mov	r8, r1
    aa9c:	e3050584 	movw	r0, #21892	@ 0x5584
    aaa0:	e1a01006 	mov	r1, r6
    aaa4:	e3400001 	movt	r0, #1
    aaa8:	ebffff42 	bl	a7b8 <PmLogGetContext@plt>
    aaac:	e250e000 	subs	lr, r0, #0
    aab0:	0a000009 	beq	aadc <main+0x58>
    aab4:	e3a0c000 	mov	ip, #0
    aab8:	e305258c 	movw	r2, #21900	@ 0x558c
    aabc:	e3053544 	movw	r3, #21828	@ 0x5544
    aac0:	e58de000 	str	lr, [sp]
    aac4:	e1a0000c 	mov	r0, ip
    aac8:	e3402001 	movt	r2, #1
    aacc:	e3403001 	movt	r3, #1
    aad0:	e3a01003 	mov	r1, #3
    aad4:	e586c000 	str	ip, [r6]
    aad8:	ebfffeb5 	bl	a5b4 <PmLogPrint_@plt>
    aadc:	e5960000 	ldr	r0, [r6]
    aae0:	e3500000 	cmp	r0, #0
    aae4:	0a000025 	beq	ab80 <main+0xfc>
    aae8:	e5903000 	ldr	r3, [r0]
    aaec:	e3530006 	cmp	r3, #6
    aaf0:	ca000022 	bgt	ab80 <main+0xfc>
    aaf4:	e30505e4 	movw	r0, #21988	@ 0x55e4
    aaf8:	e3400001 	movt	r0, #1
    aafc:	ebffff00 	bl	a704 <chdir@plt>
    ab00:	e3500000 	cmp	r0, #0
    ab04:	ba000027 	blt	aba8 <main+0x124>
    ab08:	e3a00000 	mov	r0, #0
    ab0c:	e28d5010 	add	r5, sp, #16
    ab10:	e1a04000 	mov	r4, r0
    ab14:	e5250004 	str	r0, [r5, #-4]!
    ab18:	e1a00007 	mov	r0, r7
    ab1c:	e1a01008 	mov	r1, r8
    ab20:	e30623c4 	movw	r2, #25540	@ 0x63c4
    ab24:	e3013968 	movw	r3, #6504	@ 0x1968
    ab28:	e3402001 	movt	r2, #1
    ab2c:	e3403002 	movt	r3, #2
    ab30:	e58d5000 	str	r5, [sp]
    ab34:	ebfffe5c 	bl	a4ac <getopt_long@plt>
    ab38:	e3700001 	cmn	r0, #1
    ab3c:	0a000041 	beq	ac48 <main+0x1c4>
    ab40:	e59d200c 	ldr	r2, [sp, #12]
    ab44:	e3520000 	cmp	r2, #0
    ab48:	0a000022 	beq	abd8 <main+0x154>
    ab4c:	e5960000 	ldr	r0, [r6]
    ab50:	e3500000 	cmp	r0, #0
    ab54:	0a000002 	beq	ab64 <main+0xe0>
    ab58:	e5905000 	ldr	r5, [r0]
    ab5c:	e3550005 	cmp	r5, #5
    ab60:	da000004 	ble	ab78 <main+0xf4>
    ab64:	e3052608 	movw	r2, #22024	@ 0x5608
    ab68:	e5983000 	ldr	r3, [r8]
    ab6c:	e3402001 	movt	r2, #1
    ab70:	e3a01006 	mov	r1, #6
    ab74:	ebfffe8e 	bl	a5b4 <PmLogPrint_@plt>
    ab78:	e3a00000 	mov	r0, #0
    ab7c:	ebffff3d 	bl	a878 <exit@plt>
    ab80:	e3a01007 	mov	r1, #7
    ab84:	e59f31a0 	ldr	r3, [pc, #416]	@ ad2c <main+0x2a8>
    ab88:	e30525a8 	movw	r2, #21928	@ 0x55a8
    ab8c:	e3402001 	movt	r2, #1
    ab90:	ebfffe87 	bl	a5b4 <PmLogPrint_@plt>
    ab94:	e30505e4 	movw	r0, #21988	@ 0x55e4
    ab98:	e3400001 	movt	r0, #1
    ab9c:	ebfffed8 	bl	a704 <chdir@plt>
    aba0:	e3500000 	cmp	r0, #0
    aba4:	aaffffd7 	bge	ab08 <main+0x84>
    aba8:	e5960000 	ldr	r0, [r6]
    abac:	e3500000 	cmp	r0, #0
    abb0:	0a000002 	beq	abc0 <main+0x13c>
    abb4:	e5901000 	ldr	r1, [r0]
    abb8:	e3510002 	cmp	r1, #2
    abbc:	daffffd1 	ble	ab08 <main+0x84>
    abc0:	e30525c0 	movw	r2, #21952	@ 0x55c0
    abc4:	e3a01003 	mov	r1, #3
    abc8:	e3402001 	movt	r2, #1
    abcc:	e59f315c 	ldr	r3, [pc, #348]	@ ad30 <main+0x2ac>
    abd0:	ebfffe77 	bl	a5b4 <PmLogPrint_@plt>
    abd4:	eaffffcb 	b	ab08 <main+0x84>
    abd8:	e5960000 	ldr	r0, [r6]
    abdc:	e3500000 	cmp	r0, #0
    abe0:	0a000002 	beq	abf0 <main+0x16c>
    abe4:	e5904000 	ldr	r4, [r0]
    abe8:	e3540005 	cmp	r4, #5
    abec:	da000003 	ble	ac00 <main+0x17c>
    abf0:	e30525f0 	movw	r2, #22000	@ 0x55f0
    abf4:	e3a01006 	mov	r1, #6
    abf8:	e3402001 	movt	r2, #1
    abfc:	ebfffe6c 	bl	a5b4 <PmLogPrint_@plt>
    ac00:	ebfffee6 	bl	a7a0 <fork@plt>
    ac04:	e3500000 	cmp	r0, #0
    ac08:	caffffda 	bgt	ab78 <main+0xf4>
    ac0c:	e1b04fa0 	lsrs	r4, r0, #31
    ac10:	1affffc0 	bne	ab18 <main+0x94>
    ac14:	e1a00004 	mov	r0, r4
    ac18:	ebfffe3e 	bl	a518 <umask@plt>
    ac1c:	ebfffdf8 	bl	a404 <setsid@plt>
    ac20:	e3500000 	cmp	r0, #0
    ac24:	b3a04001 	movlt	r4, #1
    ac28:	baffffba 	blt	ab18 <main+0x94>
    ac2c:	e1a00004 	mov	r0, r4
    ac30:	ebfffe8c 	bl	a668 <close@plt>
    ac34:	e3a00001 	mov	r0, #1
    ac38:	ebfffe8a 	bl	a668 <close@plt>
    ac3c:	e3a00002 	mov	r0, #2
    ac40:	ebfffe88 	bl	a668 <close@plt>
    ac44:	eaffffb3 	b	ab18 <main+0x94>
    ac48:	e3540000 	cmp	r4, #0
    ac4c:	0a000001 	beq	ac58 <main+0x1d4>
    ac50:	e1a00004 	mov	r0, r4
    ac54:	ebffff07 	bl	a878 <exit@plt>
    ac58:	ebffff52 	bl	a9a8 <initSignals>
    ac5c:	e2504000 	subs	r4, r0, #0
    ac60:	1afffffa 	bne	ac50 <main+0x1cc>
    ac64:	e3018a70 	movw	r8, #6768	@ 0x1a70
    ac68:	e3408002 	movt	r8, #2
    ac6c:	e5987000 	ldr	r7, [r8]
    ac70:	e3570000 	cmp	r7, #0
    ac74:	0a000023 	beq	ad08 <main+0x284>
    ac78:	eb0017e5 	bl	10c14 <vpnSvcStart>
    ac7c:	e3500000 	cmp	r0, #0
    ac80:	0a000011 	beq	accc <main+0x248>
    ac84:	e5960000 	ldr	r0, [r6]
    ac88:	e3500000 	cmp	r0, #0
    ac8c:	0a00001f 	beq	ad10 <main+0x28c>
    ac90:	e590e000 	ldr	lr, [r0]
    ac94:	e35e0002 	cmp	lr, #2
    ac98:	d3a04001 	movle	r4, #1
    ac9c:	ca00001b 	bgt	ad10 <main+0x28c>
    aca0:	e5960000 	ldr	r0, [r6]
    aca4:	e5906000 	ldr	r6, [r0]
    aca8:	e3560005 	cmp	r6, #5
    acac:	daffffe7 	ble	ac50 <main+0x1cc>
    acb0:	e3052660 	movw	r2, #22112	@ 0x5660
    acb4:	e3a01006 	mov	r1, #6
    acb8:	e3402001 	movt	r2, #1
    acbc:	e59f306c 	ldr	r3, [pc, #108]	@ ad30 <main+0x2ac>
    acc0:	e58d4000 	str	r4, [sp]
    acc4:	ebfffe3a 	bl	a5b4 <PmLogPrint_@plt>
    acc8:	eaffffe0 	b	ac50 <main+0x1cc>
    accc:	e5960000 	ldr	r0, [r6]
    acd0:	e3500000 	cmp	r0, #0
    acd4:	0a000002 	beq	ace4 <main+0x260>
    acd8:	e590c000 	ldr	ip, [r0]
    acdc:	e35c0005 	cmp	ip, #5
    ace0:	daffffee 	ble	aca0 <main+0x21c>
    ace4:	e305264c 	movw	r2, #22092	@ 0x564c
    ace8:	e3a01006 	mov	r1, #6
    acec:	e3402001 	movt	r2, #1
    acf0:	e59f3038 	ldr	r3, [pc, #56]	@ ad30 <main+0x2ac>
    acf4:	ebfffe2e 	bl	a5b4 <PmLogPrint_@plt>
    acf8:	e5960000 	ldr	r0, [r6]
    acfc:	e3500000 	cmp	r0, #0
    ad00:	1affffe7 	bne	aca4 <main+0x220>
    ad04:	eaffffe9 	b	acb0 <main+0x22c>
    ad08:	ebfffe23 	bl	a59c <g_thread_init@plt>
    ad0c:	eaffffd9 	b	ac78 <main+0x1f4>
    ad10:	e3a01003 	mov	r1, #3
    ad14:	e3052620 	movw	r2, #22048	@ 0x5620
    ad18:	e59f3010 	ldr	r3, [pc, #16]	@ ad30 <main+0x2ac>
    ad1c:	e3402001 	movt	r2, #1
    ad20:	e3a04001 	mov	r4, #1
    ad24:	ebfffe22 	bl	a5b4 <PmLogPrint_@plt>
    ad28:	eafffff2 	b	acf8 <main+0x274>
    ad2c:	00015550 	.word	0x00015550
    ad30:	0001555c 	.word	0x0001555c

0000ad34 <prvSigTermHandler>:
    ad34:	ea0018fa 	b	11124 <quitGmainLoop>

0000ad38 <dbiRegisterWatchCb>:
    ad38:	e3013a7c 	movw	r3, #6780	@ 0x1a7c
    ad3c:	e3403002 	movt	r3, #2
    ad40:	e5830000 	str	r0, [r3]
    ad44:	e12fff1e 	bx	lr

0000ad48 <dbi_execute>:
    ad48:	e92d40f0 	push	{r4, r5, r6, r7, lr}
    ad4c:	e3015a7c 	movw	r5, #6780	@ 0x1a7c
    ad50:	e3405002 	movt	r5, #2
    ad54:	e1a0c000 	mov	ip, r0
    ad58:	e24dd014 	sub	sp, sp, #20
    ad5c:	e1a07001 	mov	r7, r1
    ad60:	e5950004 	ldr	r0, [r5, #4]
    ad64:	e1a06003 	mov	r6, r3
    ad68:	e3500000 	cmp	r0, #0
    ad6c:	0a00003e 	beq	ae6c <dbi_execute+0x124>
    ad70:	e3510000 	cmp	r1, #0
    ad74:	0a000021 	beq	ae00 <dbi_execute+0xb8>
    ad78:	e28d4010 	add	r4, sp, #16
    ad7c:	e1a03002 	mov	r3, r2
    ad80:	e58d6000 	str	r6, [sp]
    ad84:	e3a0e000 	mov	lr, #0
    ad88:	e1a0100c 	mov	r1, ip
    ad8c:	e524e004 	str	lr, [r4, #-4]!
    ad90:	e1a02007 	mov	r2, r7
    ad94:	e58d4004 	str	r4, [sp, #4]
    ad98:	ebfffe7a 	bl	a788 <sqlite3_get_table@plt>
    ad9c:	e3500000 	cmp	r0, #0
    ada0:	0a000014 	beq	adf8 <dbi_execute+0xb0>
    ada4:	e59dc00c 	ldr	ip, [sp, #12]
    ada8:	e35c0000 	cmp	ip, #0
    adac:	0a00003e 	beq	aeac <dbi_execute+0x164>
    adb0:	e3014a78 	movw	r4, #6776	@ 0x1a78
    adb4:	e3404002 	movt	r4, #2
    adb8:	e5940000 	ldr	r0, [r4]
    adbc:	e3500000 	cmp	r0, #0
    adc0:	0a000018 	beq	ae28 <dbi_execute+0xe0>
    adc4:	e5903000 	ldr	r3, [r0]
    adc8:	e3530006 	cmp	r3, #6
    adcc:	ca000015 	bgt	ae28 <dbi_execute+0xe0>
    add0:	e1a0000c 	mov	r0, ip
    add4:	e3a04000 	mov	r4, #0
    add8:	ebfffd95 	bl	a434 <sqlite3_free@plt>
    addc:	e5970000 	ldr	r0, [r7]
    ade0:	e58d400c 	str	r4, [sp, #12]
    ade4:	e1500004 	cmp	r0, r4
    ade8:	0a00000c 	beq	ae20 <dbi_execute+0xd8>
    adec:	ebfffdbd 	bl	a4e8 <sqlite3_free_table@plt>
    adf0:	e3a00001 	mov	r0, #1
    adf4:	e5874000 	str	r4, [r7]
    adf8:	e28dd014 	add	sp, sp, #20
    adfc:	e8bd80f0 	pop	{r4, r5, r6, r7, pc}
    ae00:	e3012a78 	movw	r2, #6776	@ 0x1a78
    ae04:	e3402002 	movt	r2, #2
    ae08:	e5920000 	ldr	r0, [r2]
    ae0c:	e3500000 	cmp	r0, #0
    ae10:	0a00000d 	beq	ae4c <dbi_execute+0x104>
    ae14:	e590c000 	ldr	ip, [r0]
    ae18:	e35c0002 	cmp	ip, #2
    ae1c:	ca00000a 	bgt	ae4c <dbi_execute+0x104>
    ae20:	e3a00001 	mov	r0, #1
    ae24:	eafffff3 	b	adf8 <dbi_execute+0xb0>
    ae28:	e3a01007 	mov	r1, #7
    ae2c:	e3052774 	movw	r2, #22388	@ 0x5774
    ae30:	e3053690 	movw	r3, #22160	@ 0x5690
    ae34:	e3402001 	movt	r2, #1
    ae38:	e3403001 	movt	r3, #1
    ae3c:	e58dc000 	str	ip, [sp]
    ae40:	ebfffddb 	bl	a5b4 <PmLogPrint_@plt>
    ae44:	e59dc00c 	ldr	ip, [sp, #12]
    ae48:	eaffffe0 	b	add0 <dbi_execute+0x88>
    ae4c:	e3a01003 	mov	r1, #3
    ae50:	e3052758 	movw	r2, #22360	@ 0x5758
    ae54:	e3053690 	movw	r3, #22160	@ 0x5690
    ae58:	e3402001 	movt	r2, #1
    ae5c:	e3403001 	movt	r3, #1
    ae60:	ebfffdd3 	bl	a5b4 <PmLogPrint_@plt>
    ae64:	e3a00001 	mov	r0, #1
    ae68:	eaffffe2 	b	adf8 <dbi_execute+0xb0>
    ae6c:	e3013a78 	movw	r3, #6776	@ 0x1a78
    ae70:	e3403002 	movt	r3, #2
    ae74:	e5930000 	ldr	r0, [r3]
    ae78:	e3500000 	cmp	r0, #0
    ae7c:	0a000002 	beq	ae8c <dbi_execute+0x144>
    ae80:	e5901000 	ldr	r1, [r0]
    ae84:	e3510002 	cmp	r1, #2
    ae88:	daffffe4 	ble	ae20 <dbi_execute+0xd8>
    ae8c:	e3a01003 	mov	r1, #3
    ae90:	e3052734 	movw	r2, #22324	@ 0x5734
    ae94:	e3053690 	movw	r3, #22160	@ 0x5690
    ae98:	e3402001 	movt	r2, #1
    ae9c:	e3403001 	movt	r3, #1
    aea0:	ebfffdc3 	bl	a5b4 <PmLogPrint_@plt>
    aea4:	e3a00001 	mov	r0, #1
    aea8:	eaffffd2 	b	adf8 <dbi_execute+0xb0>
    aeac:	e3010a78 	movw	r0, #6776	@ 0x1a78
    aeb0:	e3400002 	movt	r0, #2
    aeb4:	e5904000 	ldr	r4, [r0]
    aeb8:	e3540000 	cmp	r4, #0
    aebc:	0a000002 	beq	aecc <dbi_execute+0x184>
    aec0:	e5941000 	ldr	r1, [r4]
    aec4:	e3510002 	cmp	r1, #2
    aec8:	daffffd4 	ble	ae20 <dbi_execute+0xd8>
    aecc:	e5950004 	ldr	r0, [r5, #4]
    aed0:	ebfffe17 	bl	a734 <sqlite3_errmsg@plt>
    aed4:	e3a01003 	mov	r1, #3
    aed8:	e3052774 	movw	r2, #22388	@ 0x5774
    aedc:	e3053690 	movw	r3, #22160	@ 0x5690
    aee0:	e3402001 	movt	r2, #1
    aee4:	e3403001 	movt	r3, #1
    aee8:	e58d0000 	str	r0, [sp]
    aeec:	e1a00004 	mov	r0, r4
    aef0:	ebfffdaf 	bl	a5b4 <PmLogPrint_@plt>
    aef4:	e3a00001 	mov	r0, #1
    aef8:	eaffffbe 	b	adf8 <dbi_execute+0xb0>

0000aefc <dbi_execute_ignore_results>:
    aefc:	e3013a7c 	movw	r3, #6780	@ 0x1a7c
    af00:	e3403002 	movt	r3, #2
    af04:	e92d4010 	push	{r4, lr}
    af08:	e5931004 	ldr	r1, [r3, #4]
    af0c:	e3a02000 	mov	r2, #0
    af10:	e24dd010 	sub	sp, sp, #16
    af14:	e1510002 	cmp	r1, r2
    af18:	e58d2004 	str	r2, [sp, #4]
    af1c:	e58d200c 	str	r2, [sp, #12]
    af20:	e58d2008 	str	r2, [sp, #8]
    af24:	0a00000b 	beq	af58 <dbi_execute_ignore_results+0x5c>
    af28:	e28d100c 	add	r1, sp, #12
    af2c:	e28d2008 	add	r2, sp, #8
    af30:	e28d3004 	add	r3, sp, #4
    af34:	ebffff83 	bl	ad48 <dbi_execute>
    af38:	e1a04000 	mov	r4, r0
    af3c:	e59d000c 	ldr	r0, [sp, #12]
    af40:	e3500000 	cmp	r0, #0
    af44:	0a000000 	beq	af4c <dbi_execute_ignore_results+0x50>
    af48:	ebfffd66 	bl	a4e8 <sqlite3_free_table@plt>
    af4c:	e1a00004 	mov	r0, r4
    af50:	e28dd010 	add	sp, sp, #16
    af54:	e8bd8010 	pop	{r4, pc}
    af58:	e301ca78 	movw	ip, #6776	@ 0x1a78
    af5c:	e340c002 	movt	ip, #2
    af60:	e59c0000 	ldr	r0, [ip]
    af64:	e1500002 	cmp	r0, r2
    af68:	0a000003 	beq	af7c <dbi_execute_ignore_results+0x80>
    af6c:	e5902000 	ldr	r2, [r0]
    af70:	e3520002 	cmp	r2, #2
    af74:	d3a04001 	movle	r4, #1
    af78:	dafffff3 	ble	af4c <dbi_execute_ignore_results+0x50>
    af7c:	e3a01003 	mov	r1, #3
    af80:	e3052734 	movw	r2, #22324	@ 0x5734
    af84:	e59f300c 	ldr	r3, [pc, #12]	@ af98 <dbi_execute_ignore_results+0x9c>
    af88:	e3402001 	movt	r2, #1
    af8c:	e3a04001 	mov	r4, #1
    af90:	ebfffd87 	bl	a5b4 <PmLogPrint_@plt>
    af94:	eaffffec 	b	af4c <dbi_execute_ignore_results+0x50>
    af98:	0001569c 	.word	0x0001569c

0000af9c <dbi_init>:
    af9c:	e92d4070 	push	{r4, r5, r6, lr}
    afa0:	e3014a7c 	movw	r4, #6780	@ 0x1a7c
    afa4:	e3404002 	movt	r4, #2
    afa8:	e24dd008 	sub	sp, sp, #8
    afac:	e5943004 	ldr	r3, [r4, #4]
    afb0:	e3530000 	cmp	r3, #0
    afb4:	13a04000 	movne	r4, #0
    afb8:	0a000002 	beq	afc8 <dbi_init+0x2c>
    afbc:	e1a00004 	mov	r0, r4
    afc0:	e28dd008 	add	sp, sp, #8
    afc4:	e8bd8070 	pop	{r4, r5, r6, pc}
    afc8:	e30603c4 	movw	r0, #25540	@ 0x63c4
    afcc:	e3400001 	movt	r0, #1
    afd0:	ebfffd11 	bl	a41c <g_string_new@plt>
    afd4:	e3015a78 	movw	r5, #6776	@ 0x1a78
    afd8:	e3405002 	movt	r5, #2
    afdc:	e5952000 	ldr	r2, [r5]
    afe0:	e3520000 	cmp	r2, #0
    afe4:	e5840008 	str	r0, [r4, #8]
    afe8:	0a000002 	beq	aff8 <dbi_init+0x5c>
    afec:	e5920000 	ldr	r0, [r2]
    aff0:	e3500006 	cmp	r0, #6
    aff4:	da000005 	ble	b010 <dbi_init+0x74>
    aff8:	e1a00002 	mov	r0, r2
    affc:	e3a01007 	mov	r1, #7
    b000:	e3052798 	movw	r2, #22424	@ 0x5798
    b004:	e59f3220 	ldr	r3, [pc, #544]	@ b22c <dbi_init+0x290>
    b008:	e3402001 	movt	r2, #1
    b00c:	ebfffd68 	bl	a5b4 <PmLogPrint_@plt>
    b010:	e5941004 	ldr	r1, [r4, #4]
    b014:	e3510000 	cmp	r1, #0
    b018:	0a000017 	beq	b07c <dbi_init+0xe0>
    b01c:	e5950000 	ldr	r0, [r5]
    b020:	e3500000 	cmp	r0, #0
    b024:	0a000002 	beq	b034 <dbi_init+0x98>
    b028:	e5903000 	ldr	r3, [r0]
    b02c:	e3530006 	cmp	r3, #6
    b030:	da000008 	ble	b058 <dbi_init+0xbc>
    b034:	e3052828 	movw	r2, #22568	@ 0x5828
    b038:	e3a01007 	mov	r1, #7
    b03c:	e3402001 	movt	r2, #1
    b040:	e59f31e4 	ldr	r3, [pc, #484]	@ b22c <dbi_init+0x290>
    b044:	ebfffd5a 	bl	a5b4 <PmLogPrint_@plt>
    b048:	e5950000 	ldr	r0, [r5]
    b04c:	e3500000 	cmp	r0, #0
    b050:	15903000 	ldrne	r3, [r0]
    b054:	0a000001 	beq	b060 <dbi_init+0xc4>
    b058:	e3530002 	cmp	r3, #2
    b05c:	da000069 	ble	b208 <dbi_init+0x26c>
    b060:	e3a01003 	mov	r1, #3
    b064:	e30529e0 	movw	r2, #23008	@ 0x59e0
    b068:	e59f31c0 	ldr	r3, [pc, #448]	@ b230 <dbi_init+0x294>
    b06c:	e3402001 	movt	r2, #1
    b070:	e3a04001 	mov	r4, #1
    b074:	ebfffd4e 	bl	a5b4 <PmLogPrint_@plt>
    b078:	eaffffcf 	b	afbc <dbi_init+0x20>
    b07c:	e30507b8 	movw	r0, #22456	@ 0x57b8
    b080:	e59f11ac 	ldr	r1, [pc, #428]	@ b234 <dbi_init+0x298>
    b084:	e3400001 	movt	r0, #1
    b088:	ebfffdfd 	bl	a884 <sqlite3_open@plt>
    b08c:	e3500000 	cmp	r0, #0
    b090:	0a000013 	beq	b0e4 <dbi_init+0x148>
    b094:	e5956000 	ldr	r6, [r5]
    b098:	e3560000 	cmp	r6, #0
    b09c:	0a000002 	beq	b0ac <dbi_init+0x110>
    b0a0:	e5962000 	ldr	r2, [r6]
    b0a4:	e3520002 	cmp	r2, #2
    b0a8:	da000008 	ble	b0d0 <dbi_init+0x134>
    b0ac:	e5940004 	ldr	r0, [r4, #4]
    b0b0:	ebfffd9f 	bl	a734 <sqlite3_errmsg@plt>
    b0b4:	e30527d8 	movw	r2, #22488	@ 0x57d8
    b0b8:	e3a01003 	mov	r1, #3
    b0bc:	e3402001 	movt	r2, #1
    b0c0:	e59f3164 	ldr	r3, [pc, #356]	@ b22c <dbi_init+0x290>
    b0c4:	e58d0000 	str	r0, [sp]
    b0c8:	e1a00006 	mov	r0, r6
    b0cc:	ebfffd38 	bl	a5b4 <PmLogPrint_@plt>
    b0d0:	e5940004 	ldr	r0, [r4, #4]
    b0d4:	ebfffc4c 	bl	a20c <sqlite3_close@plt>
    b0d8:	e3a03000 	mov	r3, #0
    b0dc:	e5843004 	str	r3, [r4, #4]
    b0e0:	eaffffd8 	b	b048 <dbi_init+0xac>
    b0e4:	e5950000 	ldr	r0, [r5]
    b0e8:	e3500000 	cmp	r0, #0
    b0ec:	0a000002 	beq	b0fc <dbi_init+0x160>
    b0f0:	e5904000 	ldr	r4, [r0]
    b0f4:	e3540006 	cmp	r4, #6
    b0f8:	da00000f 	ble	b13c <dbi_init+0x1a0>
    b0fc:	e3a01007 	mov	r1, #7
    b100:	e30527fc 	movw	r2, #22524	@ 0x57fc
    b104:	e59f3120 	ldr	r3, [pc, #288]	@ b22c <dbi_init+0x290>
    b108:	e3402001 	movt	r2, #1
    b10c:	ebfffd28 	bl	a5b4 <PmLogPrint_@plt>
    b110:	e5950000 	ldr	r0, [r5]
    b114:	e3500000 	cmp	r0, #0
    b118:	0a000002 	beq	b128 <dbi_init+0x18c>
    b11c:	e590c000 	ldr	ip, [r0]
    b120:	e35c0006 	cmp	ip, #6
    b124:	da000004 	ble	b13c <dbi_init+0x1a0>
    b128:	e3052850 	movw	r2, #22608	@ 0x5850
    b12c:	e3a01007 	mov	r1, #7
    b130:	e3402001 	movt	r2, #1
    b134:	e59f30f4 	ldr	r3, [pc, #244]	@ b230 <dbi_init+0x294>
    b138:	ebfffd1d 	bl	a5b4 <PmLogPrint_@plt>
    b13c:	e3050880 	movw	r0, #22656	@ 0x5880
    b140:	e3400001 	movt	r0, #1
    b144:	ebffff6c 	bl	aefc <dbi_execute_ignore_results>
    b148:	e2504000 	subs	r4, r0, #0
    b14c:	1a00000b 	bne	b180 <dbi_init+0x1e4>
    b150:	e5950000 	ldr	r0, [r5]
    b154:	e3500000 	cmp	r0, #0
    b158:	0a000002 	beq	b168 <dbi_init+0x1cc>
    b15c:	e590e000 	ldr	lr, [r0]
    b160:	e35e0006 	cmp	lr, #6
    b164:	daffff94 	ble	afbc <dbi_init+0x20>
    b168:	e3a01007 	mov	r1, #7
    b16c:	e30528b0 	movw	r2, #22704	@ 0x58b0
    b170:	e59f30b8 	ldr	r3, [pc, #184]	@ b230 <dbi_init+0x294>
    b174:	e3402001 	movt	r2, #1
    b178:	ebfffd0d 	bl	a5b4 <PmLogPrint_@plt>
    b17c:	eaffff8e 	b	afbc <dbi_init+0x20>
    b180:	e5950000 	ldr	r0, [r5]
    b184:	e3500000 	cmp	r0, #0
    b188:	0a000002 	beq	b198 <dbi_init+0x1fc>
    b18c:	e5903000 	ldr	r3, [r0]
    b190:	e3530006 	cmp	r3, #6
    b194:	da000004 	ble	b1ac <dbi_init+0x210>
    b198:	e30528e4 	movw	r2, #22756	@ 0x58e4
    b19c:	e3a01007 	mov	r1, #7
    b1a0:	e3402001 	movt	r2, #1
    b1a4:	e59f3084 	ldr	r3, [pc, #132]	@ b230 <dbi_init+0x294>
    b1a8:	ebfffd01 	bl	a5b4 <PmLogPrint_@plt>
    b1ac:	e3050930 	movw	r0, #22832	@ 0x5930
    b1b0:	e3400001 	movt	r0, #1
    b1b4:	ebffff50 	bl	aefc <dbi_execute_ignore_results>
    b1b8:	e2504000 	subs	r4, r0, #0
    b1bc:	1a00000b 	bne	b1f0 <dbi_init+0x254>
    b1c0:	e5950000 	ldr	r0, [r5]
    b1c4:	e3500000 	cmp	r0, #0
    b1c8:	0a000002 	beq	b1d8 <dbi_init+0x23c>
    b1cc:	e5901000 	ldr	r1, [r0]
    b1d0:	e3510006 	cmp	r1, #6
    b1d4:	daffff78 	ble	afbc <dbi_init+0x20>
    b1d8:	e3a01007 	mov	r1, #7
    b1dc:	e3052994 	movw	r2, #22932	@ 0x5994
    b1e0:	e59f3048 	ldr	r3, [pc, #72]	@ b230 <dbi_init+0x294>
    b1e4:	e3402001 	movt	r2, #1
    b1e8:	ebfffcf1 	bl	a5b4 <PmLogPrint_@plt>
    b1ec:	eaffff72 	b	afbc <dbi_init+0x20>
    b1f0:	e5950000 	ldr	r0, [r5]
    b1f4:	e3500000 	cmp	r0, #0
    b1f8:	0a000004 	beq	b210 <dbi_init+0x274>
    b1fc:	e5902000 	ldr	r2, [r0]
    b200:	e3520002 	cmp	r2, #2
    b204:	ca000001 	bgt	b210 <dbi_init+0x274>
    b208:	e3a04001 	mov	r4, #1
    b20c:	eaffff6a 	b	afbc <dbi_init+0x20>
    b210:	e3a01003 	mov	r1, #3
    b214:	e30529bc 	movw	r2, #22972	@ 0x59bc
    b218:	e59f3010 	ldr	r3, [pc, #16]	@ b230 <dbi_init+0x294>
    b21c:	e3402001 	movt	r2, #1
    b220:	e3a04001 	mov	r4, #1
    b224:	ebfffce2 	bl	a5b4 <PmLogPrint_@plt>
    b228:	eaffff63 	b	afbc <dbi_init+0x20>
    b22c:	000156b8 	.word	0x000156b8
    b230:	000156c4 	.word	0x000156c4
    b234:	00021a80 	.word	0x00021a80

0000b238 <dbiGetActiveProfile>:
    b238:	e92d4010 	push	{r4, lr}
    b23c:	ebffff56 	bl	af9c <dbi_init>
    b240:	e3500000 	cmp	r0, #0
    b244:	0a000001 	beq	b250 <dbiGetActiveProfile+0x18>
    b248:	e3a00000 	mov	r0, #0
    b24c:	e8bd8010 	pop	{r4, pc}
    b250:	e3012a7c 	movw	r2, #6780	@ 0x1a7c
    b254:	e3402002 	movt	r2, #2
    b258:	e592300c 	ldr	r3, [r2, #12]
    b25c:	e3530001 	cmp	r3, #1
    b260:	0afffff8 	beq	b248 <dbiGetActiveProfile+0x10>
    b264:	e5920008 	ldr	r0, [r2, #8]
    b268:	e5901004 	ldr	r1, [r0, #4]
    b26c:	e3510000 	cmp	r1, #0
    b270:	15900000 	ldrne	r0, [r0]
    b274:	18bd8010 	popne	{r4, pc}
    b278:	eafffff2 	b	b248 <dbiGetActiveProfile+0x10>

0000b27c <dbiGetAll>:
    b27c:	e92d45f0 	push	{r4, r5, r6, r7, r8, sl, lr}
    b280:	e24dd01c 	sub	sp, sp, #28
    b284:	ebffff44 	bl	af9c <dbi_init>
    b288:	e2504000 	subs	r4, r0, #0
    b28c:	0a000012 	beq	b2dc <dbiGetAll+0x60>
    b290:	e3013a78 	movw	r3, #6776	@ 0x1a78
    b294:	e3403002 	movt	r3, #2
    b298:	e5930000 	ldr	r0, [r3]
    b29c:	e3500000 	cmp	r0, #0
    b2a0:	0a000006 	beq	b2c0 <dbiGetAll+0x44>
    b2a4:	e5901000 	ldr	r1, [r0]
    b2a8:	e3510002 	cmp	r1, #2
    b2ac:	d3a04000 	movle	r4, #0
    b2b0:	ca000002 	bgt	b2c0 <dbiGetAll+0x44>
    b2b4:	e1a00004 	mov	r0, r4
    b2b8:	e28dd01c 	add	sp, sp, #28
    b2bc:	e8bd85f0 	pop	{r4, r5, r6, r7, r8, sl, pc}
    b2c0:	e3a01003 	mov	r1, #3
    b2c4:	e3052a14 	movw	r2, #23060	@ 0x5a14
    b2c8:	e59f330c 	ldr	r3, [pc, #780]	@ b5dc <dbiGetAll+0x360>
    b2cc:	e3402001 	movt	r2, #1
    b2d0:	e3a04000 	mov	r4, #0
    b2d4:	ebfffcb6 	bl	a5b4 <PmLogPrint_@plt>
    b2d8:	eafffff5 	b	b2b4 <dbiGetAll+0x38>
    b2dc:	ebfffd4d 	bl	a818 <json_object_new_object@plt>
    b2e0:	e1a08000 	mov	r8, r0
    b2e4:	ebfffce8 	bl	a68c <json_object_new_array@plt>
    b2e8:	e3580000 	cmp	r8, #0
    b2ec:	e1a06000 	mov	r6, r0
    b2f0:	0a000099 	beq	b55c <dbiGetAll+0x2e0>
    b2f4:	e3500000 	cmp	r0, #0
    b2f8:	0a0000a0 	beq	b580 <dbiGetAll+0x304>
    b2fc:	e1a00008 	mov	r0, r8
    b300:	e1a02006 	mov	r2, r6
    b304:	e3051a44 	movw	r1, #23108	@ 0x5a44
    b308:	e3401001 	movt	r1, #1
    b30c:	ebfffc9c 	bl	a584 <json_object_object_add@plt>
    b310:	e3050a50 	movw	r0, #23120	@ 0x5a50
    b314:	e28d1014 	add	r1, sp, #20
    b318:	e3400001 	movt	r0, #1
    b31c:	e28d2010 	add	r2, sp, #16
    b320:	e28d300c 	add	r3, sp, #12
    b324:	e58d400c 	str	r4, [sp, #12]
    b328:	e58d4014 	str	r4, [sp, #20]
    b32c:	e58d4010 	str	r4, [sp, #16]
    b330:	ebfffe84 	bl	ad48 <dbi_execute>
    b334:	e3500000 	cmp	r0, #0
    b338:	0a000010 	beq	b380 <dbiGetAll+0x104>
    b33c:	e3012a78 	movw	r2, #6776	@ 0x1a78
    b340:	e3402002 	movt	r2, #2
    b344:	e5920000 	ldr	r0, [r2]
    b348:	e3500000 	cmp	r0, #0
    b34c:	0a000002 	beq	b35c <dbiGetAll+0xe0>
    b350:	e5904000 	ldr	r4, [r0]
    b354:	e3540002 	cmp	r4, #2
    b358:	da00006e 	ble	b518 <dbiGetAll+0x29c>
    b35c:	e3052aa0 	movw	r2, #23200	@ 0x5aa0
    b360:	e3a01003 	mov	r1, #3
    b364:	e3402001 	movt	r2, #1
    b368:	e59f326c 	ldr	r3, [pc, #620]	@ b5dc <dbiGetAll+0x360>
    b36c:	e3a04000 	mov	r4, #0
    b370:	ebfffc8f 	bl	a5b4 <PmLogPrint_@plt>
    b374:	e1a00008 	mov	r0, r8
    b378:	ebfffd4d 	bl	a8b4 <json_object_put@plt>
    b37c:	eaffffcc 	b	b2b4 <dbiGetAll+0x38>
    b380:	e59d0014 	ldr	r0, [sp, #20]
    b384:	e3500000 	cmp	r0, #0
    b388:	0a000084 	beq	b5a0 <dbiGetAll+0x324>
    b38c:	e59d3010 	ldr	r3, [sp, #16]
    b390:	e3530000 	cmp	r3, #0
    b394:	1a00001b 	bne	b408 <dbiGetAll+0x18c>
    b398:	e59d100c 	ldr	r1, [sp, #12]
    b39c:	e3510000 	cmp	r1, #0
    b3a0:	1a000010 	bne	b3e8 <dbiGetAll+0x16c>
    b3a4:	e3014a78 	movw	r4, #6776	@ 0x1a78
    b3a8:	e3404002 	movt	r4, #2
    b3ac:	e5942000 	ldr	r2, [r4]
    b3b0:	e3520000 	cmp	r2, #0
    b3b4:	0a000002 	beq	b3c4 <dbiGetAll+0x148>
    b3b8:	e592c000 	ldr	ip, [r2]
    b3bc:	e35c0006 	cmp	ip, #6
    b3c0:	da000008 	ble	b3e8 <dbiGetAll+0x16c>
    b3c4:	e1a00002 	mov	r0, r2
    b3c8:	e3a01007 	mov	r1, #7
    b3cc:	e3052b18 	movw	r2, #23320	@ 0x5b18
    b3d0:	e59f3204 	ldr	r3, [pc, #516]	@ b5dc <dbiGetAll+0x360>
    b3d4:	e3402001 	movt	r2, #1
    b3d8:	ebfffc75 	bl	a5b4 <PmLogPrint_@plt>
    b3dc:	e59d0014 	ldr	r0, [sp, #20]
    b3e0:	e3500000 	cmp	r0, #0
    b3e4:	0a000002 	beq	b3f4 <dbiGetAll+0x178>
    b3e8:	ebfffc3e 	bl	a4e8 <sqlite3_free_table@plt>
    b3ec:	e3a0c000 	mov	ip, #0
    b3f0:	e58dc014 	str	ip, [sp, #20]
    b3f4:	e1a00008 	mov	r0, r8
    b3f8:	ebfffd36 	bl	a8d8 <json_object_to_json_string@plt>
    b3fc:	ebfffc06 	bl	a41c <g_string_new@plt>
    b400:	e1a04000 	mov	r4, r0
    b404:	eaffffda 	b	b374 <dbiGetAll+0xf8>
    b408:	dafffff6 	ble	b3e8 <dbiGetAll+0x16c>
    b40c:	e3017a7c 	movw	r7, #6780	@ 0x1a7c
    b410:	e3407002 	movt	r7, #2
    b414:	e3a05001 	mov	r5, #1
    b418:	e1a0a007 	mov	sl, r7
    b41c:	ea00000b 	b	b450 <dbiGetAll+0x1d4>
    b420:	e3050b64 	movw	r0, #23396	@ 0x5b64
    b424:	e3400001 	movt	r0, #1
    b428:	ebfffbad 	bl	a2e4 <json_object_new_string@plt>
    b42c:	e3051ba4 	movw	r1, #23460	@ 0x5ba4
    b430:	e3401001 	movt	r1, #1
    b434:	e2855001 	add	r5, r5, #1
    b438:	e1a02000 	mov	r2, r0
    b43c:	e1a00004 	mov	r0, r4
    b440:	ebfffc4f 	bl	a584 <json_object_object_add@plt>
    b444:	e59d4010 	ldr	r4, [sp, #16]
    b448:	e1540005 	cmp	r4, r5
    b44c:	baffffe2 	blt	b3dc <dbiGetAll+0x160>
    b450:	ebfffcf0 	bl	a818 <json_object_new_object@plt>
    b454:	e1a04000 	mov	r4, r0
    b458:	e1a00006 	mov	r0, r6
    b45c:	e1a01004 	mov	r1, r4
    b460:	ebfffc83 	bl	a674 <json_object_array_add@plt>
    b464:	e59d300c 	ldr	r3, [sp, #12]
    b468:	e59d2014 	ldr	r2, [sp, #20]
    b46c:	e0010593 	mul	r1, r3, r5
    b470:	e7920101 	ldr	r0, [r2, r1, lsl #2]
    b474:	ebfffb9a 	bl	a2e4 <json_object_new_string@plt>
    b478:	e3051b34 	movw	r1, #23348	@ 0x5b34
    b47c:	e3401001 	movt	r1, #1
    b480:	e1a02000 	mov	r2, r0
    b484:	e1a00004 	mov	r0, r4
    b488:	ebfffc3d 	bl	a584 <json_object_object_add@plt>
    b48c:	e59dc00c 	ldr	ip, [sp, #12]
    b490:	e59d1014 	ldr	r1, [sp, #20]
    b494:	e000059c 	mul	r0, ip, r5
    b498:	e2803001 	add	r3, r0, #1
    b49c:	e7910103 	ldr	r0, [r1, r3, lsl #2]
    b4a0:	ebfffb8f 	bl	a2e4 <json_object_new_string@plt>
    b4a4:	e3051b44 	movw	r1, #23364	@ 0x5b44
    b4a8:	e3401001 	movt	r1, #1
    b4ac:	e1a02000 	mov	r2, r0
    b4b0:	e1a00004 	mov	r0, r4
    b4b4:	ebfffc32 	bl	a584 <json_object_object_add@plt>
    b4b8:	e5972008 	ldr	r2, [r7, #8]
    b4bc:	e5920000 	ldr	r0, [r2]
    b4c0:	e3500000 	cmp	r0, #0
    b4c4:	0affffd5 	beq	b420 <dbiGetAll+0x1a4>
    b4c8:	e5d0e000 	ldrb	lr, [r0]
    b4cc:	e35e0000 	cmp	lr, #0
    b4d0:	0affffd2 	beq	b420 <dbiGetAll+0x1a4>
    b4d4:	e59d100c 	ldr	r1, [sp, #12]
    b4d8:	e59dc014 	ldr	ip, [sp, #20]
    b4dc:	e0020591 	mul	r2, r1, r5
    b4e0:	e79c1102 	ldr	r1, [ip, r2, lsl #2]
    b4e4:	ebfffb81 	bl	a2f0 <g_strcmp0@plt>
    b4e8:	e3500000 	cmp	r0, #0
    b4ec:	1affffcb 	bne	b420 <dbiGetAll+0x1a4>
    b4f0:	e59a300c 	ldr	r3, [sl, #12]
    b4f4:	e2430001 	sub	r0, r3, #1
    b4f8:	e3500004 	cmp	r0, #4
    b4fc:	979ff100 	ldrls	pc, [pc, r0, lsl #2]
    b500:	ea000006 	b	b520 <dbiGetAll+0x2a4>
    b504:	0000b420 	.word	0x0000b420
    b508:	0000b550 	.word	0x0000b550
    b50c:	0000b544 	.word	0x0000b544
    b510:	0000b538 	.word	0x0000b538
    b514:	0000b52c 	.word	0x0000b52c
    b518:	e3a04000 	mov	r4, #0
    b51c:	eaffff94 	b	b374 <dbiGetAll+0xf8>
    b520:	e3050b9c 	movw	r0, #23452	@ 0x5b9c
    b524:	e3400001 	movt	r0, #1
    b528:	eaffffbe 	b	b428 <dbiGetAll+0x1ac>
    b52c:	e3050b8c 	movw	r0, #23436	@ 0x5b8c
    b530:	e3400001 	movt	r0, #1
    b534:	eaffffbb 	b	b428 <dbiGetAll+0x1ac>
    b538:	e3050b80 	movw	r0, #23424	@ 0x5b80
    b53c:	e3400001 	movt	r0, #1
    b540:	eaffffb8 	b	b428 <dbiGetAll+0x1ac>
    b544:	e3050b74 	movw	r0, #23412	@ 0x5b74
    b548:	e3400001 	movt	r0, #1
    b54c:	eaffffb5 	b	b428 <dbiGetAll+0x1ac>
    b550:	e3050b54 	movw	r0, #23380	@ 0x5b54
    b554:	e3400001 	movt	r0, #1
    b558:	eaffffb2 	b	b428 <dbiGetAll+0x1ac>
    b55c:	e3051bbc 	movw	r1, #23484	@ 0x5bbc
    b560:	e1a00008 	mov	r0, r8
    b564:	e3401001 	movt	r1, #1
    b568:	e3002175 	movw	r2, #373	@ 0x175
    b56c:	e59f306c 	ldr	r3, [pc, #108]	@ b5e0 <dbiGetAll+0x364>
    b570:	e3055bd0 	movw	r5, #23504	@ 0x5bd0
    b574:	e3405001 	movt	r5, #1
    b578:	e58d5000 	str	r5, [sp]
    b57c:	ebfffbc1 	bl	a488 <g_assertion_message_expr@plt>
    b580:	e3051bbc 	movw	r1, #23484	@ 0x5bbc
    b584:	e3002176 	movw	r2, #374	@ 0x176
    b588:	e3401001 	movt	r1, #1
    b58c:	e59f304c 	ldr	r3, [pc, #76]	@ b5e0 <dbiGetAll+0x364>
    b590:	e3056be0 	movw	r6, #23520	@ 0x5be0
    b594:	e3406001 	movt	r6, #1
    b598:	e58d6000 	str	r6, [sp]
    b59c:	ebfffbb9 	bl	a488 <g_assertion_message_expr@plt>
    b5a0:	e301ca78 	movw	ip, #6776	@ 0x1a78
    b5a4:	e340c002 	movt	ip, #2
    b5a8:	e59c0000 	ldr	r0, [ip]
    b5ac:	e3500000 	cmp	r0, #0
    b5b0:	0a000002 	beq	b5c0 <dbiGetAll+0x344>
    b5b4:	e590e000 	ldr	lr, [r0]
    b5b8:	e35e0002 	cmp	lr, #2
    b5bc:	daffffd5 	ble	b518 <dbiGetAll+0x29c>
    b5c0:	e3a01003 	mov	r1, #3
    b5c4:	e3052ad4 	movw	r2, #23252	@ 0x5ad4
    b5c8:	e59f300c 	ldr	r3, [pc, #12]	@ b5dc <dbiGetAll+0x360>
    b5cc:	e3402001 	movt	r2, #1
    b5d0:	e3a04000 	mov	r4, #0
    b5d4:	ebfffbf6 	bl	a5b4 <PmLogPrint_@plt>
    b5d8:	eaffff65 	b	b374 <dbiGetAll+0xf8>
    b5dc:	000156d0 	.word	0x000156d0
    b5e0:	000156dc 	.word	0x000156dc

0000b5e4 <get_profile_details>:
    b5e4:	e92d4070 	push	{r4, r5, r6, lr}
    b5e8:	e2505000 	subs	r5, r0, #0
    b5ec:	e24dd018 	sub	sp, sp, #24
    b5f0:	0a000069 	beq	b79c <get_profile_details+0x1b8>
    b5f4:	e3050bf0 	movw	r0, #23536	@ 0x5bf0
    b5f8:	e3051b34 	movw	r1, #23348	@ 0x5b34
    b5fc:	e3400001 	movt	r0, #1
    b600:	e3401001 	movt	r1, #1
    b604:	e1a02005 	mov	r2, r5
    b608:	e3a03000 	mov	r3, #0
    b60c:	e58d300c 	str	r3, [sp, #12]
    b610:	e58d3014 	str	r3, [sp, #20]
    b614:	ebfffbe9 	bl	a5c0 <sqlite3_mprintf@plt>
    b618:	e2506000 	subs	r6, r0, #0
    b61c:	0a000038 	beq	b704 <get_profile_details+0x120>
    b620:	e28d1014 	add	r1, sp, #20
    b624:	e28d2010 	add	r2, sp, #16
    b628:	e28d300c 	add	r3, sp, #12
    b62c:	ebfffdc5 	bl	ad48 <dbi_execute>
    b630:	e3500000 	cmp	r0, #0
    b634:	1a00001f 	bne	b6b8 <get_profile_details+0xd4>
    b638:	e59d2014 	ldr	r2, [sp, #20]
    b63c:	e3520000 	cmp	r2, #0
    b640:	0a00005d 	beq	b7bc <get_profile_details+0x1d8>
    b644:	e59d0010 	ldr	r0, [sp, #16]
    b648:	e3500000 	cmp	r0, #0
    b64c:	0a00003e 	beq	b74c <get_profile_details+0x168>
    b650:	da000002 	ble	b660 <get_profile_details+0x7c>
    b654:	e59de00c 	ldr	lr, [sp, #12]
    b658:	e35e0003 	cmp	lr, #3
    b65c:	0a000066 	beq	b7fc <get_profile_details+0x218>
    b660:	e3014a78 	movw	r4, #6776	@ 0x1a78
    b664:	e3404002 	movt	r4, #2
    b668:	e5940000 	ldr	r0, [r4]
    b66c:	e3500000 	cmp	r0, #0
    b670:	0a000002 	beq	b680 <get_profile_details+0x9c>
    b674:	e590c000 	ldr	ip, [r0]
    b678:	e35c0002 	cmp	ip, #2
    b67c:	da000044 	ble	b794 <get_profile_details+0x1b0>
    b680:	e3052c3c 	movw	r2, #23612	@ 0x5c3c
    b684:	e3a01003 	mov	r1, #3
    b688:	e3402001 	movt	r2, #1
    b68c:	e59f31b8 	ldr	r3, [pc, #440]	@ b84c <get_profile_details+0x268>
    b690:	e3a04000 	mov	r4, #0
    b694:	ebfffbc6 	bl	a5b4 <PmLogPrint_@plt>
    b698:	e59d2014 	ldr	r2, [sp, #20]
    b69c:	e3520000 	cmp	r2, #0
    b6a0:	0a000012 	beq	b6f0 <get_profile_details+0x10c>
    b6a4:	e1a00002 	mov	r0, r2
    b6a8:	ebfffb8e 	bl	a4e8 <sqlite3_free_table@plt>
    b6ac:	e3a00000 	mov	r0, #0
    b6b0:	e58d0014 	str	r0, [sp, #20]
    b6b4:	ea00000d 	b	b6f0 <get_profile_details+0x10c>
    b6b8:	e3013a78 	movw	r3, #6776	@ 0x1a78
    b6bc:	e3403002 	movt	r3, #2
    b6c0:	e5930000 	ldr	r0, [r3]
    b6c4:	e3500000 	cmp	r0, #0
    b6c8:	0a000002 	beq	b6d8 <get_profile_details+0xf4>
    b6cc:	e5901000 	ldr	r1, [r0]
    b6d0:	e3510002 	cmp	r1, #2
    b6d4:	da00001a 	ble	b744 <get_profile_details+0x160>
    b6d8:	e3052cac 	movw	r2, #23724	@ 0x5cac
    b6dc:	e3a01003 	mov	r1, #3
    b6e0:	e3402001 	movt	r2, #1
    b6e4:	e59f3160 	ldr	r3, [pc, #352]	@ b84c <get_profile_details+0x268>
    b6e8:	e3a04000 	mov	r4, #0
    b6ec:	ebfffbb0 	bl	a5b4 <PmLogPrint_@plt>
    b6f0:	e1a00006 	mov	r0, r6
    b6f4:	ebfffb4e 	bl	a434 <sqlite3_free@plt>
    b6f8:	e1a00004 	mov	r0, r4
    b6fc:	e28dd018 	add	sp, sp, #24
    b700:	e8bd8070 	pop	{r4, r5, r6, pc}
    b704:	e301ca78 	movw	ip, #6776	@ 0x1a78
    b708:	e340c002 	movt	ip, #2
    b70c:	e59c0000 	ldr	r0, [ip]
    b710:	e3500000 	cmp	r0, #0
    b714:	0a000003 	beq	b728 <get_profile_details+0x144>
    b718:	e590e000 	ldr	lr, [r0]
    b71c:	e35e0002 	cmp	lr, #2
    b720:	d1a04006 	movle	r4, r6
    b724:	dafffff3 	ble	b6f8 <get_profile_details+0x114>
    b728:	e3a01003 	mov	r1, #3
    b72c:	e3052ccc 	movw	r2, #23756	@ 0x5ccc
    b730:	e59f3114 	ldr	r3, [pc, #276]	@ b84c <get_profile_details+0x268>
    b734:	e3402001 	movt	r2, #1
    b738:	e3a04000 	mov	r4, #0
    b73c:	ebfffb9c 	bl	a5b4 <PmLogPrint_@plt>
    b740:	eaffffec 	b	b6f8 <get_profile_details+0x114>
    b744:	e3a04000 	mov	r4, #0
    b748:	eaffffe8 	b	b6f0 <get_profile_details+0x10c>
    b74c:	e59d100c 	ldr	r1, [sp, #12]
    b750:	e3510000 	cmp	r1, #0
    b754:	1affffc1 	bne	b660 <get_profile_details+0x7c>
    b758:	e3014a78 	movw	r4, #6776	@ 0x1a78
    b75c:	e3404002 	movt	r4, #2
    b760:	e5940000 	ldr	r0, [r4]
    b764:	e3500000 	cmp	r0, #0
    b768:	0a000002 	beq	b778 <get_profile_details+0x194>
    b76c:	e590c000 	ldr	ip, [r0]
    b770:	e35c0006 	cmp	ip, #6
    b774:	da000006 	ble	b794 <get_profile_details+0x1b0>
    b778:	e3a01007 	mov	r1, #7
    b77c:	e3052b18 	movw	r2, #23320	@ 0x5b18
    b780:	e59f30c4 	ldr	r3, [pc, #196]	@ b84c <get_profile_details+0x268>
    b784:	e3402001 	movt	r2, #1
    b788:	e3a04000 	mov	r4, #0
    b78c:	ebfffb88 	bl	a5b4 <PmLogPrint_@plt>
    b790:	eaffffc0 	b	b698 <get_profile_details+0xb4>
    b794:	e3a04000 	mov	r4, #0
    b798:	eaffffc1 	b	b6a4 <get_profile_details+0xc0>
    b79c:	e3051bbc 	movw	r1, #23484	@ 0x5bbc
    b7a0:	e3a020d2 	mov	r2, #210	@ 0xd2
    b7a4:	e3401001 	movt	r1, #1
    b7a8:	e59f30a0 	ldr	r3, [pc, #160]	@ b850 <get_profile_details+0x26c>
    b7ac:	e3055d08 	movw	r5, #23816	@ 0x5d08
    b7b0:	e3405001 	movt	r5, #1
    b7b4:	e58d5000 	str	r5, [sp]
    b7b8:	ebfffb32 	bl	a488 <g_assertion_message_expr@plt>
    b7bc:	e301ea78 	movw	lr, #6776	@ 0x1a78
    b7c0:	e340e002 	movt	lr, #2
    b7c4:	e59e0000 	ldr	r0, [lr]
    b7c8:	e3500000 	cmp	r0, #0
    b7cc:	0a000002 	beq	b7dc <get_profile_details+0x1f8>
    b7d0:	e5902000 	ldr	r2, [r0]
    b7d4:	e3520006 	cmp	r2, #6
    b7d8:	daffffd9 	ble	b744 <get_profile_details+0x160>
    b7dc:	e3a01007 	mov	r1, #7
    b7e0:	e3052c88 	movw	r2, #23688	@ 0x5c88
    b7e4:	e59f3060 	ldr	r3, [pc, #96]	@ b84c <get_profile_details+0x268>
    b7e8:	e3402001 	movt	r2, #1
    b7ec:	e3a04000 	mov	r4, #0
    b7f0:	e58d5000 	str	r5, [sp]
    b7f4:	ebfffb6e 	bl	a5b4 <PmLogPrint_@plt>
    b7f8:	eaffffbc 	b	b6f0 <get_profile_details+0x10c>
    b7fc:	e5920014 	ldr	r0, [r2, #20]
    b800:	ebfffb05 	bl	a41c <g_string_new@plt>
    b804:	e59d2010 	ldr	r2, [sp, #16]
    b808:	e3520001 	cmp	r2, #1
    b80c:	e1a04000 	mov	r4, r0
    b810:	0affffa0 	beq	b698 <get_profile_details+0xb4>
    b814:	e3013a78 	movw	r3, #6776	@ 0x1a78
    b818:	e3403002 	movt	r3, #2
    b81c:	e5930000 	ldr	r0, [r3]
    b820:	e3500000 	cmp	r0, #0
    b824:	0a000002 	beq	b834 <get_profile_details+0x250>
    b828:	e5901000 	ldr	r1, [r0]
    b82c:	e3510002 	cmp	r1, #2
    b830:	daffff98 	ble	b698 <get_profile_details+0xb4>
    b834:	e3a01003 	mov	r1, #3
    b838:	e3052c1c 	movw	r2, #23580	@ 0x5c1c
    b83c:	e59f3008 	ldr	r3, [pc, #8]	@ b84c <get_profile_details+0x268>
    b840:	e3402001 	movt	r2, #1
    b844:	ebfffb5a 	bl	a5b4 <PmLogPrint_@plt>
    b848:	eaffff92 	b	b698 <get_profile_details+0xb4>
    b84c:	000156e8 	.word	0x000156e8
    b850:	000156fc 	.word	0x000156fc

0000b854 <dbiGet>:
    b854:	e92d4010 	push	{r4, lr}
    b858:	e1a04000 	mov	r4, r0
    b85c:	ebfffdce 	bl	af9c <dbi_init>
    b860:	e3500000 	cmp	r0, #0
    b864:	0a000001 	beq	b870 <dbiGet+0x1c>
    b868:	e3a00000 	mov	r0, #0
    b86c:	e8bd8010 	pop	{r4, pc}
    b870:	e1a00004 	mov	r0, r4
    b874:	e8bd4010 	pop	{r4, lr}
    b878:	eaffff59 	b	b5e4 <get_profile_details>

0000b87c <dbiDel>:
    b87c:	e92d4070 	push	{r4, r5, r6, lr}
    b880:	e1a04000 	mov	r4, r0
    b884:	ebfffdc4 	bl	af9c <dbi_init>
    b888:	e2505000 	subs	r5, r0, #0
    b88c:	0a00000f 	beq	b8d0 <dbiDel+0x54>
    b890:	e3013a78 	movw	r3, #6776	@ 0x1a78
    b894:	e3403002 	movt	r3, #2
    b898:	e5930000 	ldr	r0, [r3]
    b89c:	e3500000 	cmp	r0, #0
    b8a0:	0a000002 	beq	b8b0 <dbiDel+0x34>
    b8a4:	e5901000 	ldr	r1, [r0]
    b8a8:	e3510002 	cmp	r1, #2
    b8ac:	da000021 	ble	b938 <dbiDel+0xbc>
    b8b0:	e3052a14 	movw	r2, #23060	@ 0x5a14
    b8b4:	e3a01003 	mov	r1, #3
    b8b8:	e3402001 	movt	r2, #1
    b8bc:	e59f311c 	ldr	r3, [pc, #284]	@ b9e0 <dbiDel+0x164>
    b8c0:	e3e04000 	mvn	r4, #0
    b8c4:	ebfffb3a 	bl	a5b4 <PmLogPrint_@plt>
    b8c8:	e1a00004 	mov	r0, r4
    b8cc:	e8bd8070 	pop	{r4, r5, r6, pc}
    b8d0:	e3540000 	cmp	r4, #0
    b8d4:	0a00001a 	beq	b944 <dbiDel+0xc8>
    b8d8:	e1a02004 	mov	r2, r4
    b8dc:	e3050d38 	movw	r0, #23864	@ 0x5d38
    b8e0:	e3051b34 	movw	r1, #23348	@ 0x5b34
    b8e4:	e3400001 	movt	r0, #1
    b8e8:	e3401001 	movt	r1, #1
    b8ec:	ebfffb33 	bl	a5c0 <sqlite3_mprintf@plt>
    b8f0:	e2506000 	subs	r6, r0, #0
    b8f4:	0a000007 	beq	b918 <dbiDel+0x9c>
    b8f8:	ebfffd7f 	bl	aefc <dbi_execute_ignore_results>
    b8fc:	e3500001 	cmp	r0, #1
    b900:	11a04005 	movne	r4, r5
    b904:	0a00001e 	beq	b984 <dbiDel+0x108>
    b908:	e1a00006 	mov	r0, r6
    b90c:	ebfffac8 	bl	a434 <sqlite3_free@plt>
    b910:	e1a00004 	mov	r0, r4
    b914:	e8bd8070 	pop	{r4, r5, r6, pc}
    b918:	e3014a78 	movw	r4, #6776	@ 0x1a78
    b91c:	e3404002 	movt	r4, #2
    b920:	e5940000 	ldr	r0, [r4]
    b924:	e3500000 	cmp	r0, #0
    b928:	0a000025 	beq	b9c4 <dbiDel+0x148>
    b92c:	e590e000 	ldr	lr, [r0]
    b930:	e35e0002 	cmp	lr, #2
    b934:	ca000022 	bgt	b9c4 <dbiDel+0x148>
    b938:	e3e04000 	mvn	r4, #0
    b93c:	e1a00004 	mov	r0, r4
    b940:	e8bd8070 	pop	{r4, r5, r6, pc}
    b944:	e3012a78 	movw	r2, #6776	@ 0x1a78
    b948:	e3402002 	movt	r2, #2
    b94c:	e5920000 	ldr	r0, [r2]
    b950:	e3500000 	cmp	r0, #0
    b954:	0a000003 	beq	b968 <dbiDel+0xec>
    b958:	e590c000 	ldr	ip, [r0]
    b95c:	e35c0002 	cmp	ip, #2
    b960:	d3e04001 	mvnle	r4, #1
    b964:	daffffd7 	ble	b8c8 <dbiDel+0x4c>
    b968:	e3a01003 	mov	r1, #3
    b96c:	e3052d18 	movw	r2, #23832	@ 0x5d18
    b970:	e59f3068 	ldr	r3, [pc, #104]	@ b9e0 <dbiDel+0x164>
    b974:	e3402001 	movt	r2, #1
    b978:	e3e04001 	mvn	r4, #1
    b97c:	ebfffb0c 	bl	a5b4 <PmLogPrint_@plt>
    b980:	eaffffd0 	b	b8c8 <dbiDel+0x4c>
    b984:	e3013a78 	movw	r3, #6776	@ 0x1a78
    b988:	e3403002 	movt	r3, #2
    b98c:	e5930000 	ldr	r0, [r3]
    b990:	e3500000 	cmp	r0, #0
    b994:	0a000003 	beq	b9a8 <dbiDel+0x12c>
    b998:	e5901000 	ldr	r1, [r0]
    b99c:	e3510002 	cmp	r1, #2
    b9a0:	d3e04000 	mvnle	r4, #0
    b9a4:	daffffd7 	ble	b908 <dbiDel+0x8c>
    b9a8:	e3a01003 	mov	r1, #3
    b9ac:	e3052d88 	movw	r2, #23944	@ 0x5d88
    b9b0:	e59f3028 	ldr	r3, [pc, #40]	@ b9e0 <dbiDel+0x164>
    b9b4:	e3402001 	movt	r2, #1
    b9b8:	e3e04000 	mvn	r4, #0
    b9bc:	ebfffafc 	bl	a5b4 <PmLogPrint_@plt>
    b9c0:	eaffffd0 	b	b908 <dbiDel+0x8c>
    b9c4:	e3a01003 	mov	r1, #3
    b9c8:	e3052d64 	movw	r2, #23908	@ 0x5d64
    b9cc:	e59f300c 	ldr	r3, [pc, #12]	@ b9e0 <dbiDel+0x164>
    b9d0:	e3402001 	movt	r2, #1
    b9d4:	e3e04000 	mvn	r4, #0
    b9d8:	ebfffaf5 	bl	a5b4 <PmLogPrint_@plt>
    b9dc:	eaffffb9 	b	b8c8 <dbiDel+0x4c>
    b9e0:	00015710 	.word	0x00015710

0000b9e4 <dbiPut>:
    b9e4:	e92d40f0 	push	{r4, r5, r6, r7, lr}
    b9e8:	e24dd00c 	sub	sp, sp, #12
    b9ec:	e1a04000 	mov	r4, r0
    b9f0:	e1a06001 	mov	r6, r1
    b9f4:	e1a05002 	mov	r5, r2
    b9f8:	ebfffd67 	bl	af9c <dbi_init>
    b9fc:	e3500000 	cmp	r0, #0
    ba00:	0a000010 	beq	ba48 <dbiPut+0x64>
    ba04:	e3013a78 	movw	r3, #6776	@ 0x1a78
    ba08:	e3403002 	movt	r3, #2
    ba0c:	e5930000 	ldr	r0, [r3]
    ba10:	e3500000 	cmp	r0, #0
    ba14:	0a000002 	beq	ba24 <dbiPut+0x40>
    ba18:	e5901000 	ldr	r1, [r0]
    ba1c:	e3510002 	cmp	r1, #2
    ba20:	da000041 	ble	bb2c <dbiPut+0x148>
    ba24:	e3052a14 	movw	r2, #23060	@ 0x5a14
    ba28:	e3a01003 	mov	r1, #3
    ba2c:	e3402001 	movt	r2, #1
    ba30:	e59f31c0 	ldr	r3, [pc, #448]	@ bbf8 <dbiPut+0x214>
    ba34:	e3e04000 	mvn	r4, #0
    ba38:	ebfffadd 	bl	a5b4 <PmLogPrint_@plt>
    ba3c:	e1a00004 	mov	r0, r4
    ba40:	e28dd00c 	add	sp, sp, #12
    ba44:	e8bd80f0 	pop	{r4, r5, r6, r7, pc}
    ba48:	e3560000 	cmp	r6, #0
    ba4c:	13540000 	cmpne	r4, #0
    ba50:	1a00000f 	bne	ba94 <dbiPut+0xb0>
    ba54:	e3012a78 	movw	r2, #6776	@ 0x1a78
    ba58:	e3402002 	movt	r2, #2
    ba5c:	e5920000 	ldr	r0, [r2]
    ba60:	e3500000 	cmp	r0, #0
    ba64:	0a000003 	beq	ba78 <dbiPut+0x94>
    ba68:	e590c000 	ldr	ip, [r0]
    ba6c:	e35c0002 	cmp	ip, #2
    ba70:	d3e04001 	mvnle	r4, #1
    ba74:	dafffff0 	ble	ba3c <dbiPut+0x58>
    ba78:	e3a01003 	mov	r1, #3
    ba7c:	e3052dac 	movw	r2, #23980	@ 0x5dac
    ba80:	e59f3170 	ldr	r3, [pc, #368]	@ bbf8 <dbiPut+0x214>
    ba84:	e3402001 	movt	r2, #1
    ba88:	e3e04001 	mvn	r4, #1
    ba8c:	ebfffac8 	bl	a5b4 <PmLogPrint_@plt>
    ba90:	eaffffe9 	b	ba3c <dbiPut+0x58>
    ba94:	e3550000 	cmp	r5, #0
    ba98:	0affffed 	beq	ba54 <dbiPut+0x70>
    ba9c:	e1a00004 	mov	r0, r4
    baa0:	ebfffecf 	bl	b5e4 <get_profile_details>
    baa4:	e3500000 	cmp	r0, #0
    baa8:	0a000021 	beq	bb34 <dbiPut+0x150>
    baac:	e3017a78 	movw	r7, #6776	@ 0x1a78
    bab0:	e3407002 	movt	r7, #2
    bab4:	e3a01001 	mov	r1, #1
    bab8:	ebfffa8d 	bl	a4f4 <g_string_free@plt>
    babc:	e5970000 	ldr	r0, [r7]
    bac0:	e3500000 	cmp	r0, #0
    bac4:	0a000002 	beq	bad4 <dbiPut+0xf0>
    bac8:	e590e000 	ldr	lr, [r0]
    bacc:	e35e0006 	cmp	lr, #6
    bad0:	da000005 	ble	baec <dbiPut+0x108>
    bad4:	e3052dcc 	movw	r2, #24012	@ 0x5dcc
    bad8:	e3a01007 	mov	r1, #7
    badc:	e3402001 	movt	r2, #1
    bae0:	e59f3110 	ldr	r3, [pc, #272]	@ bbf8 <dbiPut+0x214>
    bae4:	e58d4000 	str	r4, [sp]
    bae8:	ebfffab1 	bl	a5b4 <PmLogPrint_@plt>
    baec:	e1a01005 	mov	r1, r5
    baf0:	e1a02004 	mov	r2, r4
    baf4:	e3050de8 	movw	r0, #24040	@ 0x5de8
    baf8:	e3400001 	movt	r0, #1
    bafc:	ebfffaaf 	bl	a5c0 <sqlite3_mprintf@plt>
    bb00:	e1a05000 	mov	r5, r0
    bb04:	e3550000 	cmp	r5, #0
    bb08:	0a00001f 	beq	bb8c <dbiPut+0x1a8>
    bb0c:	e1a00005 	mov	r0, r5
    bb10:	ebfffcf9 	bl	aefc <dbi_execute_ignore_results>
    bb14:	e3500001 	cmp	r0, #1
    bb18:	13a04000 	movne	r4, #0
    bb1c:	0a000027 	beq	bbc0 <dbiPut+0x1dc>
    bb20:	e1a00005 	mov	r0, r5
    bb24:	ebfffa42 	bl	a434 <sqlite3_free@plt>
    bb28:	eaffffc3 	b	ba3c <dbiPut+0x58>
    bb2c:	e3e04000 	mvn	r4, #0
    bb30:	eaffffc1 	b	ba3c <dbiPut+0x58>
    bb34:	e3017a78 	movw	r7, #6776	@ 0x1a78
    bb38:	e3407002 	movt	r7, #2
    bb3c:	e5970000 	ldr	r0, [r7]
    bb40:	e3500000 	cmp	r0, #0
    bb44:	0a000002 	beq	bb54 <dbiPut+0x170>
    bb48:	e5903000 	ldr	r3, [r0]
    bb4c:	e3530006 	cmp	r3, #6
    bb50:	da000005 	ble	bb6c <dbiPut+0x188>
    bb54:	e3052e30 	movw	r2, #24112	@ 0x5e30
    bb58:	e3a01007 	mov	r1, #7
    bb5c:	e3402001 	movt	r2, #1
    bb60:	e59f3090 	ldr	r3, [pc, #144]	@ bbf8 <dbiPut+0x214>
    bb64:	e58d4000 	str	r4, [sp]
    bb68:	ebfffa91 	bl	a5b4 <PmLogPrint_@plt>
    bb6c:	e1a03005 	mov	r3, r5
    bb70:	e1a01004 	mov	r1, r4
    bb74:	e1a02006 	mov	r2, r6
    bb78:	e3050e4c 	movw	r0, #24140	@ 0x5e4c
    bb7c:	e3400001 	movt	r0, #1
    bb80:	ebfffa8e 	bl	a5c0 <sqlite3_mprintf@plt>
    bb84:	e1a05000 	mov	r5, r0
    bb88:	eaffffdd 	b	bb04 <dbiPut+0x120>
    bb8c:	e5970000 	ldr	r0, [r7]
    bb90:	e3500000 	cmp	r0, #0
    bb94:	0a000002 	beq	bba4 <dbiPut+0x1c0>
    bb98:	e5904000 	ldr	r4, [r0]
    bb9c:	e3540002 	cmp	r4, #2
    bba0:	daffffe1 	ble	bb2c <dbiPut+0x148>
    bba4:	e3a01003 	mov	r1, #3
    bba8:	e3052d64 	movw	r2, #23908	@ 0x5d64
    bbac:	e59f3044 	ldr	r3, [pc, #68]	@ bbf8 <dbiPut+0x214>
    bbb0:	e3402001 	movt	r2, #1
    bbb4:	e3e04000 	mvn	r4, #0
    bbb8:	ebfffa7d 	bl	a5b4 <PmLogPrint_@plt>
    bbbc:	eaffff9e 	b	ba3c <dbiPut+0x58>
    bbc0:	e5970000 	ldr	r0, [r7]
    bbc4:	e3500000 	cmp	r0, #0
    bbc8:	0a000003 	beq	bbdc <dbiPut+0x1f8>
    bbcc:	e5901000 	ldr	r1, [r0]
    bbd0:	e3510002 	cmp	r1, #2
    bbd4:	d3e04000 	mvnle	r4, #0
    bbd8:	daffffd0 	ble	bb20 <dbiPut+0x13c>
    bbdc:	e3a01003 	mov	r1, #3
    bbe0:	e3052d88 	movw	r2, #23944	@ 0x5d88
    bbe4:	e59f300c 	ldr	r3, [pc, #12]	@ bbf8 <dbiPut+0x214>
    bbe8:	e3402001 	movt	r2, #1
    bbec:	e3e04000 	mvn	r4, #0
    bbf0:	ebfffa6f 	bl	a5b4 <PmLogPrint_@plt>
    bbf4:	eaffffc9 	b	bb20 <dbiPut+0x13c>
    bbf8:	00015718 	.word	0x00015718

0000bbfc <dbiSetActivityState>:
    bbfc:	e3013a78 	movw	r3, #6776	@ 0x1a78
    bc00:	e3403002 	movt	r3, #2
    bc04:	e92d4070 	push	{r4, r5, r6, lr}
    bc08:	e1a05000 	mov	r5, r0
    bc0c:	e5930000 	ldr	r0, [r3]
    bc10:	e24dd008 	sub	sp, sp, #8
    bc14:	e1a06001 	mov	r6, r1
    bc18:	e3500000 	cmp	r0, #0
    bc1c:	0a000024 	beq	bcb4 <dbiSetActivityState+0xb8>
    bc20:	e5901000 	ldr	r1, [r0]
    bc24:	e3510006 	cmp	r1, #6
    bc28:	ca000021 	bgt	bcb4 <dbiSetActivityState+0xb8>
    bc2c:	ebfffcda 	bl	af9c <dbi_init>
    bc30:	e2501000 	subs	r1, r0, #0
    bc34:	1a00002c 	bne	bcec <dbiSetActivityState+0xf0>
    bc38:	e3560001 	cmp	r6, #1
    bc3c:	1a00002c 	bne	bcf4 <dbiSetActivityState+0xf8>
    bc40:	e3014a7c 	movw	r4, #6780	@ 0x1a7c
    bc44:	e3404002 	movt	r4, #2
    bc48:	e5940008 	ldr	r0, [r4, #8]
    bc4c:	e590c004 	ldr	ip, [r0, #4]
    bc50:	e35c0000 	cmp	ip, #0
    bc54:	1a000036 	bne	bd34 <dbiSetActivityState+0x138>
    bc58:	e3a01000 	mov	r1, #0
    bc5c:	e594e00c 	ldr	lr, [r4, #12]
    bc60:	e3010a7c 	movw	r0, #6780	@ 0x1a7c
    bc64:	e3400002 	movt	r0, #2
    bc68:	e15e0006 	cmp	lr, r6
    bc6c:	1580600c 	strne	r6, [r0, #12]
    bc70:	0a00002c 	beq	bd28 <dbiSetActivityState+0x12c>
    bc74:	e5943000 	ldr	r3, [r4]
    bc78:	e3014a7c 	movw	r4, #6780	@ 0x1a7c
    bc7c:	e3404002 	movt	r4, #2
    bc80:	e3530000 	cmp	r3, #0
    bc84:	0a000018 	beq	bcec <dbiSetActivityState+0xf0>
    bc88:	ebfffd7b 	bl	b27c <dbiGetAll>
    bc8c:	e2505000 	subs	r5, r0, #0
    bc90:	0a000015 	beq	bcec <dbiSetActivityState+0xf0>
    bc94:	e5950000 	ldr	r0, [r5]
    bc98:	e1a0e00f 	mov	lr, pc
    bc9c:	e594f000 	ldr	pc, [r4]
    bca0:	e1a00005 	mov	r0, r5
    bca4:	e3a01001 	mov	r1, #1
    bca8:	e28dd008 	add	sp, sp, #8
    bcac:	e8bd4070 	pop	{r4, r5, r6, lr}
    bcb0:	eafffa0f 	b	a4f4 <g_string_free@plt>
    bcb4:	e3550000 	cmp	r5, #0
    bcb8:	e3a01007 	mov	r1, #7
    bcbc:	e59f307c 	ldr	r3, [pc, #124]	@ bd40 <dbiSetActivityState+0x144>
    bcc0:	e3052e88 	movw	r2, #24200	@ 0x5e88
    bcc4:	e3402001 	movt	r2, #1
    bcc8:	e305ce80 	movw	ip, #24192	@ 0x5e80
    bccc:	e58d6004 	str	r6, [sp, #4]
    bcd0:	e340c001 	movt	ip, #1
    bcd4:	11a0c005 	movne	ip, r5
    bcd8:	e58dc000 	str	ip, [sp]
    bcdc:	ebfffa34 	bl	a5b4 <PmLogPrint_@plt>
    bce0:	ebfffcad 	bl	af9c <dbi_init>
    bce4:	e2501000 	subs	r1, r0, #0
    bce8:	0affffd2 	beq	bc38 <dbiSetActivityState+0x3c>
    bcec:	e28dd008 	add	sp, sp, #8
    bcf0:	e8bd8070 	pop	{r4, r5, r6, pc}
    bcf4:	e3014a7c 	movw	r4, #6780	@ 0x1a7c
    bcf8:	e3404002 	movt	r4, #2
    bcfc:	e1a01005 	mov	r1, r5
    bd00:	e5942008 	ldr	r2, [r4, #8]
    bd04:	e5920000 	ldr	r0, [r2]
    bd08:	ebfffaf5 	bl	a8e4 <g_ascii_strcasecmp@plt>
    bd0c:	e3500000 	cmp	r0, #0
    bd10:	0affffd0 	beq	bc58 <dbiSetActivityState+0x5c>
    bd14:	e1a01005 	mov	r1, r5
    bd18:	e5940008 	ldr	r0, [r4, #8]
    bd1c:	ebfffa48 	bl	a644 <g_string_assign@plt>
    bd20:	e3a01001 	mov	r1, #1
    bd24:	eaffffcc 	b	bc5c <dbiSetActivityState+0x60>
    bd28:	e3510000 	cmp	r1, #0
    bd2c:	0affffee 	beq	bcec <dbiSetActivityState+0xf0>
    bd30:	eaffffcf 	b	bc74 <dbiSetActivityState+0x78>
    bd34:	ebfffa96 	bl	a794 <g_string_truncate@plt>
    bd38:	e1a01006 	mov	r1, r6
    bd3c:	eaffffc6 	b	bc5c <dbiSetActivityState+0x60>
    bd40:	00015720 	.word	0x00015720

0000bd44 <registerProfileChangeNotificationCb>:
    bd44:	e3013a8c 	movw	r3, #6796	@ 0x1a8c
    bd48:	e3403002 	movt	r3, #2
    bd4c:	e5830000 	str	r0, [r3]
    bd50:	eafffbf8 	b	ad38 <dbiRegisterWatchCb>

0000bd54 <profileGetActiveProfile>:
    bd54:	eafffd37 	b	b238 <dbiGetActiveProfile>

0000bd58 <profileSetActivityState>:
    bd58:	eaffffa7 	b	bbfc <dbiSetActivityState>

0000bd5c <profileGetPrvDetails>:
    bd5c:	e92d41f0 	push	{r4, r5, r6, r7, r8, lr}
    bd60:	e1a06001 	mov	r6, r1
    bd64:	e1a05002 	mov	r5, r2
    bd68:	ebfffeb9 	bl	b854 <dbiGet>
    bd6c:	e2507000 	subs	r7, r0, #0
    bd70:	0a00000d 	beq	bdac <profileGetPrvDetails+0x50>
    bd74:	e5970000 	ldr	r0, [r7]
    bd78:	eb002588 	bl	153a0 <decryptProfile>
    bd7c:	e2504000 	subs	r4, r0, #0
    bd80:	0a00000c 	beq	bdb8 <profileGetPrvDetails+0x5c>
    bd84:	e1a01005 	mov	r1, r5
    bd88:	e5940000 	ldr	r0, [r4]
    bd8c:	e12fff36 	blx	r6
    bd90:	e1a00004 	mov	r0, r4
    bd94:	e3a01001 	mov	r1, #1
    bd98:	ebfff9d5 	bl	a4f4 <g_string_free@plt>
    bd9c:	e1a00007 	mov	r0, r7
    bda0:	e3a01001 	mov	r1, #1
    bda4:	e8bd41f0 	pop	{r4, r5, r6, r7, r8, lr}
    bda8:	eafff9d1 	b	a4f4 <g_string_free@plt>
    bdac:	e1a01005 	mov	r1, r5
    bdb0:	e12fff36 	blx	r6
    bdb4:	e8bd81f0 	pop	{r4, r5, r6, r7, r8, pc}
    bdb8:	e1a01005 	mov	r1, r5
    bdbc:	e12fff36 	blx	r6
    bdc0:	eafffff5 	b	bd9c <profileGetPrvDetails+0x40>

0000bdc4 <profileGetDetails>:
    bdc4:	e92d41f0 	push	{r4, r5, r6, r7, r8, lr}
    bdc8:	e1a06000 	mov	r6, r0
    bdcc:	e1a00001 	mov	r0, r1
    bdd0:	e1a07002 	mov	r7, r2
    bdd4:	ebfffe9e 	bl	b854 <dbiGet>
    bdd8:	e2505000 	subs	r5, r0, #0
    bddc:	0a00000f 	beq	be20 <profileGetDetails+0x5c>
    bde0:	e5950000 	ldr	r0, [r5]
    bde4:	eb00256d 	bl	153a0 <decryptProfile>
    bde8:	e2504000 	subs	r4, r0, #0
    bdec:	0a000014 	beq	be44 <profileGetDetails+0x80>
    bdf0:	e3a02000 	mov	r2, #0
    bdf4:	e1a00006 	mov	r0, r6
    bdf8:	e5941000 	ldr	r1, [r4]
    bdfc:	e1a03002 	mov	r3, r2
    be00:	e12fff37 	blx	r7
    be04:	e1a00004 	mov	r0, r4
    be08:	e3a01001 	mov	r1, #1
    be0c:	ebfff9b8 	bl	a4f4 <g_string_free@plt>
    be10:	e1a00005 	mov	r0, r5
    be14:	e3a01001 	mov	r1, #1
    be18:	e8bd41f0 	pop	{r4, r5, r6, r7, r8, lr}
    be1c:	eafff9b4 	b	a4f4 <g_string_free@plt>
    be20:	e3050ec0 	movw	r0, #24256	@ 0x5ec0
    be24:	e3400001 	movt	r0, #1
    be28:	eb001ad7 	bl	1298c <LOCALIZED>
    be2c:	e1a01005 	mov	r1, r5
    be30:	e3e02002 	mvn	r2, #2
    be34:	e1a03000 	mov	r3, r0
    be38:	e1a00006 	mov	r0, r6
    be3c:	e12fff37 	blx	r7
    be40:	e8bd81f0 	pop	{r4, r5, r6, r7, r8, pc}
    be44:	e3050ea4 	movw	r0, #24228	@ 0x5ea4
    be48:	e3400001 	movt	r0, #1
    be4c:	eb001ace 	bl	1298c <LOCALIZED>
    be50:	e1a01004 	mov	r1, r4
    be54:	e3e02000 	mvn	r2, #0
    be58:	e1a03000 	mov	r3, r0
    be5c:	e1a00006 	mov	r0, r6
    be60:	e12fff37 	blx	r7
    be64:	eaffffe9 	b	be10 <profileGetDetails+0x4c>

0000be68 <profileGetList>:
    be68:	e92d4070 	push	{r4, r5, r6, lr}
    be6c:	e1a05000 	mov	r5, r0
    be70:	e1a06001 	mov	r6, r1
    be74:	ebfffd00 	bl	b27c <dbiGetAll>
    be78:	e2504000 	subs	r4, r0, #0
    be7c:	0a000008 	beq	bea4 <profileGetList+0x3c>
    be80:	e3a02000 	mov	r2, #0
    be84:	e1a00005 	mov	r0, r5
    be88:	e5941000 	ldr	r1, [r4]
    be8c:	e1a03002 	mov	r3, r2
    be90:	e12fff36 	blx	r6
    be94:	e1a00004 	mov	r0, r4
    be98:	e3a01001 	mov	r1, #1
    be9c:	e8bd4070 	pop	{r4, r5, r6, lr}
    bea0:	eafff993 	b	a4f4 <g_string_free@plt>
    bea4:	e3050ee4 	movw	r0, #24292	@ 0x5ee4
    bea8:	e3400001 	movt	r0, #1
    beac:	eb001ab6 	bl	1298c <LOCALIZED>
    beb0:	e1a01004 	mov	r1, r4
    beb4:	e3e02000 	mvn	r2, #0
    beb8:	e1a03000 	mov	r3, r0
    bebc:	e1a00005 	mov	r0, r5
    bec0:	e12fff36 	blx	r6
    bec4:	e8bd8070 	pop	{r4, r5, r6, pc}

0000bec8 <notifyProfileListToSubscribers>:
    bec8:	e92d4010 	push	{r4, lr}
    becc:	ebfffcea 	bl	b27c <dbiGetAll>
    bed0:	e2504000 	subs	r4, r0, #0
    bed4:	08bd8010 	popeq	{r4, pc}
    bed8:	e5940000 	ldr	r0, [r4]
    bedc:	e3013a8c 	movw	r3, #6796	@ 0x1a8c
    bee0:	e3403002 	movt	r3, #2
    bee4:	e1a0e00f 	mov	lr, pc
    bee8:	e593f000 	ldr	pc, [r3]
    beec:	e1a00004 	mov	r0, r4
    bef0:	e3a01001 	mov	r1, #1
    bef4:	e8bd4010 	pop	{r4, lr}
    bef8:	eafff97d 	b	a4f4 <g_string_free@plt>

0000befc <profileDelete>:
    befc:	e92d4070 	push	{r4, r5, r6, lr}
    bf00:	e1a05000 	mov	r5, r0
    bf04:	e1a00001 	mov	r0, r1
    bf08:	e1a06002 	mov	r6, r2
    bf0c:	ebfffe5a 	bl	b87c <dbiDel>
    bf10:	e2504000 	subs	r4, r0, #0
    bf14:	1a00000b 	bne	bf48 <profileDelete+0x4c>
    bf18:	e1a02004 	mov	r2, r4
    bf1c:	e1a03004 	mov	r3, r4
    bf20:	e1a01004 	mov	r1, r4
    bf24:	e1a00005 	mov	r0, r5
    bf28:	e12fff36 	blx	r6
    bf2c:	e3013a8c 	movw	r3, #6796	@ 0x1a8c
    bf30:	e3403002 	movt	r3, #2
    bf34:	e5932000 	ldr	r2, [r3]
    bf38:	e3520000 	cmp	r2, #0
    bf3c:	08bd8070 	popeq	{r4, r5, r6, pc}
    bf40:	e8bd4070 	pop	{r4, r5, r6, lr}
    bf44:	eaffffdf 	b	bec8 <notifyProfileListToSubscribers>
    bf48:	e3050f1c 	movw	r0, #24348	@ 0x5f1c
    bf4c:	e3400001 	movt	r0, #1
    bf50:	eb001a8d 	bl	1298c <LOCALIZED>
    bf54:	e1a02004 	mov	r2, r4
    bf58:	e3a01000 	mov	r1, #0
    bf5c:	e1a03000 	mov	r3, r0
    bf60:	e1a00005 	mov	r0, r5
    bf64:	e12fff36 	blx	r6
    bf68:	e3013a8c 	movw	r3, #6796	@ 0x1a8c
    bf6c:	e3403002 	movt	r3, #2
    bf70:	e5932000 	ldr	r2, [r3]
    bf74:	e3520000 	cmp	r2, #0
    bf78:	1afffff0 	bne	bf40 <profileDelete+0x44>
    bf7c:	e8bd8070 	pop	{r4, r5, r6, pc}

0000bf80 <profileAddOrUpdate>:
    bf80:	e92d41f0 	push	{r4, r5, r6, r7, r8, lr}
    bf84:	e1a07000 	mov	r7, r0
    bf88:	e1a00003 	mov	r0, r3
    bf8c:	e1a06001 	mov	r6, r1
    bf90:	e1a05002 	mov	r5, r2
    bf94:	e59d8018 	ldr	r8, [sp, #24]
    bf98:	eb002514 	bl	153f0 <encryptProfile>
    bf9c:	e2504000 	subs	r4, r0, #0
    bfa0:	0a00001e 	beq	c020 <profileAddOrUpdate+0xa0>
    bfa4:	e1a01005 	mov	r1, r5
    bfa8:	e5942000 	ldr	r2, [r4]
    bfac:	e1a00006 	mov	r0, r6
    bfb0:	ebfffe8b 	bl	b9e4 <dbiPut>
    bfb4:	e3a01001 	mov	r1, #1
    bfb8:	e1a05000 	mov	r5, r0
    bfbc:	e1a00004 	mov	r0, r4
    bfc0:	ebfff94b 	bl	a4f4 <g_string_free@plt>
    bfc4:	e3550000 	cmp	r5, #0
    bfc8:	1a00000b 	bne	bffc <profileAddOrUpdate+0x7c>
    bfcc:	e1a02005 	mov	r2, r5
    bfd0:	e1a03005 	mov	r3, r5
    bfd4:	e1a01005 	mov	r1, r5
    bfd8:	e1a00007 	mov	r0, r7
    bfdc:	e12fff38 	blx	r8
    bfe0:	e3013a8c 	movw	r3, #6796	@ 0x1a8c
    bfe4:	e3403002 	movt	r3, #2
    bfe8:	e5932000 	ldr	r2, [r3]
    bfec:	e3520000 	cmp	r2, #0
    bff0:	08bd81f0 	popeq	{r4, r5, r6, r7, r8, pc}
    bff4:	e8bd41f0 	pop	{r4, r5, r6, r7, r8, lr}
    bff8:	eaffffb2 	b	bec8 <notifyProfileListToSubscribers>
    bffc:	e3050f44 	movw	r0, #24388	@ 0x5f44
    c000:	e3400001 	movt	r0, #1
    c004:	eb001a60 	bl	1298c <LOCALIZED>
    c008:	e1a02005 	mov	r2, r5
    c00c:	e3a01000 	mov	r1, #0
    c010:	e1a03000 	mov	r3, r0
    c014:	e1a00007 	mov	r0, r7
    c018:	e12fff38 	blx	r8
    c01c:	e8bd81f0 	pop	{r4, r5, r6, r7, r8, pc}
    c020:	e3050f70 	movw	r0, #24432	@ 0x5f70
    c024:	e3400001 	movt	r0, #1
    c028:	eb001a57 	bl	1298c <LOCALIZED>
    c02c:	e1a01004 	mov	r1, r4
    c030:	e3e02000 	mvn	r2, #0
    c034:	e1a03000 	mov	r3, r0
    c038:	e1a00007 	mov	r0, r7
    c03c:	e12fff38 	blx	r8
    c040:	e8bd81f0 	pop	{r4, r5, r6, r7, r8, pc}

0000c044 <getActivePlugin>:
    c044:	e3013a90 	movw	r3, #6800	@ 0x1a90
    c048:	e3403002 	movt	r3, #2
    c04c:	e5930000 	ldr	r0, [r3]
    c050:	e12fff1e 	bx	lr

0000c054 <deactivatePlugin>:
    c054:	e92d40f0 	push	{r4, r5, r6, r7, lr}
    c058:	e3014a90 	movw	r4, #6800	@ 0x1a90
    c05c:	e3404002 	movt	r4, #2
    c060:	e24dd00c 	sub	sp, sp, #12
    c064:	e5943000 	ldr	r3, [r4]
    c068:	e3530000 	cmp	r3, #0
    c06c:	03a07001 	moveq	r7, #1
    c070:	0a000025 	beq	c10c <deactivatePlugin+0xb8>
    c074:	e3015a78 	movw	r5, #6776	@ 0x1a78
    c078:	e3405002 	movt	r5, #2
    c07c:	e1a0e00f 	mov	lr, pc
    c080:	e593f040 	ldr	pc, [r3, #64]	@ 0x40
    c084:	e5950000 	ldr	r0, [r5]
    c088:	e3500000 	cmp	r0, #0
    c08c:	0a000002 	beq	c09c <deactivatePlugin+0x48>
    c090:	e5903000 	ldr	r3, [r0]
    c094:	e3530006 	cmp	r3, #6
    c098:	da000005 	ble	c0b4 <deactivatePlugin+0x60>
    c09c:	e30620c8 	movw	r2, #24776	@ 0x60c8
    c0a0:	e3053f90 	movw	r3, #24464	@ 0x5f90
    c0a4:	e3402001 	movt	r2, #1
    c0a8:	e3403001 	movt	r3, #1
    c0ac:	e3a01007 	mov	r1, #7
    c0b0:	ebfff93f 	bl	a5b4 <PmLogPrint_@plt>
    c0b4:	e5941000 	ldr	r1, [r4]
    c0b8:	e5910044 	ldr	r0, [r1, #68]	@ 0x44
    c0bc:	ebfff8bb 	bl	a3b0 <dlclose@plt>
    c0c0:	e3500000 	cmp	r0, #0
    c0c4:	03a07001 	moveq	r7, #1
    c0c8:	1a000012 	bne	c118 <deactivatePlugin+0xc4>
    c0cc:	e5950000 	ldr	r0, [r5]
    c0d0:	e3500000 	cmp	r0, #0
    c0d4:	0a000002 	beq	c0e4 <deactivatePlugin+0x90>
    c0d8:	e5902000 	ldr	r2, [r0]
    c0dc:	e3520006 	cmp	r2, #6
    c0e0:	da000005 	ble	c0fc <deactivatePlugin+0xa8>
    c0e4:	e3062114 	movw	r2, #24852	@ 0x6114
    c0e8:	e3053f90 	movw	r3, #24464	@ 0x5f90
    c0ec:	e3402001 	movt	r2, #1
    c0f0:	e3403001 	movt	r3, #1
    c0f4:	e3a01007 	mov	r1, #7
    c0f8:	ebfff92d 	bl	a5b4 <PmLogPrint_@plt>
    c0fc:	e5940000 	ldr	r0, [r4]
    c100:	ebfff83e 	bl	a200 <g_free@plt>
    c104:	e3a0c000 	mov	ip, #0
    c108:	e584c000 	str	ip, [r4]
    c10c:	e1a00007 	mov	r0, r7
    c110:	e28dd00c 	add	sp, sp, #12
    c114:	e8bd80f0 	pop	{r4, r5, r6, r7, pc}
    c118:	e5956000 	ldr	r6, [r5]
    c11c:	e3560000 	cmp	r6, #0
    c120:	0a000003 	beq	c134 <deactivatePlugin+0xe0>
    c124:	e5960000 	ldr	r0, [r6]
    c128:	e3500002 	cmp	r0, #2
    c12c:	d3a07000 	movle	r7, #0
    c130:	dafffff1 	ble	c0fc <deactivatePlugin+0xa8>
    c134:	ebfff978 	bl	a71c <dlerror@plt>
    c138:	e3a01003 	mov	r1, #3
    c13c:	e30620fc 	movw	r2, #24828	@ 0x60fc
    c140:	e3053f90 	movw	r3, #24464	@ 0x5f90
    c144:	e3402001 	movt	r2, #1
    c148:	e3403001 	movt	r3, #1
    c14c:	e3a07000 	mov	r7, #0
    c150:	e58d0000 	str	r0, [sp]
    c154:	e1a00006 	mov	r0, r6
    c158:	ebfff915 	bl	a5b4 <PmLogPrint_@plt>
    c15c:	eaffffda 	b	c0cc <deactivatePlugin+0x78>

0000c160 <deallocateAgentJsonInfoItem>:
    c160:	e92d4010 	push	{r4, lr}
    c164:	e1a04000 	mov	r4, r0
    c168:	e5900004 	ldr	r0, [r0, #4]
    c16c:	ebfff823 	bl	a200 <g_free@plt>
    c170:	e5940000 	ldr	r0, [r4]
    c174:	ebfff821 	bl	a200 <g_free@plt>
    c178:	e5940008 	ldr	r0, [r4, #8]
    c17c:	ebfff81f 	bl	a200 <g_free@plt>
    c180:	e594000c 	ldr	r0, [r4, #12]
    c184:	ebfff81d 	bl	a200 <g_free@plt>
    c188:	e5940010 	ldr	r0, [r4, #16]
    c18c:	ebfff81b 	bl	a200 <g_free@plt>
    c190:	e5940014 	ldr	r0, [r4, #20]
    c194:	ebfff819 	bl	a200 <g_free@plt>
    c198:	e5940018 	ldr	r0, [r4, #24]
    c19c:	ebfff817 	bl	a200 <g_free@plt>
    c1a0:	e1a00004 	mov	r0, r4
    c1a4:	e8bd4010 	pop	{r4, lr}
    c1a8:	eafff814 	b	a200 <g_free@plt>

0000c1ac <findAgentsInDirectory>:
    c1ac:	e92d4ff0 	push	{r4, r5, r6, r7, r8, r9, sl, fp, lr}
    c1b0:	e24dd03c 	sub	sp, sp, #60	@ 0x3c
    c1b4:	e28d2038 	add	r2, sp, #56	@ 0x38
    c1b8:	e3a01000 	mov	r1, #0
    c1bc:	e1a0a000 	mov	sl, r0
    c1c0:	e5221004 	str	r1, [r2, #-4]!
    c1c4:	ebfff9b1 	bl	a890 <g_dir_open@plt>
    c1c8:	e59d1034 	ldr	r1, [sp, #52]	@ 0x34
    c1cc:	e3510000 	cmp	r1, #0
    c1d0:	e1a07000 	mov	r7, r0
    c1d4:	0a000018 	beq	c23c <findAgentsInDirectory+0x90>
    c1d8:	e3013a78 	movw	r3, #6776	@ 0x1a78
    c1dc:	e3403002 	movt	r3, #2
    c1e0:	e5930000 	ldr	r0, [r3]
    c1e4:	e3500000 	cmp	r0, #0
    c1e8:	0a00000a 	beq	c218 <findAgentsInDirectory+0x6c>
    c1ec:	e590e000 	ldr	lr, [r0]
    c1f0:	e35e0002 	cmp	lr, #2
    c1f4:	ca000007 	bgt	c218 <findAgentsInDirectory+0x6c>
    c1f8:	e1a00001 	mov	r0, r1
    c1fc:	ebfff970 	bl	a7c4 <g_error_free@plt>
    c200:	e3570000 	cmp	r7, #0
    c204:	0a000001 	beq	c210 <findAgentsInDirectory+0x64>
    c208:	e1a00007 	mov	r0, r7
    c20c:	ebfff80a 	bl	a23c <g_dir_close@plt>
    c210:	e28dd03c 	add	sp, sp, #60	@ 0x3c
    c214:	e8bd8ff0 	pop	{r4, r5, r6, r7, r8, r9, sl, fp, pc}
    c218:	e591c008 	ldr	ip, [r1, #8]
    c21c:	e3062228 	movw	r2, #25128	@ 0x6228
    c220:	e3a01003 	mov	r1, #3
    c224:	e3402001 	movt	r2, #1
    c228:	e59f3500 	ldr	r3, [pc, #1280]	@ c730 <findAgentsInDirectory+0x584>
    c22c:	e58dc000 	str	ip, [sp]
    c230:	ebfff8df 	bl	a5b4 <PmLogPrint_@plt>
    c234:	e59d1034 	ldr	r1, [sp, #52]	@ 0x34
    c238:	eaffffee 	b	c1f8 <findAgentsInDirectory+0x4c>
    c23c:	e3018a78 	movw	r8, #6776	@ 0x1a78
    c240:	e301ba90 	movw	fp, #6800	@ 0x1a90
    c244:	e3408002 	movt	r8, #2
    c248:	e340b002 	movt	fp, #2
    c24c:	e1a09001 	mov	r9, r1
    c250:	ea000027 	b	c2f4 <findAgentsInDirectory+0x148>
    c254:	e5980000 	ldr	r0, [r8]
    c258:	e3500000 	cmp	r0, #0
    c25c:	0a000002 	beq	c26c <findAgentsInDirectory+0xc0>
    c260:	e5904000 	ldr	r4, [r0]
    c264:	e3540002 	cmp	r4, #2
    c268:	da000006 	ble	c288 <findAgentsInDirectory+0xdc>
    c26c:	e596e000 	ldr	lr, [r6]
    c270:	e30621d0 	movw	r2, #25040	@ 0x61d0
    c274:	e3a01003 	mov	r1, #3
    c278:	e3402001 	movt	r2, #1
    c27c:	e59f34b0 	ldr	r3, [pc, #1200]	@ c734 <findAgentsInDirectory+0x588>
    c280:	e58de000 	str	lr, [sp]
    c284:	ebfff8ca 	bl	a5b4 <PmLogPrint_@plt>
    c288:	e59dc030 	ldr	ip, [sp, #48]	@ 0x30
    c28c:	e35c0000 	cmp	ip, #0
    c290:	0a000011 	beq	c2dc <findAgentsInDirectory+0x130>
    c294:	e5980000 	ldr	r0, [r8]
    c298:	e3500000 	cmp	r0, #0
    c29c:	0a000002 	beq	c2ac <findAgentsInDirectory+0x100>
    c2a0:	e5902000 	ldr	r2, [r0]
    c2a4:	e3520002 	cmp	r2, #2
    c2a8:	da000009 	ble	c2d4 <findAgentsInDirectory+0x128>
    c2ac:	e5964000 	ldr	r4, [r6]
    c2b0:	e3a01003 	mov	r1, #3
    c2b4:	e3062200 	movw	r2, #25088	@ 0x6200
    c2b8:	e59f3474 	ldr	r3, [pc, #1140]	@ c734 <findAgentsInDirectory+0x588>
    c2bc:	e3402001 	movt	r2, #1
    c2c0:	e58d4000 	str	r4, [sp]
    c2c4:	e59cc008 	ldr	ip, [ip, #8]
    c2c8:	e58dc004 	str	ip, [sp, #4]
    c2cc:	ebfff8b8 	bl	a5b4 <PmLogPrint_@plt>
    c2d0:	e59dc030 	ldr	ip, [sp, #48]	@ 0x30
    c2d4:	e1a0000c 	mov	r0, ip
    c2d8:	ebfff939 	bl	a7c4 <g_error_free@plt>
    c2dc:	e1a00006 	mov	r0, r6
    c2e0:	e3a01001 	mov	r1, #1
    c2e4:	ebfff882 	bl	a4f4 <g_string_free@plt>
    c2e8:	e1a00005 	mov	r0, r5
    c2ec:	e3a01001 	mov	r1, #1
    c2f0:	ebfff87f 	bl	a4f4 <g_string_free@plt>
    c2f4:	e1a00007 	mov	r0, r7
    c2f8:	ebfff7e1 	bl	a284 <g_dir_read_name@plt>
    c2fc:	e2504000 	subs	r4, r0, #0
    c300:	0affffbe 	beq	c200 <findAgentsInDirectory+0x54>
    c304:	e1a0000a 	mov	r0, sl
    c308:	ebfff843 	bl	a41c <g_string_new@plt>
    c30c:	e2505000 	subs	r5, r0, #0
    c310:	0a000050 	beq	c458 <findAgentsInDirectory+0x2ac>
    c314:	e1a02004 	mov	r2, r4
    c318:	e306112c 	movw	r1, #24876	@ 0x612c
    c31c:	e3401001 	movt	r1, #1
    c320:	ebfff94b 	bl	a854 <g_string_append_printf@plt>
    c324:	e5950000 	ldr	r0, [r5]
    c328:	e3a01004 	mov	r1, #4
    c32c:	ebfff95a 	bl	a89c <g_file_test@plt>
    c330:	e3500000 	cmp	r0, #0
    c334:	0affffeb 	beq	c2e8 <findAgentsInDirectory+0x13c>
    c338:	e5980000 	ldr	r0, [r8]
    c33c:	e3500000 	cmp	r0, #0
    c340:	0a000002 	beq	c350 <findAgentsInDirectory+0x1a4>
    c344:	e5903000 	ldr	r3, [r0]
    c348:	e3530006 	cmp	r3, #6
    c34c:	da000006 	ble	c36c <findAgentsInDirectory+0x1c0>
    c350:	e595c000 	ldr	ip, [r5]
    c354:	e3062130 	movw	r2, #24880	@ 0x6130
    c358:	e3a01007 	mov	r1, #7
    c35c:	e3402001 	movt	r2, #1
    c360:	e59f33c8 	ldr	r3, [pc, #968]	@ c730 <findAgentsInDirectory+0x584>
    c364:	e58dc000 	str	ip, [sp]
    c368:	ebfff891 	bl	a5b4 <PmLogPrint_@plt>
    c36c:	e58d9030 	str	r9, [sp, #48]	@ 0x30
    c370:	e5950000 	ldr	r0, [r5]
    c374:	ebfff828 	bl	a41c <g_string_new@plt>
    c378:	e306112c 	movw	r1, #24876	@ 0x612c
    c37c:	e3062154 	movw	r2, #24916	@ 0x6154
    c380:	e3401001 	movt	r1, #1
    c384:	e3402001 	movt	r2, #1
    c388:	e1a06000 	mov	r6, r0
    c38c:	ebfff930 	bl	a854 <g_string_append_printf@plt>
    c390:	e5960000 	ldr	r0, [r6]
    c394:	e3a01001 	mov	r1, #1
    c398:	ebfff93f 	bl	a89c <g_file_test@plt>
    c39c:	e3500000 	cmp	r0, #0
    c3a0:	0affffab 	beq	c254 <findAgentsInDirectory+0xa8>
    c3a4:	e5960000 	ldr	r0, [r6]
    c3a8:	e306116c 	movw	r1, #24940	@ 0x616c
    c3ac:	e28d2030 	add	r2, sp, #48	@ 0x30
    c3b0:	e3401001 	movt	r1, #1
    c3b4:	ebfff80c 	bl	a3ec <g_io_channel_new_file@plt>
    c3b8:	e59dc030 	ldr	ip, [sp, #48]	@ 0x30
    c3bc:	e35c0000 	cmp	ip, #0
    c3c0:	e58d0014 	str	r0, [sp, #20]
    c3c4:	1affffb2 	bne	c294 <findAgentsInDirectory+0xe8>
    c3c8:	e28d102c 	add	r1, sp, #44	@ 0x2c
    c3cc:	e28d2028 	add	r2, sp, #40	@ 0x28
    c3d0:	e28d3030 	add	r3, sp, #48	@ 0x30
    c3d4:	e58d902c 	str	r9, [sp, #44]	@ 0x2c
    c3d8:	e58d9028 	str	r9, [sp, #40]	@ 0x28
    c3dc:	ebfff7ea 	bl	a38c <g_io_channel_read_to_end@plt>
    c3e0:	e3500001 	cmp	r0, #1
    c3e4:	1a000014 	bne	c43c <findAgentsInDirectory+0x290>
    c3e8:	e59d002c 	ldr	r0, [sp, #44]	@ 0x2c
    c3ec:	e3500000 	cmp	r0, #0
    c3f0:	058d9010 	streq	r9, [sp, #16]
    c3f4:	0a00001f 	beq	c478 <findAgentsInDirectory+0x2cc>
    c3f8:	ebfff843 	bl	a50c <json_tokener_parse@plt>
    c3fc:	e3700efa 	cmn	r0, #4000	@ 0xfa0
    c400:	e58d0010 	str	r0, [sp, #16]
    c404:	9a00001b 	bls	c478 <findAgentsInDirectory+0x2cc>
    c408:	e5980000 	ldr	r0, [r8]
    c40c:	e3500000 	cmp	r0, #0
    c410:	0a000002 	beq	c420 <findAgentsInDirectory+0x274>
    c414:	e590e000 	ldr	lr, [r0]
    c418:	e35e0002 	cmp	lr, #2
    c41c:	da000006 	ble	c43c <findAgentsInDirectory+0x290>
    c420:	e59dc02c 	ldr	ip, [sp, #44]	@ 0x2c
    c424:	e30621b8 	movw	r2, #25016	@ 0x61b8
    c428:	e3a01003 	mov	r1, #3
    c42c:	e3402001 	movt	r2, #1
    c430:	e59f32fc 	ldr	r3, [pc, #764]	@ c734 <findAgentsInDirectory+0x588>
    c434:	e58dc000 	str	ip, [sp]
    c438:	ebfff85d 	bl	a5b4 <PmLogPrint_@plt>
    c43c:	e59d0014 	ldr	r0, [sp, #20]
    c440:	e3a01000 	mov	r1, #0
    c444:	e28d2030 	add	r2, sp, #48	@ 0x30
    c448:	ebfff775 	bl	a224 <g_io_channel_shutdown@plt>
    c44c:	e59d002c 	ldr	r0, [sp, #44]	@ 0x2c
    c450:	ebfff76a 	bl	a200 <g_free@plt>
    c454:	eaffff8b 	b	c288 <findAgentsInDirectory+0xdc>
    c458:	e3061248 	movw	r1, #25160	@ 0x6248
    c45c:	e3a020c6 	mov	r2, #198	@ 0xc6
    c460:	e3401001 	movt	r1, #1
    c464:	e59f32cc 	ldr	r3, [pc, #716]	@ c738 <findAgentsInDirectory+0x58c>
    c468:	e3065258 	movw	r5, #25176	@ 0x6258
    c46c:	e3405001 	movt	r5, #1
    c470:	e58d5000 	str	r5, [sp]
    c474:	ebfff803 	bl	a488 <g_assertion_message_expr@plt>
    c478:	e3a0001c 	mov	r0, #28
    c47c:	ebfff8b2 	bl	a74c <g_malloc0@plt>
    c480:	e58d000c 	str	r0, [sp, #12]
    c484:	e5950000 	ldr	r0, [r5]
    c488:	ebfff79b 	bl	a2fc <g_strdup@plt>
    c48c:	e59d200c 	ldr	r2, [sp, #12]
    c490:	e3081054 	movw	r1, #32852	@ 0x8054
    c494:	e3401001 	movt	r1, #1
    c498:	e5820004 	str	r0, [r2, #4]
    c49c:	e59d0010 	ldr	r0, [sp, #16]
    c4a0:	ebfff876 	bl	a680 <json_object_object_get@plt>
    c4a4:	ebfff7d9 	bl	a410 <json_object_get_string@plt>
    c4a8:	e2503000 	subs	r3, r0, #0
    c4ac:	0a00004e 	beq	c5ec <findAgentsInDirectory+0x440>
    c4b0:	e5d31000 	ldrb	r1, [r3]
    c4b4:	e3510000 	cmp	r1, #0
    c4b8:	0a00004b 	beq	c5ec <findAgentsInDirectory+0x440>
    c4bc:	ebfff78e 	bl	a2fc <g_strdup@plt>
    c4c0:	e59d400c 	ldr	r4, [sp, #12]
    c4c4:	e3061170 	movw	r1, #24944	@ 0x6170
    c4c8:	e3401001 	movt	r1, #1
    c4cc:	e5840000 	str	r0, [r4]
    c4d0:	e59d0010 	ldr	r0, [sp, #16]
    c4d4:	ebfff869 	bl	a680 <json_object_object_get@plt>
    c4d8:	ebfff7cc 	bl	a410 <json_object_get_string@plt>
    c4dc:	e2503000 	subs	r3, r0, #0
    c4e0:	0a000038 	beq	c5c8 <findAgentsInDirectory+0x41c>
    c4e4:	e5d3e000 	ldrb	lr, [r3]
    c4e8:	e35e0000 	cmp	lr, #0
    c4ec:	0a000035 	beq	c5c8 <findAgentsInDirectory+0x41c>
    c4f0:	ebfff781 	bl	a2fc <g_strdup@plt>
    c4f4:	e59d300c 	ldr	r3, [sp, #12]
    c4f8:	e3061178 	movw	r1, #24952	@ 0x6178
    c4fc:	e3401001 	movt	r1, #1
    c500:	e5830008 	str	r0, [r3, #8]
    c504:	e59d0010 	ldr	r0, [sp, #16]
    c508:	ebfff85c 	bl	a680 <json_object_object_get@plt>
    c50c:	ebfff7bf 	bl	a410 <json_object_get_string@plt>
    c510:	e2503000 	subs	r3, r0, #0
    c514:	0a000039 	beq	c600 <findAgentsInDirectory+0x454>
    c518:	e5d3c000 	ldrb	ip, [r3]
    c51c:	e35c0000 	cmp	ip, #0
    c520:	0a000036 	beq	c600 <findAgentsInDirectory+0x454>
    c524:	ebfff774 	bl	a2fc <g_strdup@plt>
    c528:	e59d200c 	ldr	r2, [sp, #12]
    c52c:	e3061180 	movw	r1, #24960	@ 0x6180
    c530:	e3401001 	movt	r1, #1
    c534:	e582000c 	str	r0, [r2, #12]
    c538:	e59d0010 	ldr	r0, [sp, #16]
    c53c:	ebfff84f 	bl	a680 <json_object_object_get@plt>
    c540:	ebfff7b2 	bl	a410 <json_object_get_string@plt>
    c544:	e2503000 	subs	r3, r0, #0
    c548:	0a000002 	beq	c558 <findAgentsInDirectory+0x3ac>
    c54c:	e5d31000 	ldrb	r1, [r3]
    c550:	e3510000 	cmp	r1, #0
    c554:	1a00002e 	bne	c614 <findAgentsInDirectory+0x468>
    c558:	e59d0010 	ldr	r0, [sp, #16]
    c55c:	e3061188 	movw	r1, #24968	@ 0x6188
    c560:	e3401001 	movt	r1, #1
    c564:	ebfff845 	bl	a680 <json_object_object_get@plt>
    c568:	ebfff7a8 	bl	a410 <json_object_get_string@plt>
    c56c:	e3500000 	cmp	r0, #0
    c570:	e58d0018 	str	r0, [sp, #24]
    c574:	0a000002 	beq	c584 <findAgentsInDirectory+0x3d8>
    c578:	e5d0e000 	ldrb	lr, [r0]
    c57c:	e35e0000 	cmp	lr, #0
    c580:	1a000027 	bne	c624 <findAgentsInDirectory+0x478>
    c584:	e59d0010 	ldr	r0, [sp, #16]
    c588:	e30611b0 	movw	r1, #25008	@ 0x61b0
    c58c:	e3401001 	movt	r1, #1
    c590:	ebfff83a 	bl	a680 <json_object_object_get@plt>
    c594:	ebfff8cf 	bl	a8d8 <json_object_to_json_string@plt>
    c598:	e2503000 	subs	r3, r0, #0
    c59c:	0a000002 	beq	c5ac <findAgentsInDirectory+0x400>
    c5a0:	e5d31000 	ldrb	r1, [r3]
    c5a4:	e3510000 	cmp	r1, #0
    c5a8:	1a00002b 	bne	c65c <findAgentsInDirectory+0x4b0>
    c5ac:	e59d200c 	ldr	r2, [sp, #12]
    c5b0:	e59b0004 	ldr	r0, [fp, #4]
    c5b4:	e5921000 	ldr	r1, [r2]
    c5b8:	ebfff842 	bl	a6c8 <g_hash_table_replace@plt>
    c5bc:	e59d0010 	ldr	r0, [sp, #16]
    c5c0:	ebfff8bb 	bl	a8b4 <json_object_put@plt>
    c5c4:	eaffff9c 	b	c43c <findAgentsInDirectory+0x290>
    c5c8:	e3061248 	movw	r1, #25160	@ 0x6248
    c5cc:	e3401001 	movt	r1, #1
    c5d0:	e3a00000 	mov	r0, #0
    c5d4:	e3a0208d 	mov	r2, #141	@ 0x8d
    c5d8:	e59f315c 	ldr	r3, [pc, #348]	@ c73c <findAgentsInDirectory+0x590>
    c5dc:	e3066268 	movw	r6, #25192	@ 0x6268
    c5e0:	e3406001 	movt	r6, #1
    c5e4:	e58d6000 	str	r6, [sp]
    c5e8:	ebfff7a6 	bl	a488 <g_assertion_message_expr@plt>
    c5ec:	e3061248 	movw	r1, #25160	@ 0x6248
    c5f0:	e3a00000 	mov	r0, #0
    c5f4:	e3401001 	movt	r1, #1
    c5f8:	e3a02089 	mov	r2, #137	@ 0x89
    c5fc:	eafffff5 	b	c5d8 <findAgentsInDirectory+0x42c>
    c600:	e3061248 	movw	r1, #25160	@ 0x6248
    c604:	e3a00000 	mov	r0, #0
    c608:	e3401001 	movt	r1, #1
    c60c:	e3a02091 	mov	r2, #145	@ 0x91
    c610:	eafffff0 	b	c5d8 <findAgentsInDirectory+0x42c>
    c614:	ebfff738 	bl	a2fc <g_strdup@plt>
    c618:	e59d400c 	ldr	r4, [sp, #12]
    c61c:	e5840010 	str	r0, [r4, #16]
    c620:	eaffffcc 	b	c558 <findAgentsInDirectory+0x3ac>
    c624:	e59d300c 	ldr	r3, [sp, #12]
    c628:	e3060190 	movw	r0, #24976	@ 0x6190
    c62c:	e28d1024 	add	r1, sp, #36	@ 0x24
    c630:	e3400001 	movt	r0, #1
    c634:	e58d9024 	str	r9, [sp, #36]	@ 0x24
    c638:	e5934000 	ldr	r4, [r3]
    c63c:	ebfff743 	bl	a350 <LPAppGetHandle@plt>
    c640:	e3500000 	cmp	r0, #0
    c644:	0a000008 	beq	c66c <findAgentsInDirectory+0x4c0>
    c648:	e59d0018 	ldr	r0, [sp, #24]
    c64c:	ebfff72a 	bl	a2fc <g_strdup@plt>
    c650:	e59d200c 	ldr	r2, [sp, #12]
    c654:	e5820018 	str	r0, [r2, #24]
    c658:	eaffffc9 	b	c584 <findAgentsInDirectory+0x3d8>
    c65c:	ebfff726 	bl	a2fc <g_strdup@plt>
    c660:	e59d300c 	ldr	r3, [sp, #12]
    c664:	e5830014 	str	r0, [r3, #20]
    c668:	eaffffcf 	b	c5ac <findAgentsInDirectory+0x400>
    c66c:	e1a01004 	mov	r1, r4
    c670:	e59d0024 	ldr	r0, [sp, #36]	@ 0x24
    c674:	e28d2020 	add	r2, sp, #32
    c678:	e58d9020 	str	r9, [sp, #32]
    c67c:	ebfff787 	bl	a4a0 <LPAppCopyValue@plt>
    c680:	e3500000 	cmp	r0, #0
    c684:	1a00001e 	bne	c704 <findAgentsInDirectory+0x558>
    c688:	e59d0020 	ldr	r0, [sp, #32]
    c68c:	e3500000 	cmp	r0, #0
    c690:	0a000021 	beq	c71c <findAgentsInDirectory+0x570>
    c694:	ebfff79c 	bl	a50c <json_tokener_parse@plt>
    c698:	e250c000 	subs	ip, r0, #0
    c69c:	13a0c001 	movne	ip, #1
    c6a0:	e3700efa 	cmn	r0, #4000	@ 0xfa0
    c6a4:	e58d001c 	str	r0, [sp, #28]
    c6a8:	83a0c000 	movhi	ip, #0
    c6ac:	e35c0000 	cmp	ip, #0
    c6b0:	059d0020 	ldreq	r0, [sp, #32]
    c6b4:	0a000018 	beq	c71c <findAgentsInDirectory+0x570>
    c6b8:	e30611a0 	movw	r1, #24992	@ 0x61a0
    c6bc:	e3401001 	movt	r1, #1
    c6c0:	ebfff7ee 	bl	a680 <json_object_object_get@plt>
    c6c4:	e3500000 	cmp	r0, #0
    c6c8:	0a00000b 	beq	c6fc <findAgentsInDirectory+0x550>
    c6cc:	ebfff6f5 	bl	a2a8 <json_object_get_boolean@plt>
    c6d0:	e1a04000 	mov	r4, r0
    c6d4:	e59d001c 	ldr	r0, [sp, #28]
    c6d8:	ebfff875 	bl	a8b4 <json_object_put@plt>
    c6dc:	e59d0020 	ldr	r0, [sp, #32]
    c6e0:	ebfff6c6 	bl	a200 <g_free@plt>
    c6e4:	e59d0024 	ldr	r0, [sp, #36]	@ 0x24
    c6e8:	e1a01009 	mov	r1, r9
    c6ec:	ebfff83a 	bl	a7dc <LPAppFreeHandle@plt>
    c6f0:	e3540000 	cmp	r4, #0
    c6f4:	1affffa2 	bne	c584 <findAgentsInDirectory+0x3d8>
    c6f8:	eaffffd2 	b	c648 <findAgentsInDirectory+0x49c>
    c6fc:	e59d001c 	ldr	r0, [sp, #28]
    c700:	ebfff86b 	bl	a8b4 <json_object_put@plt>
    c704:	e59d0020 	ldr	r0, [sp, #32]
    c708:	ebfff6bc 	bl	a200 <g_free@plt>
    c70c:	e59d0024 	ldr	r0, [sp, #36]	@ 0x24
    c710:	e1a01009 	mov	r1, r9
    c714:	ebfff830 	bl	a7dc <LPAppFreeHandle@plt>
    c718:	eaffffca 	b	c648 <findAgentsInDirectory+0x49c>
    c71c:	ebfff6b7 	bl	a200 <g_free@plt>
    c720:	e59d0024 	ldr	r0, [sp, #36]	@ 0x24
    c724:	e3a01000 	mov	r1, #0
    c728:	ebfff82b 	bl	a7dc <LPAppFreeHandle@plt>
    c72c:	eaffffc5 	b	c648 <findAgentsInDirectory+0x49c>
    c730:	00015fa4 	.word	0x00015fa4
    c734:	00015fbc 	.word	0x00015fbc
    c738:	00015fd0 	.word	0x00015fd0
    c73c:	00015fe8 	.word	0x00015fe8

0000c740 <findAgents>:
    c740:	e92d4010 	push	{r4, lr}
    c744:	e3014a90 	movw	r4, #6800	@ 0x1a90
    c748:	e3404002 	movt	r4, #2
    c74c:	e5940004 	ldr	r0, [r4, #4]
    c750:	e3500000 	cmp	r0, #0
    c754:	0a000000 	beq	c75c <findAgents+0x1c>
    c758:	ebfff6c0 	bl	a260 <g_hash_table_destroy@plt>
    c75c:	e3a02000 	mov	r2, #0
    c760:	e30a0278 	movw	r0, #41592	@ 0xa278
    c764:	e30a186c 	movw	r1, #43116	@ 0xa86c
    c768:	e3400000 	movt	r0, #0
    c76c:	e3401000 	movt	r1, #0
    c770:	e30c3160 	movw	r3, #49504	@ 0xc160
    c774:	e3403000 	movt	r3, #0
    c778:	ebfff76c 	bl	a530 <g_hash_table_new_full@plt>
    c77c:	e5840004 	str	r0, [r4, #4]
    c780:	e3060284 	movw	r0, #25220	@ 0x6284
    c784:	e3400001 	movt	r0, #1
    c788:	ebfffe87 	bl	c1ac <findAgentsInDirectory>
    c78c:	e3060298 	movw	r0, #25240	@ 0x6298
    c790:	e3400001 	movt	r0, #1
    c794:	ebfff79e 	bl	a614 <g_getenv@plt>
    c798:	e8bd4010 	pop	{r4, lr}
    c79c:	eafffe82 	b	c1ac <findAgentsInDirectory>

0000c7a0 <isEulaAccepted>:
    c7a0:	e92d4030 	push	{r4, r5, lr}
    c7a4:	e3014a90 	movw	r4, #6800	@ 0x1a90
    c7a8:	e3404002 	movt	r4, #2
    c7ac:	e24dd00c 	sub	sp, sp, #12
    c7b0:	e1a05000 	mov	r5, r0
    c7b4:	e5943004 	ldr	r3, [r4, #4]
    c7b8:	e3530000 	cmp	r3, #0
    c7bc:	0a000009 	beq	c7e8 <isEulaAccepted+0x48>
    c7c0:	e5940004 	ldr	r0, [r4, #4]
    c7c4:	e1a01005 	mov	r1, r5
    c7c8:	ebfff7d6 	bl	a728 <g_hash_table_lookup@plt>
    c7cc:	e3500000 	cmp	r0, #0
    c7d0:	0a000002 	beq	c7e0 <isEulaAccepted+0x40>
    c7d4:	e5901018 	ldr	r1, [r0, #24]
    c7d8:	e2710001 	rsbs	r0, r1, #1
    c7dc:	33a00000 	movcc	r0, #0
    c7e0:	e28dd00c 	add	sp, sp, #12
    c7e4:	e8bd8030 	pop	{r4, r5, pc}
    c7e8:	ebffffd4 	bl	c740 <findAgents>
    c7ec:	e5940004 	ldr	r0, [r4, #4]
    c7f0:	e3500000 	cmp	r0, #0
    c7f4:	1afffff1 	bne	c7c0 <isEulaAccepted+0x20>
    c7f8:	e3061248 	movw	r1, #25160	@ 0x6248
    c7fc:	e3002106 	movw	r2, #262	@ 0x106
    c800:	e3401001 	movt	r1, #1
    c804:	e59f300c 	ldr	r3, [pc, #12]	@ c818 <isEulaAccepted+0x78>
    c808:	e306c2b8 	movw	ip, #25272	@ 0x62b8
    c80c:	e340c001 	movt	ip, #1
    c810:	e58dc000 	str	ip, [sp]
    c814:	ebfff71b 	bl	a488 <g_assertion_message_expr@plt>
    c818:	00015ffc 	.word	0x00015ffc

0000c81c <activatePlugin>:
    c81c:	e92d47f0 	push	{r4, r5, r6, r7, r8, r9, sl, lr}
    c820:	e2508000 	subs	r8, r0, #0
    c824:	e24dd030 	sub	sp, sp, #48	@ 0x30
    c828:	0a000038 	beq	c910 <activatePlugin+0xf4>
    c82c:	e5d83000 	ldrb	r3, [r8]
    c830:	e3530000 	cmp	r3, #0
    c834:	0a000035 	beq	c910 <activatePlugin+0xf4>
    c838:	e3016a90 	movw	r6, #6800	@ 0x1a90
    c83c:	e3406002 	movt	r6, #2
    c840:	e5961000 	ldr	r1, [r6]
    c844:	e3510000 	cmp	r1, #0
    c848:	0a000004 	beq	c860 <activatePlugin+0x44>
    c84c:	e2811004 	add	r1, r1, #4
    c850:	e3a02021 	mov	r2, #33	@ 0x21
    c854:	ebfff7e9 	bl	a800 <strncmp@plt>
    c858:	e3500000 	cmp	r0, #0
    c85c:	0a000034 	beq	c934 <activatePlugin+0x118>
    c860:	ebfffdfb 	bl	c054 <deactivatePlugin>
    c864:	e30603c4 	movw	r0, #25540	@ 0x63c4
    c868:	e3400001 	movt	r0, #1
    c86c:	ebfff6ea 	bl	a41c <g_string_new@plt>
    c870:	e2504000 	subs	r4, r0, #0
    c874:	0a0000d0 	beq	cbbc <activatePlugin+0x3a0>
    c878:	e5960004 	ldr	r0, [r6, #4]
    c87c:	e3500000 	cmp	r0, #0
    c880:	0a0000c1 	beq	cb8c <activatePlugin+0x370>
    c884:	e1a01008 	mov	r1, r8
    c888:	ebfff7a6 	bl	a728 <g_hash_table_lookup@plt>
    c88c:	e3500000 	cmp	r0, #0
    c890:	0a0000bd 	beq	cb8c <activatePlugin+0x370>
    c894:	e5960004 	ldr	r0, [r6, #4]
    c898:	e1a01008 	mov	r1, r8
    c89c:	ebfff7a1 	bl	a728 <g_hash_table_lookup@plt>
    c8a0:	e2502000 	subs	r2, r0, #0
    c8a4:	0a000005 	beq	c8c0 <activatePlugin+0xa4>
    c8a8:	e5923008 	ldr	r3, [r2, #8]
    c8ac:	e30612cc 	movw	r1, #25292	@ 0x62cc
    c8b0:	e1a00004 	mov	r0, r4
    c8b4:	e3401001 	movt	r1, #1
    c8b8:	e5922004 	ldr	r2, [r2, #4]
    c8bc:	ebfff6c4 	bl	a3d4 <g_string_printf@plt>
    c8c0:	e5942004 	ldr	r2, [r4, #4]
    c8c4:	e3520000 	cmp	r2, #0
    c8c8:	1a00001b 	bne	c93c <activatePlugin+0x120>
    c8cc:	e301ca78 	movw	ip, #6776	@ 0x1a78
    c8d0:	e340c002 	movt	ip, #2
    c8d4:	e59c0000 	ldr	r0, [ip]
    c8d8:	e3500000 	cmp	r0, #0
    c8dc:	0a000003 	beq	c8f0 <activatePlugin+0xd4>
    c8e0:	e590e000 	ldr	lr, [r0]
    c8e4:	e35e0002 	cmp	lr, #2
    c8e8:	d1a00002 	movle	r0, r2
    c8ec:	da000005 	ble	c908 <activatePlugin+0xec>
    c8f0:	e3a01003 	mov	r1, #3
    c8f4:	e3062484 	movw	r2, #25732	@ 0x6484
    c8f8:	e59f3490 	ldr	r3, [pc, #1168]	@ cd90 <activatePlugin+0x574>
    c8fc:	e3402001 	movt	r2, #1
    c900:	ebfff72b 	bl	a5b4 <PmLogPrint_@plt>
    c904:	e3a00000 	mov	r0, #0
    c908:	e28dd030 	add	sp, sp, #48	@ 0x30
    c90c:	e8bd87f0 	pop	{r4, r5, r6, r7, r8, r9, sl, pc}
    c910:	e3061248 	movw	r1, #25160	@ 0x6248
    c914:	e3a00000 	mov	r0, #0
    c918:	e3401001 	movt	r1, #1
    c91c:	e300217f 	movw	r2, #383	@ 0x17f
    c920:	e59f346c 	ldr	r3, [pc, #1132]	@ cd94 <activatePlugin+0x578>
    c924:	e30664a8 	movw	r6, #25768	@ 0x64a8
    c928:	e3406001 	movt	r6, #1
    c92c:	e58d6000 	str	r6, [sp]
    c930:	ebfff6d4 	bl	a488 <g_assertion_message_expr@plt>
    c934:	e3a00001 	mov	r0, #1
    c938:	eafffff2 	b	c908 <activatePlugin+0xec>
    c93c:	e3a00048 	mov	r0, #72	@ 0x48
    c940:	ebfff7bd 	bl	a83c <g_try_malloc0@plt>
    c944:	e2509000 	subs	r9, r0, #0
    c948:	0a00008b 	beq	cb7c <activatePlugin+0x360>
    c94c:	e5944000 	ldr	r4, [r4]
    c950:	e3540000 	cmp	r4, #0
    c954:	0a0000fc 	beq	cd4c <activatePlugin+0x530>
    c958:	e301aa78 	movw	sl, #6776	@ 0x1a78
    c95c:	e340a002 	movt	sl, #2
    c960:	e59a0000 	ldr	r0, [sl]
    c964:	e3500000 	cmp	r0, #0
    c968:	0a000002 	beq	c978 <activatePlugin+0x15c>
    c96c:	e5901000 	ldr	r1, [r0]
    c970:	e3510006 	cmp	r1, #6
    c974:	da000004 	ble	c98c <activatePlugin+0x170>
    c978:	e30622d4 	movw	r2, #25300	@ 0x62d4
    c97c:	e3a01007 	mov	r1, #7
    c980:	e3402001 	movt	r2, #1
    c984:	e59f340c 	ldr	r3, [pc, #1036]	@ cd98 <activatePlugin+0x57c>
    c988:	ebfff709 	bl	a5b4 <PmLogPrint_@plt>
    c98c:	e1a00004 	mov	r0, r4
    c990:	e3a01001 	mov	r1, #1
    c994:	ebfff6a9 	bl	a440 <dlopen@plt>
    c998:	e1a05000 	mov	r5, r0
    c99c:	e59a0000 	ldr	r0, [sl]
    c9a0:	e3500000 	cmp	r0, #0
    c9a4:	0a000002 	beq	c9b4 <activatePlugin+0x198>
    c9a8:	e5902000 	ldr	r2, [r0]
    c9ac:	e3520006 	cmp	r2, #6
    c9b0:	da000005 	ble	c9cc <activatePlugin+0x1b0>
    c9b4:	e30622e0 	movw	r2, #25312	@ 0x62e0
    c9b8:	e3a01007 	mov	r1, #7
    c9bc:	e3402001 	movt	r2, #1
    c9c0:	e59f33d0 	ldr	r3, [pc, #976]	@ cd98 <activatePlugin+0x57c>
    c9c4:	e58d4000 	str	r4, [sp]
    c9c8:	ebfff6f9 	bl	a5b4 <PmLogPrint_@plt>
    c9cc:	e3550000 	cmp	r5, #0
    c9d0:	0a0000ad 	beq	cc8c <activatePlugin+0x470>
    c9d4:	e1a00005 	mov	r0, r5
    c9d8:	e3061328 	movw	r1, #25384	@ 0x6328
    c9dc:	e3401001 	movt	r1, #1
    c9e0:	ebfff7b6 	bl	a8c0 <dlsym@plt>
    c9e4:	e3061338 	movw	r1, #25400	@ 0x6338
    c9e8:	e3401001 	movt	r1, #1
    c9ec:	e1a04000 	mov	r4, r0
    c9f0:	e1a00005 	mov	r0, r5
    c9f4:	ebfff7b1 	bl	a8c0 <dlsym@plt>
    c9f8:	e3540000 	cmp	r4, #0
    c9fc:	13500000 	cmpne	r0, #0
    ca00:	0a000075 	beq	cbdc <activatePlugin+0x3c0>
    ca04:	e589403c 	str	r4, [r9, #60]	@ 0x3c
    ca08:	e5890040 	str	r0, [r9, #64]	@ 0x40
    ca0c:	e5895044 	str	r5, [r9, #68]	@ 0x44
    ca10:	e59a0000 	ldr	r0, [sl]
    ca14:	e3500000 	cmp	r0, #0
    ca18:	0a000002 	beq	ca28 <activatePlugin+0x20c>
    ca1c:	e5904000 	ldr	r4, [r0]
    ca20:	e3540006 	cmp	r4, #6
    ca24:	da000004 	ble	ca3c <activatePlugin+0x220>
    ca28:	e3062378 	movw	r2, #25464	@ 0x6378
    ca2c:	e3a01007 	mov	r1, #7
    ca30:	e3402001 	movt	r2, #1
    ca34:	e59f3360 	ldr	r3, [pc, #864]	@ cd9c <activatePlugin+0x580>
    ca38:	ebfff6dd 	bl	a5b4 <PmLogPrint_@plt>
    ca3c:	e3017ac0 	movw	r7, #6848	@ 0x1ac0
    ca40:	e3407002 	movt	r7, #2
    ca44:	e3a03001 	mov	r3, #1
    ca48:	e5893000 	str	r3, [r9]
    ca4c:	e5971000 	ldr	r1, [r7]
    ca50:	e5915004 	ldr	r5, [r1, #4]
    ca54:	e3550000 	cmp	r5, #0
    ca58:	0a0000b3 	beq	cd2c <activatePlugin+0x510>
    ca5c:	e3017988 	movw	r7, #6536	@ 0x1988
    ca60:	e3407002 	movt	r7, #2
    ca64:	e5911000 	ldr	r1, [r1]
    ca68:	e2870030 	add	r0, r7, #48	@ 0x30
    ca6c:	e3a02008 	mov	r2, #8
    ca70:	ebfff627 	bl	a314 <strncpy@plt>
    ca74:	e59f1324 	ldr	r1, [pc, #804]	@ cda0 <activatePlugin+0x584>
    ca78:	e1a0400d 	mov	r4, sp
    ca7c:	e1a0e001 	mov	lr, r1
    ca80:	e8be000f 	ldm	lr!, {r0, r1, r2, r3}
    ca84:	e1a0c00e 	mov	ip, lr
    ca88:	e8a4000f 	stmia	r4!, {r0, r1, r2, r3}
    ca8c:	e1a05004 	mov	r5, r4
    ca90:	e8bc000f 	ldm	ip!, {r0, r1, r2, r3}
    ca94:	e8a5000f 	stmia	r5!, {r0, r1, r2, r3}
    ca98:	e89c000f 	ldm	ip, {r0, r1, r2, r3}
    ca9c:	e885000f 	stm	r5, {r0, r1, r2, r3}
    caa0:	e1a00009 	mov	r0, r9
    caa4:	e897000e 	ldm	r7, {r1, r2, r3}
    caa8:	e1a0e00f 	mov	lr, pc
    caac:	e599f03c 	ldr	pc, [r9, #60]	@ 0x3c
    cab0:	e3500000 	cmp	r0, #0
    cab4:	1a000083 	bne	ccc8 <activatePlugin+0x4ac>
    cab8:	e59a0000 	ldr	r0, [sl]
    cabc:	e3500000 	cmp	r0, #0
    cac0:	0a0000aa 	beq	cd70 <activatePlugin+0x554>
    cac4:	e5902000 	ldr	r2, [r0]
    cac8:	e3520005 	cmp	r2, #5
    cacc:	d2894004 	addle	r4, r9, #4
    cad0:	ca0000a6 	bgt	cd70 <activatePlugin+0x554>
    cad4:	e1a00008 	mov	r0, r8
    cad8:	e1a01004 	mov	r1, r4
    cadc:	e3a02021 	mov	r2, #33	@ 0x21
    cae0:	ebfff746 	bl	a800 <strncmp@plt>
    cae4:	e3500000 	cmp	r0, #0
    cae8:	05869000 	streq	r9, [r6]
    caec:	0affff90 	beq	c934 <activatePlugin+0x118>
    caf0:	e59a0000 	ldr	r0, [sl]
    caf4:	e3500000 	cmp	r0, #0
    caf8:	0a000002 	beq	cb08 <activatePlugin+0x2ec>
    cafc:	e590e000 	ldr	lr, [r0]
    cb00:	e35e0002 	cmp	lr, #2
    cb04:	da000006 	ble	cb24 <activatePlugin+0x308>
    cb08:	e30623f8 	movw	r2, #25592	@ 0x63f8
    cb0c:	e3a01003 	mov	r1, #3
    cb10:	e3402001 	movt	r2, #1
    cb14:	e59f3274 	ldr	r3, [pc, #628]	@ cd90 <activatePlugin+0x574>
    cb18:	e58d8000 	str	r8, [sp]
    cb1c:	e58d4004 	str	r4, [sp, #4]
    cb20:	ebfff6a3 	bl	a5b4 <PmLogPrint_@plt>
    cb24:	e1a0e00f 	mov	lr, pc
    cb28:	e599f040 	ldr	pc, [r9, #64]	@ 0x40
    cb2c:	e5990044 	ldr	r0, [r9, #68]	@ 0x44
    cb30:	ebfff61e 	bl	a3b0 <dlclose@plt>
    cb34:	e3500000 	cmp	r0, #0
    cb38:	0a00000d 	beq	cb74 <activatePlugin+0x358>
    cb3c:	e59a4000 	ldr	r4, [sl]
    cb40:	e3540000 	cmp	r4, #0
    cb44:	0a000002 	beq	cb54 <activatePlugin+0x338>
    cb48:	e5940000 	ldr	r0, [r4]
    cb4c:	e3500002 	cmp	r0, #2
    cb50:	da000007 	ble	cb74 <activatePlugin+0x358>
    cb54:	ebfff6f0 	bl	a71c <dlerror@plt>
    cb58:	e3062450 	movw	r2, #25680	@ 0x6450
    cb5c:	e3a01003 	mov	r1, #3
    cb60:	e3402001 	movt	r2, #1
    cb64:	e59f3224 	ldr	r3, [pc, #548]	@ cd90 <activatePlugin+0x574>
    cb68:	e58d0000 	str	r0, [sp]
    cb6c:	e1a00004 	mov	r0, r4
    cb70:	ebfff68f 	bl	a5b4 <PmLogPrint_@plt>
    cb74:	e3a02000 	mov	r2, #0
    cb78:	e5892044 	str	r2, [r9, #68]	@ 0x44
    cb7c:	e1a00009 	mov	r0, r9
    cb80:	ebfff59e 	bl	a200 <g_free@plt>
    cb84:	e3a00000 	mov	r0, #0
    cb88:	eaffff5e 	b	c908 <activatePlugin+0xec>
    cb8c:	ebfffeeb 	bl	c740 <findAgents>
    cb90:	e5960004 	ldr	r0, [r6, #4]
    cb94:	e3500000 	cmp	r0, #0
    cb98:	1affff3d 	bne	c894 <activatePlugin+0x78>
    cb9c:	e3061248 	movw	r1, #25160	@ 0x6248
    cba0:	e3a020fa 	mov	r2, #250	@ 0xfa
    cba4:	e3401001 	movt	r1, #1
    cba8:	e59f31f4 	ldr	r3, [pc, #500]	@ cda4 <activatePlugin+0x588>
    cbac:	e30692b8 	movw	r9, #25272	@ 0x62b8
    cbb0:	e3409001 	movt	r9, #1
    cbb4:	e58d9000 	str	r9, [sp]
    cbb8:	ebfff632 	bl	a488 <g_assertion_message_expr@plt>
    cbbc:	e3061248 	movw	r1, #25160	@ 0x6248
    cbc0:	e3a020f5 	mov	r2, #245	@ 0xf5
    cbc4:	e3401001 	movt	r1, #1
    cbc8:	e59f31d4 	ldr	r3, [pc, #468]	@ cda4 <activatePlugin+0x588>
    cbcc:	e30684c8 	movw	r8, #25800	@ 0x64c8
    cbd0:	e3408001 	movt	r8, #1
    cbd4:	e58d8000 	str	r8, [sp]
    cbd8:	ebfff62a 	bl	a488 <g_assertion_message_expr@plt>
    cbdc:	e59a4000 	ldr	r4, [sl]
    cbe0:	e3540000 	cmp	r4, #0
    cbe4:	0a000002 	beq	cbf4 <activatePlugin+0x3d8>
    cbe8:	e594c000 	ldr	ip, [r4]
    cbec:	e35c0002 	cmp	ip, #2
    cbf0:	da000007 	ble	cc14 <activatePlugin+0x3f8>
    cbf4:	ebfff6c8 	bl	a71c <dlerror@plt>
    cbf8:	e3062348 	movw	r2, #25416	@ 0x6348
    cbfc:	e3a01003 	mov	r1, #3
    cc00:	e3402001 	movt	r2, #1
    cc04:	e59f318c 	ldr	r3, [pc, #396]	@ cd98 <activatePlugin+0x57c>
    cc08:	e58d0000 	str	r0, [sp]
    cc0c:	e1a00004 	mov	r0, r4
    cc10:	ebfff667 	bl	a5b4 <PmLogPrint_@plt>
    cc14:	e1a00005 	mov	r0, r5
    cc18:	ebfff5e4 	bl	a3b0 <dlclose@plt>
    cc1c:	e3500000 	cmp	r0, #0
    cc20:	0a00000d 	beq	cc5c <activatePlugin+0x440>
    cc24:	e59a4000 	ldr	r4, [sl]
    cc28:	e3540000 	cmp	r4, #0
    cc2c:	0a000002 	beq	cc3c <activatePlugin+0x420>
    cc30:	e594e000 	ldr	lr, [r4]
    cc34:	e35e0002 	cmp	lr, #2
    cc38:	da000007 	ble	cc5c <activatePlugin+0x440>
    cc3c:	ebfff6b6 	bl	a71c <dlerror@plt>
    cc40:	e3062368 	movw	r2, #25448	@ 0x6368
    cc44:	e3a01003 	mov	r1, #3
    cc48:	e3402001 	movt	r2, #1
    cc4c:	e59f3144 	ldr	r3, [pc, #324]	@ cd98 <activatePlugin+0x57c>
    cc50:	e58d0000 	str	r0, [sp]
    cc54:	e1a00004 	mov	r0, r4
    cc58:	ebfff655 	bl	a5b4 <PmLogPrint_@plt>
    cc5c:	e59a0000 	ldr	r0, [sl]
    cc60:	e3500000 	cmp	r0, #0
    cc64:	0a000002 	beq	cc74 <activatePlugin+0x458>
    cc68:	e5903000 	ldr	r3, [r0]
    cc6c:	e3530002 	cmp	r3, #2
    cc70:	daffffc1 	ble	cb7c <activatePlugin+0x360>
    cc74:	e3a01003 	mov	r1, #3
    cc78:	e3062468 	movw	r2, #25704	@ 0x6468
    cc7c:	e59f310c 	ldr	r3, [pc, #268]	@ cd90 <activatePlugin+0x574>
    cc80:	e3402001 	movt	r2, #1
    cc84:	ebfff64a 	bl	a5b4 <PmLogPrint_@plt>
    cc88:	eaffffbb 	b	cb7c <activatePlugin+0x360>
    cc8c:	e59a4000 	ldr	r4, [sl]
    cc90:	e3540000 	cmp	r4, #0
    cc94:	0a000002 	beq	cca4 <activatePlugin+0x488>
    cc98:	e5940000 	ldr	r0, [r4]
    cc9c:	e3500002 	cmp	r0, #2
    cca0:	daffffed 	ble	cc5c <activatePlugin+0x440>
    cca4:	ebfff69c 	bl	a71c <dlerror@plt>
    cca8:	e3a01003 	mov	r1, #3
    ccac:	e3062308 	movw	r2, #25352	@ 0x6308
    ccb0:	e59f30e0 	ldr	r3, [pc, #224]	@ cd98 <activatePlugin+0x57c>
    ccb4:	e3402001 	movt	r2, #1
    ccb8:	e58d0000 	str	r0, [sp]
    ccbc:	e1a00004 	mov	r0, r4
    ccc0:	ebfff63b 	bl	a5b4 <PmLogPrint_@plt>
    ccc4:	eaffffe4 	b	cc5c <activatePlugin+0x440>
    ccc8:	e59a0000 	ldr	r0, [sl]
    cccc:	e3500000 	cmp	r0, #0
    ccd0:	0a000002 	beq	cce0 <activatePlugin+0x4c4>
    ccd4:	e5903000 	ldr	r3, [r0]
    ccd8:	e3530002 	cmp	r3, #2
    ccdc:	daffff92 	ble	cb2c <activatePlugin+0x310>
    cce0:	e3a01003 	mov	r1, #3
    cce4:	e30623c8 	movw	r2, #25544	@ 0x63c8
    cce8:	e59f30ac 	ldr	r3, [pc, #172]	@ cd9c <activatePlugin+0x580>
    ccec:	e3402001 	movt	r2, #1
    ccf0:	e3a0c000 	mov	ip, #0
    ccf4:	e58dc000 	str	ip, [sp]
    ccf8:	ebfff62d 	bl	a5b4 <PmLogPrint_@plt>
    ccfc:	e59a0000 	ldr	r0, [sl]
    cd00:	e3500000 	cmp	r0, #0
    cd04:	0a000002 	beq	cd14 <activatePlugin+0x4f8>
    cd08:	e5901000 	ldr	r1, [r0]
    cd0c:	e3510002 	cmp	r1, #2
    cd10:	daffff85 	ble	cb2c <activatePlugin+0x310>
    cd14:	e3062430 	movw	r2, #25648	@ 0x6430
    cd18:	e3a01003 	mov	r1, #3
    cd1c:	e3402001 	movt	r2, #1
    cd20:	e59f3068 	ldr	r3, [pc, #104]	@ cd90 <activatePlugin+0x574>
    cd24:	ebfff622 	bl	a5b4 <PmLogPrint_@plt>
    cd28:	eaffff7f 	b	cb2c <activatePlugin+0x310>
    cd2c:	e3017988 	movw	r7, #6536	@ 0x1988
    cd30:	e3407002 	movt	r7, #2
    cd34:	e306139c 	movw	r1, #25500	@ 0x639c
    cd38:	e2870030 	add	r0, r7, #48	@ 0x30
    cd3c:	e3401001 	movt	r1, #1
    cd40:	e3a02008 	mov	r2, #8
    cd44:	ebfff572 	bl	a314 <strncpy@plt>
    cd48:	eaffff49 	b	ca74 <activatePlugin+0x258>
    cd4c:	e3061248 	movw	r1, #25160	@ 0x6248
    cd50:	e1a00004 	mov	r0, r4
    cd54:	e3401001 	movt	r1, #1
    cd58:	e3a02043 	mov	r2, #67	@ 0x43
    cd5c:	e59f3044 	ldr	r3, [pc, #68]	@ cda8 <activatePlugin+0x58c>
    cd60:	e306a4d8 	movw	sl, #25816	@ 0x64d8
    cd64:	e340a001 	movt	sl, #1
    cd68:	e58da000 	str	sl, [sp]
    cd6c:	ebfff5c5 	bl	a488 <g_assertion_message_expr@plt>
    cd70:	e3a01006 	mov	r1, #6
    cd74:	e30623a4 	movw	r2, #25508	@ 0x63a4
    cd78:	e59f301c 	ldr	r3, [pc, #28]	@ cd9c <activatePlugin+0x580>
    cd7c:	e3402001 	movt	r2, #1
    cd80:	e2894004 	add	r4, r9, #4
    cd84:	e58d4000 	str	r4, [sp]
    cd88:	ebfff609 	bl	a5b4 <PmLogPrint_@plt>
    cd8c:	eaffff50 	b	cad4 <activatePlugin+0x2b8>
    cd90:	00016038 	.word	0x00016038
    cd94:	00016048 	.word	0x00016048
    cd98:	0001600c 	.word	0x0001600c
    cd9c:	00016020 	.word	0x00016020
    cda0:	00021994 	.word	0x00021994
    cda4:	00016058 	.word	0x00016058
    cda8:	00016078 	.word	0x00016078

0000cdac <getVpnAgentsList>:
    cdac:	e92d47f0 	push	{r4, r5, r6, r7, r8, r9, sl, lr}
    cdb0:	e2504000 	subs	r4, r0, #0
    cdb4:	e24dd008 	sub	sp, sp, #8
    cdb8:	0a000074 	beq	cf90 <getVpnAgentsList+0x1e4>
    cdbc:	e3018a90 	movw	r8, #6800	@ 0x1a90
    cdc0:	e3408002 	movt	r8, #2
    cdc4:	ebfffe5d 	bl	c740 <findAgents>
    cdc8:	e5980004 	ldr	r0, [r8, #4]
    cdcc:	e3500000 	cmp	r0, #0
    cdd0:	0a000076 	beq	cfb0 <getVpnAgentsList+0x204>
    cdd4:	ebfff54b 	bl	a308 <g_hash_table_get_keys@plt>
    cdd8:	e2509000 	subs	r9, r0, #0
    cddc:	01a00009 	moveq	r0, r9
    cde0:	0a000060 	beq	cf68 <getVpnAgentsList+0x1bc>
    cde4:	ebfff628 	bl	a68c <json_object_new_array@plt>
    cde8:	e30614e8 	movw	r1, #25832	@ 0x64e8
    cdec:	e3401001 	movt	r1, #1
    cdf0:	e1a07009 	mov	r7, r9
    cdf4:	e1a0a000 	mov	sl, r0
    cdf8:	e1a00004 	mov	r0, r4
    cdfc:	e1a0200a 	mov	r2, sl
    ce00:	ebfff5df 	bl	a584 <json_object_object_add@plt>
    ce04:	ea000002 	b	ce14 <getVpnAgentsList+0x68>
    ce08:	e5977004 	ldr	r7, [r7, #4]
    ce0c:	e3570000 	cmp	r7, #0
    ce10:	0a000051 	beq	cf5c <getVpnAgentsList+0x1b0>
    ce14:	ebfff67f 	bl	a818 <json_object_new_object@plt>
    ce18:	e1a06000 	mov	r6, r0
    ce1c:	e1a0000a 	mov	r0, sl
    ce20:	e1a01006 	mov	r1, r6
    ce24:	ebfff612 	bl	a674 <json_object_array_add@plt>
    ce28:	e5980004 	ldr	r0, [r8, #4]
    ce2c:	e5971000 	ldr	r1, [r7]
    ce30:	ebfff63c 	bl	a728 <g_hash_table_lookup@plt>
    ce34:	e2505000 	subs	r5, r0, #0
    ce38:	0a00004c 	beq	cf70 <getVpnAgentsList+0x1c4>
    ce3c:	e5950000 	ldr	r0, [r5]
    ce40:	ebfff527 	bl	a2e4 <json_object_new_string@plt>
    ce44:	e3051b44 	movw	r1, #23364	@ 0x5b44
    ce48:	e3401001 	movt	r1, #1
    ce4c:	e1a02000 	mov	r2, r0
    ce50:	e1a00006 	mov	r0, r6
    ce54:	ebfff5ca 	bl	a584 <json_object_object_add@plt>
    ce58:	e595000c 	ldr	r0, [r5, #12]
    ce5c:	ebfff520 	bl	a2e4 <json_object_new_string@plt>
    ce60:	e30614f4 	movw	r1, #25844	@ 0x64f4
    ce64:	e3401001 	movt	r1, #1
    ce68:	e1a02000 	mov	r2, r0
    ce6c:	e1a00006 	mov	r0, r6
    ce70:	ebfff5c3 	bl	a584 <json_object_object_add@plt>
    ce74:	e5953018 	ldr	r3, [r5, #24]
    ce78:	e3530000 	cmp	r3, #0
    ce7c:	0a000010 	beq	cec4 <getVpnAgentsList+0x118>
    ce80:	e5950004 	ldr	r0, [r5, #4]
    ce84:	ebfff564 	bl	a41c <g_string_new@plt>
    ce88:	e5952018 	ldr	r2, [r5, #24]
    ce8c:	e306112c 	movw	r1, #24876	@ 0x612c
    ce90:	e3401001 	movt	r1, #1
    ce94:	e1a04000 	mov	r4, r0
    ce98:	ebfff66d 	bl	a854 <g_string_append_printf@plt>
    ce9c:	e5940000 	ldr	r0, [r4]
    cea0:	ebfff50f 	bl	a2e4 <json_object_new_string@plt>
    cea4:	e3061504 	movw	r1, #25860	@ 0x6504
    cea8:	e3401001 	movt	r1, #1
    ceac:	e1a02000 	mov	r2, r0
    ceb0:	e1a00006 	mov	r0, r6
    ceb4:	ebfff5b2 	bl	a584 <json_object_object_add@plt>
    ceb8:	e1a00004 	mov	r0, r4
    cebc:	e3a01001 	mov	r1, #1
    cec0:	ebfff58b 	bl	a4f4 <g_string_free@plt>
    cec4:	e5950010 	ldr	r0, [r5, #16]
    cec8:	e3500000 	cmp	r0, #0
    cecc:	0a000010 	beq	cf14 <getVpnAgentsList+0x168>
    ced0:	e5950004 	ldr	r0, [r5, #4]
    ced4:	ebfff550 	bl	a41c <g_string_new@plt>
    ced8:	e5952010 	ldr	r2, [r5, #16]
    cedc:	e306112c 	movw	r1, #24876	@ 0x612c
    cee0:	e3401001 	movt	r1, #1
    cee4:	e1a04000 	mov	r4, r0
    cee8:	ebfff659 	bl	a854 <g_string_append_printf@plt>
    ceec:	e5940000 	ldr	r0, [r4]
    cef0:	ebfff4fb 	bl	a2e4 <json_object_new_string@plt>
    cef4:	e3061514 	movw	r1, #25876	@ 0x6514
    cef8:	e3401001 	movt	r1, #1
    cefc:	e1a02000 	mov	r2, r0
    cf00:	e1a00006 	mov	r0, r6
    cf04:	ebfff59e 	bl	a584 <json_object_object_add@plt>
    cf08:	e1a00004 	mov	r0, r4
    cf0c:	e3a01001 	mov	r1, #1
    cf10:	ebfff577 	bl	a4f4 <g_string_free@plt>
    cf14:	e5950014 	ldr	r0, [r5, #20]
    cf18:	e3500000 	cmp	r0, #0
    cf1c:	0affffb9 	beq	ce08 <getVpnAgentsList+0x5c>
    cf20:	ebfff579 	bl	a50c <json_tokener_parse@plt>
    cf24:	e3700efa 	cmn	r0, #4000	@ 0xfa0
    cf28:	e1a04000 	mov	r4, r0
    cf2c:	8affffb5 	bhi	ce08 <getVpnAgentsList+0x5c>
    cf30:	ebfff5ae 	bl	a5f0 <json_object_get@plt>
    cf34:	e3061524 	movw	r1, #25892	@ 0x6524
    cf38:	e3401001 	movt	r1, #1
    cf3c:	e1a02000 	mov	r2, r0
    cf40:	e1a00006 	mov	r0, r6
    cf44:	ebfff58e 	bl	a584 <json_object_object_add@plt>
    cf48:	e1a00004 	mov	r0, r4
    cf4c:	ebfff658 	bl	a8b4 <json_object_put@plt>
    cf50:	e5977004 	ldr	r7, [r7, #4]
    cf54:	e3570000 	cmp	r7, #0
    cf58:	1affffad 	bne	ce14 <getVpnAgentsList+0x68>
    cf5c:	e1a00009 	mov	r0, r9
    cf60:	ebfff506 	bl	a380 <g_list_free@plt>
    cf64:	e3a00001 	mov	r0, #1
    cf68:	e28dd008 	add	sp, sp, #8
    cf6c:	e8bd87f0 	pop	{r4, r5, r6, r7, r8, r9, sl, pc}
    cf70:	e3061248 	movw	r1, #25160	@ 0x6248
    cf74:	e300215e 	movw	r2, #350	@ 0x15e
    cf78:	e3401001 	movt	r1, #1
    cf7c:	e59f304c 	ldr	r3, [pc, #76]	@ cfd0 <getVpnAgentsList+0x224>
    cf80:	e3065544 	movw	r5, #25924	@ 0x6544
    cf84:	e3405001 	movt	r5, #1
    cf88:	e58d5000 	str	r5, [sp]
    cf8c:	ebfff53d 	bl	a488 <g_assertion_message_expr@plt>
    cf90:	e3061248 	movw	r1, #25160	@ 0x6248
    cf94:	e300214f 	movw	r2, #335	@ 0x14f
    cf98:	e3401001 	movt	r1, #1
    cf9c:	e59f302c 	ldr	r3, [pc, #44]	@ cfd0 <getVpnAgentsList+0x224>
    cfa0:	e306c538 	movw	ip, #25912	@ 0x6538
    cfa4:	e340c001 	movt	ip, #1
    cfa8:	e58dc000 	str	ip, [sp]
    cfac:	ebfff535 	bl	a488 <g_assertion_message_expr@plt>
    cfb0:	e3061248 	movw	r1, #25160	@ 0x6248
    cfb4:	e3002152 	movw	r2, #338	@ 0x152
    cfb8:	e3401001 	movt	r1, #1
    cfbc:	e59f300c 	ldr	r3, [pc, #12]	@ cfd0 <getVpnAgentsList+0x224>
    cfc0:	e30642b8 	movw	r4, #25272	@ 0x62b8
    cfc4:	e3404001 	movt	r4, #1
    cfc8:	e58d4000 	str	r4, [sp]
    cfcc:	ebfff52d 	bl	a488 <g_assertion_message_expr@plt>
    cfd0:	0001608c 	.word	0x0001608c

0000cfd4 <acceptPluginEula>:
    cfd4:	e92d4070 	push	{r4, r5, r6, lr}
    cfd8:	e3014a90 	movw	r4, #6800	@ 0x1a90
    cfdc:	e3404002 	movt	r4, #2
    cfe0:	e24dd010 	sub	sp, sp, #16
    cfe4:	e1a05000 	mov	r5, r0
    cfe8:	e5943004 	ldr	r3, [r4, #4]
    cfec:	e3530000 	cmp	r3, #0
    cff0:	0a00005f 	beq	d174 <acceptPluginEula+0x1a0>
    cff4:	e5940004 	ldr	r0, [r4, #4]
    cff8:	e1a01005 	mov	r1, r5
    cffc:	ebfff5c9 	bl	a728 <g_hash_table_lookup@plt>
    d000:	e2504000 	subs	r4, r0, #0
    d004:	01a00004 	moveq	r0, r4
    d008:	0a000018 	beq	d070 <acceptPluginEula+0x9c>
    d00c:	e5940018 	ldr	r0, [r4, #24]
    d010:	ebfff47a 	bl	a200 <g_free@plt>
    d014:	e28d1010 	add	r1, sp, #16
    d018:	e3a00000 	mov	r0, #0
    d01c:	e5840018 	str	r0, [r4, #24]
    d020:	e5210004 	str	r0, [r1, #-4]!
    d024:	e3060190 	movw	r0, #24976	@ 0x6190
    d028:	e3400001 	movt	r0, #1
    d02c:	ebfff4c7 	bl	a350 <LPAppGetHandle@plt>
    d030:	e2503000 	subs	r3, r0, #0
    d034:	0a00000f 	beq	d078 <acceptPluginEula+0xa4>
    d038:	e3011a78 	movw	r1, #6776	@ 0x1a78
    d03c:	e3401002 	movt	r1, #2
    d040:	e5910000 	ldr	r0, [r1]
    d044:	e3500000 	cmp	r0, #0
    d048:	0a000002 	beq	d058 <acceptPluginEula+0x84>
    d04c:	e5902000 	ldr	r2, [r0]
    d050:	e3520002 	cmp	r2, #2
    d054:	da000004 	ble	d06c <acceptPluginEula+0x98>
    d058:	e3062594 	movw	r2, #26004	@ 0x6594
    d05c:	e3a01003 	mov	r1, #3
    d060:	e3402001 	movt	r2, #1
    d064:	e59f3188 	ldr	r3, [pc, #392]	@ d1f4 <acceptPluginEula+0x220>
    d068:	ebfff551 	bl	a5b4 <PmLogPrint_@plt>
    d06c:	e3a00001 	mov	r0, #1
    d070:	e28dd010 	add	sp, sp, #16
    d074:	e8bd8070 	pop	{r4, r5, r6, pc}
    d078:	e59d000c 	ldr	r0, [sp, #12]
    d07c:	e1a01005 	mov	r1, r5
    d080:	e28d2008 	add	r2, sp, #8
    d084:	e58d3008 	str	r3, [sp, #8]
    d088:	ebfff504 	bl	a4a0 <LPAppCopyValue@plt>
    d08c:	e3500000 	cmp	r0, #0
    d090:	1a000013 	bne	d0e4 <acceptPluginEula+0x110>
    d094:	e59d0008 	ldr	r0, [sp, #8]
    d098:	e3500000 	cmp	r0, #0
    d09c:	0a000010 	beq	d0e4 <acceptPluginEula+0x110>
    d0a0:	ebfff519 	bl	a50c <json_tokener_parse@plt>
    d0a4:	e2501000 	subs	r1, r0, #0
    d0a8:	13a01001 	movne	r1, #1
    d0ac:	e3700efa 	cmn	r0, #4000	@ 0xfa0
    d0b0:	e1a04000 	mov	r4, r0
    d0b4:	83a01000 	movhi	r1, #0
    d0b8:	e3510000 	cmp	r1, #0
    d0bc:	0a000008 	beq	d0e4 <acceptPluginEula+0x110>
    d0c0:	e30611a0 	movw	r1, #24992	@ 0x61a0
    d0c4:	e3401001 	movt	r1, #1
    d0c8:	ebfff56c 	bl	a680 <json_object_object_get@plt>
    d0cc:	e3500000 	cmp	r0, #0
    d0d0:	0a000003 	beq	d0e4 <acceptPluginEula+0x110>
    d0d4:	e30611a0 	movw	r1, #24992	@ 0x61a0
    d0d8:	e1a00004 	mov	r0, r4
    d0dc:	e3401001 	movt	r1, #1
    d0e0:	ebfff4dc 	bl	a458 <json_object_object_del@plt>
    d0e4:	ebfff5cb 	bl	a818 <json_object_new_object@plt>
    d0e8:	e2506000 	subs	r6, r0, #0
    d0ec:	0a000032 	beq	d1bc <acceptPluginEula+0x1e8>
    d0f0:	e3a00001 	mov	r0, #1
    d0f4:	ebfff5be 	bl	a7f4 <json_object_new_boolean@plt>
    d0f8:	e30611a0 	movw	r1, #24992	@ 0x61a0
    d0fc:	e3401001 	movt	r1, #1
    d100:	e1a02000 	mov	r2, r0
    d104:	e1a00006 	mov	r0, r6
    d108:	ebfff51d 	bl	a584 <json_object_object_add@plt>
    d10c:	e1a00006 	mov	r0, r6
    d110:	e59d400c 	ldr	r4, [sp, #12]
    d114:	ebfff5ef 	bl	a8d8 <json_object_to_json_string@plt>
    d118:	e1a01005 	mov	r1, r5
    d11c:	e1a02000 	mov	r2, r0
    d120:	e1a00004 	mov	r0, r4
    d124:	ebfff55b 	bl	a698 <LPAppSetValue@plt>
    d128:	e3500000 	cmp	r0, #0
    d12c:	0a000007 	beq	d150 <acceptPluginEula+0x17c>
    d130:	e3012a78 	movw	r2, #6776	@ 0x1a78
    d134:	e3402002 	movt	r2, #2
    d138:	e5920000 	ldr	r0, [r2]
    d13c:	e3500000 	cmp	r0, #0
    d140:	0a000017 	beq	d1a4 <acceptPluginEula+0x1d0>
    d144:	e590c000 	ldr	ip, [r0]
    d148:	e35c0002 	cmp	ip, #2
    d14c:	ca000014 	bgt	d1a4 <acceptPluginEula+0x1d0>
    d150:	e1a00006 	mov	r0, r6
    d154:	ebfff5d6 	bl	a8b4 <json_object_put@plt>
    d158:	e3a01001 	mov	r1, #1
    d15c:	e59d000c 	ldr	r0, [sp, #12]
    d160:	ebfff59d 	bl	a7dc <LPAppFreeHandle@plt>
    d164:	e59d0008 	ldr	r0, [sp, #8]
    d168:	ebfff424 	bl	a200 <g_free@plt>
    d16c:	e3a00001 	mov	r0, #1
    d170:	eaffffbe 	b	d070 <acceptPluginEula+0x9c>
    d174:	ebfffd71 	bl	c740 <findAgents>
    d178:	e5940004 	ldr	r0, [r4, #4]
    d17c:	e3500000 	cmp	r0, #0
    d180:	1affff9b 	bne	cff4 <acceptPluginEula+0x20>
    d184:	e3061248 	movw	r1, #25160	@ 0x6248
    d188:	e3002117 	movw	r2, #279	@ 0x117
    d18c:	e3401001 	movt	r1, #1
    d190:	e59f3060 	ldr	r3, [pc, #96]	@ d1f8 <acceptPluginEula+0x224>
    d194:	e30642b8 	movw	r4, #25272	@ 0x62b8
    d198:	e3404001 	movt	r4, #1
    d19c:	e58d4000 	str	r4, [sp]
    d1a0:	ebfff4b8 	bl	a488 <g_assertion_message_expr@plt>
    d1a4:	e3062550 	movw	r2, #25936	@ 0x6550
    d1a8:	e3a01003 	mov	r1, #3
    d1ac:	e3402001 	movt	r2, #1
    d1b0:	e59f303c 	ldr	r3, [pc, #60]	@ d1f4 <acceptPluginEula+0x220>
    d1b4:	ebfff4fe 	bl	a5b4 <PmLogPrint_@plt>
    d1b8:	eaffffe4 	b	d150 <acceptPluginEula+0x17c>
    d1bc:	e301ea78 	movw	lr, #6776	@ 0x1a78
    d1c0:	e340e002 	movt	lr, #2
    d1c4:	e59e0000 	ldr	r0, [lr]
    d1c8:	e3500000 	cmp	r0, #0
    d1cc:	0a000002 	beq	d1dc <acceptPluginEula+0x208>
    d1d0:	e5903000 	ldr	r3, [r0]
    d1d4:	e3530002 	cmp	r3, #2
    d1d8:	daffffde 	ble	d158 <acceptPluginEula+0x184>
    d1dc:	e3062570 	movw	r2, #25968	@ 0x6570
    d1e0:	e3a01003 	mov	r1, #3
    d1e4:	e3402001 	movt	r2, #1
    d1e8:	e59f3004 	ldr	r3, [pc, #4]	@ d1f4 <acceptPluginEula+0x220>
    d1ec:	ebfff4f0 	bl	a5b4 <PmLogPrint_@plt>
    d1f0:	eaffffd8 	b	d158 <acceptPluginEula+0x184>
    d1f4:	000160a0 	.word	0x000160a0
    d1f8:	000160b4 	.word	0x000160b4

0000d1fc <lhGenStdErrReturn>:
    d1fc:	e92d41f0 	push	{r4, r5, r6, r7, r8, lr}
    d200:	e2505000 	subs	r5, r0, #0
    d204:	e1a04001 	mov	r4, r1
    d208:	e1a06002 	mov	r6, r2
    d20c:	e1a07003 	mov	r7, r3
    d210:	08bd81f0 	popeq	{r4, r5, r6, r7, r8, pc}
    d214:	e2510000 	subs	r0, r1, #0
    d218:	13a00001 	movne	r0, #1
    d21c:	ebfff574 	bl	a7f4 <json_object_new_boolean@plt>
    d220:	e30615c0 	movw	r1, #26048	@ 0x65c0
    d224:	e3401001 	movt	r1, #1
    d228:	e1a02000 	mov	r2, r0
    d22c:	e1a00005 	mov	r0, r5
    d230:	ebfff4d3 	bl	a584 <json_object_object_add@plt>
    d234:	e3540000 	cmp	r4, #0
    d238:	18bd81f0 	popne	{r4, r5, r6, r7, r8, pc}
    d23c:	e1a00006 	mov	r0, r6
    d240:	ebfff4f6 	bl	a620 <json_object_new_int@plt>
    d244:	e30615cc 	movw	r1, #26060	@ 0x65cc
    d248:	e3401001 	movt	r1, #1
    d24c:	e1a02000 	mov	r2, r0
    d250:	e1a00005 	mov	r0, r5
    d254:	ebfff4ca 	bl	a584 <json_object_object_add@plt>
    d258:	e3570000 	cmp	r7, #0
    d25c:	08bd81f0 	popeq	{r4, r5, r6, r7, r8, pc}
    d260:	e1a00007 	mov	r0, r7
    d264:	ebfff41e 	bl	a2e4 <json_object_new_string@plt>
    d268:	e30615d8 	movw	r1, #26072	@ 0x65d8
    d26c:	e3401001 	movt	r1, #1
    d270:	e1a02000 	mov	r2, r0
    d274:	e1a00005 	mov	r0, r5
    d278:	e8bd41f0 	pop	{r4, r5, r6, r7, r8, lr}
    d27c:	eafff4c0 	b	a584 <json_object_object_add@plt>

0000d280 <lhLogError>:
    d280:	e3013a78 	movw	r3, #6776	@ 0x1a78
    d284:	e3403002 	movt	r3, #2
    d288:	e92d4030 	push	{r4, r5, lr}
    d28c:	e1a01000 	mov	r1, r0
    d290:	e5930000 	ldr	r0, [r3]
    d294:	e24dd014 	sub	sp, sp, #20
    d298:	e3500000 	cmp	r0, #0
    d29c:	0a000002 	beq	d2ac <lhLogError+0x2c>
    d2a0:	e5902000 	ldr	r2, [r0]
    d2a4:	e3520002 	cmp	r2, #2
    d2a8:	da00000b 	ble	d2dc <lhLogError+0x5c>
    d2ac:	e591500c 	ldr	r5, [r1, #12]
    d2b0:	e30625e4 	movw	r2, #26084	@ 0x65e4
    d2b4:	e5914004 	ldr	r4, [r1, #4]
    d2b8:	e3402001 	movt	r2, #1
    d2bc:	e591e010 	ldr	lr, [r1, #16]
    d2c0:	e591c008 	ldr	ip, [r1, #8]
    d2c4:	e5913000 	ldr	r3, [r1]
    d2c8:	e3a01003 	mov	r1, #3
    d2cc:	e88d4010 	stm	sp, {r4, lr}
    d2d0:	e58dc008 	str	ip, [sp, #8]
    d2d4:	e58d500c 	str	r5, [sp, #12]
    d2d8:	ebfff4b5 	bl	a5b4 <PmLogPrint_@plt>
    d2dc:	e28dd014 	add	sp, sp, #20
    d2e0:	e8bd8030 	pop	{r4, r5, pc}

0000d2e4 <lhReply>:
    d2e4:	e92d40f0 	push	{r4, r5, r6, r7, lr}
    d2e8:	e24dd02c 	sub	sp, sp, #44	@ 0x2c
    d2ec:	e28d500c 	add	r5, sp, #12
    d2f0:	e1a06000 	mov	r6, r0
    d2f4:	e1a04001 	mov	r4, r1
    d2f8:	e1a07002 	mov	r7, r2
    d2fc:	e1a00005 	mov	r0, r5
    d300:	ebfff517 	bl	a764 <LSErrorInit@plt>
    d304:	e3013a78 	movw	r3, #6776	@ 0x1a78
    d308:	e3403002 	movt	r3, #2
    d30c:	e5930000 	ldr	r0, [r3]
    d310:	e3500000 	cmp	r0, #0
    d314:	0a000010 	beq	d35c <lhReply+0x78>
    d318:	e5901000 	ldr	r1, [r0]
    d31c:	e3510006 	cmp	r1, #6
    d320:	ca00000d 	bgt	d35c <lhReply+0x78>
    d324:	e1a01004 	mov	r1, r4
    d328:	e1a00006 	mov	r0, r6
    d32c:	e1a02007 	mov	r2, r7
    d330:	e1a03005 	mov	r3, r5
    d334:	ebfff3ae 	bl	a1f4 <LSMessageReply@plt>
    d338:	e2504000 	subs	r4, r0, #0
    d33c:	1a000003 	bne	d350 <lhReply+0x6c>
    d340:	e1a00005 	mov	r0, r5
    d344:	ebffffcd 	bl	d280 <lhLogError>
    d348:	e1a00005 	mov	r0, r5
    d34c:	ebfff405 	bl	a368 <LSErrorFree@plt>
    d350:	e1a00004 	mov	r0, r4
    d354:	e28dd02c 	add	sp, sp, #44	@ 0x2c
    d358:	e8bd80f0 	pop	{r4, r5, r6, r7, pc}
    d35c:	e306260c 	movw	r2, #26124	@ 0x660c
    d360:	e30635b0 	movw	r3, #26032	@ 0x65b0
    d364:	e3402001 	movt	r2, #1
    d368:	e3403001 	movt	r3, #1
    d36c:	e3a01007 	mov	r1, #7
    d370:	e58d4000 	str	r4, [sp]
    d374:	ebfff48e 	bl	a5b4 <PmLogPrint_@plt>
    d378:	eaffffe9 	b	d324 <lhReply+0x40>

0000d37c <lhSend>:
    d37c:	e92d41f0 	push	{r4, r5, r6, r7, r8, lr}
    d380:	e24dd030 	sub	sp, sp, #48	@ 0x30
    d384:	e28d5014 	add	r5, sp, #20
    d388:	e1a04000 	mov	r4, r0
    d38c:	e1a07003 	mov	r7, r3
    d390:	e1a06001 	mov	r6, r1
    d394:	e1a00005 	mov	r0, r5
    d398:	e1a08002 	mov	r8, r2
    d39c:	ebfff4f0 	bl	a764 <LSErrorInit@plt>
    d3a0:	e3013a78 	movw	r3, #6776	@ 0x1a78
    d3a4:	e3403002 	movt	r3, #2
    d3a8:	e5930000 	ldr	r0, [r3]
    d3ac:	e3500000 	cmp	r0, #0
    d3b0:	0a000015 	beq	d40c <lhSend+0x90>
    d3b4:	e5901000 	ldr	r1, [r0]
    d3b8:	e3510006 	cmp	r1, #6
    d3bc:	ca000012 	bgt	d40c <lhSend+0x90>
    d3c0:	e301ea98 	movw	lr, #6808	@ 0x1a98
    d3c4:	e340e002 	movt	lr, #2
    d3c8:	e1a01004 	mov	r1, r4
    d3cc:	e1a02006 	mov	r2, r6
    d3d0:	e59e0000 	ldr	r0, [lr]
    d3d4:	e1a03008 	mov	r3, r8
    d3d8:	e3a0c000 	mov	ip, #0
    d3dc:	e88d1080 	stm	sp, {r7, ip}
    d3e0:	e58d5008 	str	r5, [sp, #8]
    d3e4:	ebfff460 	bl	a56c <LSCall@plt>
    d3e8:	e2504000 	subs	r4, r0, #0
    d3ec:	1a000003 	bne	d400 <lhSend+0x84>
    d3f0:	e1a00005 	mov	r0, r5
    d3f4:	ebffffa1 	bl	d280 <lhLogError>
    d3f8:	e1a00005 	mov	r0, r5
    d3fc:	ebfff3d9 	bl	a368 <LSErrorFree@plt>
    d400:	e1a00004 	mov	r0, r4
    d404:	e28dd030 	add	sp, sp, #48	@ 0x30
    d408:	e8bd81f0 	pop	{r4, r5, r6, r7, r8, pc}
    d40c:	e3062630 	movw	r2, #26160	@ 0x6630
    d410:	e3a01007 	mov	r1, #7
    d414:	e3402001 	movt	r2, #1
    d418:	e59f3008 	ldr	r3, [pc, #8]	@ d428 <lhSend+0xac>
    d41c:	e58d4000 	str	r4, [sp]
    d420:	ebfff463 	bl	a5b4 <PmLogPrint_@plt>
    d424:	eaffffe5 	b	d3c0 <lhSend+0x44>
    d428:	000165b8 	.word	0x000165b8

0000d42c <lhNotifySubscribers>:
    d42c:	e92d4070 	push	{r4, r5, r6, lr}
    d430:	e24dd020 	sub	sp, sp, #32
    d434:	e28d6004 	add	r6, sp, #4
    d438:	e1a04000 	mov	r4, r0
    d43c:	e1a05001 	mov	r5, r1
    d440:	e1a00006 	mov	r0, r6
    d444:	ebfff4c6 	bl	a764 <LSErrorInit@plt>
    d448:	e301ca98 	movw	ip, #6808	@ 0x1a98
    d44c:	e340c002 	movt	ip, #2
    d450:	e1a01004 	mov	r1, r4
    d454:	e1a02005 	mov	r2, r5
    d458:	e1a03006 	mov	r3, r6
    d45c:	e59c0000 	ldr	r0, [ip]
    d460:	ebfff495 	bl	a6bc <LSSubscriptionReply@plt>
    d464:	e2504000 	subs	r4, r0, #0
    d468:	1a000003 	bne	d47c <lhNotifySubscribers+0x50>
    d46c:	e1a00006 	mov	r0, r6
    d470:	ebffff82 	bl	d280 <lhLogError>
    d474:	e1a00006 	mov	r0, r6
    d478:	ebfff3ba 	bl	a368 <LSErrorFree@plt>
    d47c:	e1a00004 	mov	r0, r4
    d480:	e28dd020 	add	sp, sp, #32
    d484:	e8bd8070 	pop	{r4, r5, r6, pc}

0000d488 <lhSvcRegisterCategories>:
    d488:	e92d4070 	push	{r4, r5, r6, lr}
    d48c:	e24dd028 	sub	sp, sp, #40	@ 0x28
    d490:	e28d600c 	add	r6, sp, #12
    d494:	e1a04000 	mov	r4, r0
    d498:	e1a05001 	mov	r5, r1
    d49c:	e1a00006 	mov	r0, r6
    d4a0:	ebfff4af 	bl	a764 <LSErrorInit@plt>
    d4a4:	e3013a98 	movw	r3, #6808	@ 0x1a98
    d4a8:	e3403002 	movt	r3, #2
    d4ac:	e3a0c000 	mov	ip, #0
    d4b0:	e1a01004 	mov	r1, r4
    d4b4:	e1a02005 	mov	r2, r5
    d4b8:	e5930000 	ldr	r0, [r3]
    d4bc:	e1a0300c 	mov	r3, ip
    d4c0:	e58dc000 	str	ip, [sp]
    d4c4:	e58d6004 	str	r6, [sp, #4]
    d4c8:	ebfff39a 	bl	a338 <LSRegisterCategory@plt>
    d4cc:	e2504000 	subs	r4, r0, #0
    d4d0:	1a000003 	bne	d4e4 <lhSvcRegisterCategories+0x5c>
    d4d4:	e1a00006 	mov	r0, r6
    d4d8:	ebffff68 	bl	d280 <lhLogError>
    d4dc:	e1a00006 	mov	r0, r6
    d4e0:	ebfff3a0 	bl	a368 <LSErrorFree@plt>
    d4e4:	e1a00004 	mov	r0, r4
    d4e8:	e28dd028 	add	sp, sp, #40	@ 0x28
    d4ec:	e8bd8070 	pop	{r4, r5, r6, pc}

0000d4f0 <lhWatchServiceStatus>:
    d4f0:	e92d4070 	push	{r4, r5, r6, lr}
    d4f4:	e24dd028 	sub	sp, sp, #40	@ 0x28
    d4f8:	e28d600c 	add	r6, sp, #12
    d4fc:	e1a04000 	mov	r4, r0
    d500:	e1a05001 	mov	r5, r1
    d504:	e1a00006 	mov	r0, r6
    d508:	ebfff495 	bl	a764 <LSErrorInit@plt>
    d50c:	e301ca98 	movw	ip, #6808	@ 0x1a98
    d510:	e340c002 	movt	ip, #2
    d514:	e1a01004 	mov	r1, r4
    d518:	e1a02005 	mov	r2, r5
    d51c:	e3a03000 	mov	r3, #0
    d520:	e59c0000 	ldr	r0, [ip]
    d524:	e58d6000 	str	r6, [sp]
    d528:	ebfff3f4 	bl	a500 <LSRegisterServerStatus@plt>
    d52c:	e2504000 	subs	r4, r0, #0
    d530:	1a000003 	bne	d544 <lhWatchServiceStatus+0x54>
    d534:	e1a00006 	mov	r0, r6
    d538:	ebffff50 	bl	d280 <lhLogError>
    d53c:	e1a00006 	mov	r0, r6
    d540:	ebfff388 	bl	a368 <LSErrorFree@plt>
    d544:	e1a00004 	mov	r0, r4
    d548:	e28dd028 	add	sp, sp, #40	@ 0x28
    d54c:	e8bd8070 	pop	{r4, r5, r6, pc}

0000d550 <lhSvcUnregister>:
    d550:	e92d4070 	push	{r4, r5, r6, lr}
    d554:	e24dd020 	sub	sp, sp, #32
    d558:	e28d5004 	add	r5, sp, #4
    d55c:	e3014a98 	movw	r4, #6808	@ 0x1a98
    d560:	e3404002 	movt	r4, #2
    d564:	e1a00005 	mov	r0, r5
    d568:	ebfff47d 	bl	a764 <LSErrorInit@plt>
    d56c:	e5940000 	ldr	r0, [r4]
    d570:	e3500000 	cmp	r0, #0
    d574:	03a06001 	moveq	r6, #1
    d578:	0a000005 	beq	d594 <lhSvcUnregister+0x44>
    d57c:	e1a01005 	mov	r1, r5
    d580:	ebfff375 	bl	a35c <LSUnregister@plt>
    d584:	e2506000 	subs	r6, r0, #0
    d588:	0a000004 	beq	d5a0 <lhSvcUnregister+0x50>
    d58c:	e3a03000 	mov	r3, #0
    d590:	e5843000 	str	r3, [r4]
    d594:	e1a00006 	mov	r0, r6
    d598:	e28dd020 	add	sp, sp, #32
    d59c:	e8bd8070 	pop	{r4, r5, r6, pc}
    d5a0:	e1a00005 	mov	r0, r5
    d5a4:	ebffff35 	bl	d280 <lhLogError>
    d5a8:	e1a00005 	mov	r0, r5
    d5ac:	ebfff36d 	bl	a368 <LSErrorFree@plt>
    d5b0:	eafffff5 	b	d58c <lhSvcUnregister+0x3c>

0000d5b4 <lhSvcRegister>:
    d5b4:	e92d40f0 	push	{r4, r5, r6, r7, lr}
    d5b8:	e2517000 	subs	r7, r1, #0
    d5bc:	e24dd024 	sub	sp, sp, #36	@ 0x24
    d5c0:	e1a06000 	mov	r6, r0
    d5c4:	0a000012 	beq	d614 <lhSvcRegister+0x60>
    d5c8:	e28d5004 	add	r5, sp, #4
    d5cc:	e3014a98 	movw	r4, #6808	@ 0x1a98
    d5d0:	e3404002 	movt	r4, #2
    d5d4:	e1a00005 	mov	r0, r5
    d5d8:	ebfff461 	bl	a764 <LSErrorInit@plt>
    d5dc:	e1a00006 	mov	r0, r6
    d5e0:	e1a01004 	mov	r1, r4
    d5e4:	e1a02005 	mov	r2, r5
    d5e8:	ebfff43c 	bl	a6e0 <LSRegister@plt>
    d5ec:	e3500000 	cmp	r0, #0
    d5f0:	0a00000a 	beq	d620 <lhSvcRegister+0x6c>
    d5f4:	e1a00005 	mov	r0, r5
    d5f8:	ebfff459 	bl	a764 <LSErrorInit@plt>
    d5fc:	e5940000 	ldr	r0, [r4]
    d600:	e1a01007 	mov	r1, r7
    d604:	e1a02005 	mov	r2, r5
    d608:	ebfff2f6 	bl	a1e8 <LSGmainAttach@plt>
    d60c:	e2504000 	subs	r4, r0, #0
    d610:	0a000008 	beq	d638 <lhSvcRegister+0x84>
    d614:	e3a00001 	mov	r0, #1
    d618:	e28dd024 	add	sp, sp, #36	@ 0x24
    d61c:	e8bd80f0 	pop	{r4, r5, r6, r7, pc}
    d620:	e1a00005 	mov	r0, r5
    d624:	ebffff15 	bl	d280 <lhLogError>
    d628:	e1a00005 	mov	r0, r5
    d62c:	ebfff34d 	bl	a368 <LSErrorFree@plt>
    d630:	e3a00001 	mov	r0, #1
    d634:	eafffff7 	b	d618 <lhSvcRegister+0x64>
    d638:	e1a00005 	mov	r0, r5
    d63c:	ebffff0f 	bl	d280 <lhLogError>
    d640:	e1a00005 	mov	r0, r5
    d644:	ebfff347 	bl	a368 <LSErrorFree@plt>
    d648:	ebffffc0 	bl	d550 <lhSvcUnregister>
    d64c:	e1a00004 	mov	r0, r4
    d650:	eafffff0 	b	d618 <lhSvcRegister+0x64>

0000d654 <handleVpnAppManagerResponse>:
    d654:	e52de004 	push	{lr}		@ (str lr, [sp, #-4]!)
    d658:	e1a00001 	mov	r0, r1
    d65c:	e24dd00c 	sub	sp, sp, #12
    d660:	ebfff3d0 	bl	a5a8 <LSMessageGetPayload@plt>
    d664:	e3013a78 	movw	r3, #6776	@ 0x1a78
    d668:	e3403002 	movt	r3, #2
    d66c:	e1a0e000 	mov	lr, r0
    d670:	e5930000 	ldr	r0, [r3]
    d674:	e3500000 	cmp	r0, #0
    d678:	0a000002 	beq	d688 <handleVpnAppManagerResponse+0x34>
    d67c:	e5901000 	ldr	r1, [r0]
    d680:	e3510006 	cmp	r1, #6
    d684:	da00000a 	ble	d6b4 <handleVpnAppManagerResponse+0x60>
    d688:	e35e0000 	cmp	lr, #0
    d68c:	e30629a0 	movw	r2, #27040	@ 0x69a0
    d690:	e3063650 	movw	r3, #26192	@ 0x6650
    d694:	e3402001 	movt	r2, #1
    d698:	e3403001 	movt	r3, #1
    d69c:	e3a01007 	mov	r1, #7
    d6a0:	e305ce80 	movw	ip, #24192	@ 0x5e80
    d6a4:	e340c001 	movt	ip, #1
    d6a8:	11a0c00e 	movne	ip, lr
    d6ac:	e58dc000 	str	ip, [sp]
    d6b0:	ebfff3bf 	bl	a5b4 <PmLogPrint_@plt>
    d6b4:	e3a00001 	mov	r0, #1
    d6b8:	e28dd00c 	add	sp, sp, #12
    d6bc:	e8bd8000 	ldmfd	sp!, {pc}

0000d6c0 <extractStringFromJsonObj>:
    d6c0:	e92d4010 	push	{r4, lr}
    d6c4:	e24dd008 	sub	sp, sp, #8
    d6c8:	e1a04001 	mov	r4, r1
    d6cc:	ebfff3eb 	bl	a680 <json_object_object_get@plt>
    d6d0:	e3500000 	cmp	r0, #0
    d6d4:	0a000016 	beq	d734 <extractStringFromJsonObj+0x74>
    d6d8:	ebfff34c 	bl	a410 <json_object_get_string@plt>
    d6dc:	e2503000 	subs	r3, r0, #0
    d6e0:	0a000002 	beq	d6f0 <extractStringFromJsonObj+0x30>
    d6e4:	e5d33000 	ldrb	r3, [r3]
    d6e8:	e3530000 	cmp	r3, #0
    d6ec:	1a00001f 	bne	d770 <extractStringFromJsonObj+0xb0>
    d6f0:	e3011a78 	movw	r1, #6776	@ 0x1a78
    d6f4:	e3401002 	movt	r1, #2
    d6f8:	e5910000 	ldr	r0, [r1]
    d6fc:	e3500000 	cmp	r0, #0
    d700:	0a000002 	beq	d710 <extractStringFromJsonObj+0x50>
    d704:	e5902000 	ldr	r2, [r0]
    d708:	e3520002 	cmp	r2, #2
    d70c:	da000005 	ble	d728 <extractStringFromJsonObj+0x68>
    d710:	e30629dc 	movw	r2, #27100	@ 0x69dc
    d714:	e3a01003 	mov	r1, #3
    d718:	e3402001 	movt	r2, #1
    d71c:	e59f3058 	ldr	r3, [pc, #88]	@ d77c <extractStringFromJsonObj+0xbc>
    d720:	e58d4000 	str	r4, [sp]
    d724:	ebfff3a2 	bl	a5b4 <PmLogPrint_@plt>
    d728:	e3a00000 	mov	r0, #0
    d72c:	e28dd008 	add	sp, sp, #8
    d730:	e8bd8010 	pop	{r4, pc}
    d734:	e301ca78 	movw	ip, #6776	@ 0x1a78
    d738:	e340c002 	movt	ip, #2
    d73c:	e59c0000 	ldr	r0, [ip]
    d740:	e3500000 	cmp	r0, #0
    d744:	0a000002 	beq	d754 <extractStringFromJsonObj+0x94>
    d748:	e590e000 	ldr	lr, [r0]
    d74c:	e35e0002 	cmp	lr, #2
    d750:	dafffff4 	ble	d728 <extractStringFromJsonObj+0x68>
    d754:	e3062a08 	movw	r2, #27144	@ 0x6a08
    d758:	e3a01003 	mov	r1, #3
    d75c:	e3402001 	movt	r2, #1
    d760:	e59f3014 	ldr	r3, [pc, #20]	@ d77c <extractStringFromJsonObj+0xbc>
    d764:	e58d4000 	str	r4, [sp]
    d768:	ebfff391 	bl	a5b4 <PmLogPrint_@plt>
    d76c:	eaffffed 	b	d728 <extractStringFromJsonObj+0x68>
    d770:	e28dd008 	add	sp, sp, #8
    d774:	e8bd4010 	pop	{r4, lr}
    d778:	eafff327 	b	a41c <g_string_new@plt>
    d77c:	0001666c 	.word	0x0001666c

0000d780 <handleComplexCmdResponseCb>:
    d780:	e92d45f0 	push	{r4, r5, r6, r7, r8, sl, lr}
    d784:	e3016a78 	movw	r6, #6776	@ 0x1a78
    d788:	e3406002 	movt	r6, #2
    d78c:	e1a07000 	mov	r7, r0
    d790:	e24dd014 	sub	sp, sp, #20
    d794:	e1a04001 	mov	r4, r1
    d798:	e5960000 	ldr	r0, [r6]
    d79c:	e1a05002 	mov	r5, r2
    d7a0:	e1a0a003 	mov	sl, r3
    d7a4:	e3500000 	cmp	r0, #0
    d7a8:	0a00002d 	beq	d864 <handleComplexCmdResponseCb+0xe4>
    d7ac:	e5903000 	ldr	r3, [r0]
    d7b0:	e3530006 	cmp	r3, #6
    d7b4:	ca00002a 	bgt	d864 <handleComplexCmdResponseCb+0xe4>
    d7b8:	e3011aac 	movw	r1, #6828	@ 0x1aac
    d7bc:	e3401002 	movt	r1, #2
    d7c0:	e5910000 	ldr	r0, [r1]
    d7c4:	ebfff362 	bl	a554 <g_timer_start@plt>
    d7c8:	e3570000 	cmp	r7, #0
    d7cc:	0a000031 	beq	d898 <handleComplexCmdResponseCb+0x118>
    d7d0:	e3540000 	cmp	r4, #0
    d7d4:	0a00003c 	beq	d8cc <handleComplexCmdResponseCb+0x14c>
    d7d8:	e1a00004 	mov	r0, r4
    d7dc:	ebfff34a 	bl	a50c <json_tokener_parse@plt>
    d7e0:	e3700efa 	cmn	r0, #4000	@ 0xfa0
    d7e4:	e1a08000 	mov	r8, r0
    d7e8:	9a000039 	bls	d8d4 <handleComplexCmdResponseCb+0x154>
    d7ec:	e5960000 	ldr	r0, [r6]
    d7f0:	e3500000 	cmp	r0, #0
    d7f4:	0a000002 	beq	d804 <handleComplexCmdResponseCb+0x84>
    d7f8:	e590c000 	ldr	ip, [r0]
    d7fc:	e35c0002 	cmp	ip, #2
    d800:	da000004 	ble	d818 <handleComplexCmdResponseCb+0x98>
    d804:	e3062a84 	movw	r2, #27268	@ 0x6a84
    d808:	e3a01003 	mov	r1, #3
    d80c:	e3402001 	movt	r2, #1
    d810:	e59f3158 	ldr	r3, [pc, #344]	@ d970 <handleComplexCmdResponseCb+0x1f0>
    d814:	ebfff366 	bl	a5b4 <PmLogPrint_@plt>
    d818:	e5970000 	ldr	r0, [r7]
    d81c:	e3062ab4 	movw	r2, #27316	@ 0x6ab4
    d820:	e5971004 	ldr	r1, [r7, #4]
    d824:	e3402001 	movt	r2, #1
    d828:	ebfffead 	bl	d2e4 <lhReply>
    d82c:	e3500000 	cmp	r0, #0
    d830:	1a000040 	bne	d938 <handleComplexCmdResponseCb+0x1b8>
    d834:	e5960000 	ldr	r0, [r6]
    d838:	e3500000 	cmp	r0, #0
    d83c:	0a000002 	beq	d84c <handleComplexCmdResponseCb+0xcc>
    d840:	e590e000 	ldr	lr, [r0]
    d844:	e35e0002 	cmp	lr, #2
    d848:	da00003a 	ble	d938 <handleComplexCmdResponseCb+0x1b8>
    d84c:	e3062af8 	movw	r2, #27384	@ 0x6af8
    d850:	e3a01003 	mov	r1, #3
    d854:	e3402001 	movt	r2, #1
    d858:	e59f3110 	ldr	r3, [pc, #272]	@ d970 <handleComplexCmdResponseCb+0x1f0>
    d85c:	ebfff354 	bl	a5b4 <PmLogPrint_@plt>
    d860:	ea000034 	b	d938 <handleComplexCmdResponseCb+0x1b8>
    d864:	e3a01007 	mov	r1, #7
    d868:	e59f3100 	ldr	r3, [pc, #256]	@ d970 <handleComplexCmdResponseCb+0x1f0>
    d86c:	e3062a28 	movw	r2, #27176	@ 0x6a28
    d870:	e3402001 	movt	r2, #1
    d874:	e58d7000 	str	r7, [sp]
    d878:	e98d0430 	stmib	sp, {r4, r5, sl}
    d87c:	ebfff34c 	bl	a5b4 <PmLogPrint_@plt>
    d880:	e3011aac 	movw	r1, #6828	@ 0x1aac
    d884:	e3401002 	movt	r1, #2
    d888:	e5910000 	ldr	r0, [r1]
    d88c:	ebfff330 	bl	a554 <g_timer_start@plt>
    d890:	e3570000 	cmp	r7, #0
    d894:	1affffcd 	bne	d7d0 <handleComplexCmdResponseCb+0x50>
    d898:	e5960000 	ldr	r0, [r6]
    d89c:	e3500000 	cmp	r0, #0
    d8a0:	0a000002 	beq	d8b0 <handleComplexCmdResponseCb+0x130>
    d8a4:	e5903000 	ldr	r3, [r0]
    d8a8:	e3530002 	cmp	r3, #2
    d8ac:	da00002d 	ble	d968 <handleComplexCmdResponseCb+0x1e8>
    d8b0:	e3062b24 	movw	r2, #27428	@ 0x6b24
    d8b4:	e3a01003 	mov	r1, #3
    d8b8:	e3402001 	movt	r2, #1
    d8bc:	e59f30ac 	ldr	r3, [pc, #172]	@ d970 <handleComplexCmdResponseCb+0x1f0>
    d8c0:	e28dd014 	add	sp, sp, #20
    d8c4:	e8bd45f0 	pop	{r4, r5, r6, r7, r8, sl, lr}
    d8c8:	eafff339 	b	a5b4 <PmLogPrint_@plt>
    d8cc:	ebfff3d1 	bl	a818 <json_object_new_object@plt>
    d8d0:	e1a08000 	mov	r8, r0
    d8d4:	e2751001 	rsbs	r1, r5, #1
    d8d8:	33a01000 	movcc	r1, #0
    d8dc:	e1a02005 	mov	r2, r5
    d8e0:	e1a0300a 	mov	r3, sl
    d8e4:	ebfffe44 	bl	d1fc <lhGenStdErrReturn>
    d8e8:	e3580000 	cmp	r8, #0
    d8ec:	0affffbe 	beq	d7ec <handleComplexCmdResponseCb+0x6c>
    d8f0:	e1a00008 	mov	r0, r8
    d8f4:	e5975000 	ldr	r5, [r7]
    d8f8:	e5974004 	ldr	r4, [r7, #4]
    d8fc:	ebfff3f5 	bl	a8d8 <json_object_to_json_string@plt>
    d900:	e1a01004 	mov	r1, r4
    d904:	e1a02000 	mov	r2, r0
    d908:	e1a00005 	mov	r0, r5
    d90c:	ebfffe74 	bl	d2e4 <lhReply>
    d910:	e3500000 	cmp	r0, #0
    d914:	1a000005 	bne	d930 <handleComplexCmdResponseCb+0x1b0>
    d918:	e5960000 	ldr	r0, [r6]
    d91c:	e3500000 	cmp	r0, #0
    d920:	0a00000a 	beq	d950 <handleComplexCmdResponseCb+0x1d0>
    d924:	e5902000 	ldr	r2, [r0]
    d928:	e3520002 	cmp	r2, #2
    d92c:	ca000007 	bgt	d950 <handleComplexCmdResponseCb+0x1d0>
    d930:	e1a00008 	mov	r0, r8
    d934:	ebfff3de 	bl	a8b4 <json_object_put@plt>
    d938:	e5970004 	ldr	r0, [r7, #4]
    d93c:	ebfff38b 	bl	a770 <LSMessageUnref@plt>
    d940:	e1a00007 	mov	r0, r7
    d944:	e28dd014 	add	sp, sp, #20
    d948:	e8bd45f0 	pop	{r4, r5, r6, r7, r8, sl, lr}
    d94c:	eafff22b 	b	a200 <g_free@plt>
    d950:	e3062a58 	movw	r2, #27224	@ 0x6a58
    d954:	e3a01003 	mov	r1, #3
    d958:	e3402001 	movt	r2, #1
    d95c:	e59f300c 	ldr	r3, [pc, #12]	@ d970 <handleComplexCmdResponseCb+0x1f0>
    d960:	ebfff313 	bl	a5b4 <PmLogPrint_@plt>
    d964:	eafffff1 	b	d930 <handleComplexCmdResponseCb+0x1b0>
    d968:	e28dd014 	add	sp, sp, #20
    d96c:	e8bd85f0 	pop	{r4, r5, r6, r7, r8, sl, pc}
    d970:	00016688 	.word	0x00016688

0000d974 <handleLunaUiResponseRequest>:
    d974:	e3013a78 	movw	r3, #6776	@ 0x1a78
    d978:	e3403002 	movt	r3, #2
    d97c:	e92d41f0 	push	{r4, r5, r6, r7, r8, lr}
    d980:	e1a06000 	mov	r6, r0
    d984:	e5930000 	ldr	r0, [r3]
    d988:	e1a04001 	mov	r4, r1
    d98c:	e3500000 	cmp	r0, #0
    d990:	0a000023 	beq	da24 <handleLunaUiResponseRequest+0xb0>
    d994:	e5901000 	ldr	r1, [r0]
    d998:	e3510006 	cmp	r1, #6
    d99c:	ca000020 	bgt	da24 <handleLunaUiResponseRequest+0xb0>
    d9a0:	e3012aac 	movw	r2, #6828	@ 0x1aac
    d9a4:	e3402002 	movt	r2, #2
    d9a8:	e5920000 	ldr	r0, [r2]
    d9ac:	ebfff2e8 	bl	a554 <g_timer_start@plt>
    d9b0:	e3a00008 	mov	r0, #8
    d9b4:	ebfff364 	bl	a74c <g_malloc0@plt>
    d9b8:	e1a05000 	mov	r5, r0
    d9bc:	e1a00004 	mov	r0, r4
    d9c0:	e5856000 	str	r6, [r5]
    d9c4:	e5854004 	str	r4, [r5, #4]
    d9c8:	ebfff386 	bl	a7e8 <LSMessageRef@plt>
    d9cc:	ebfff99c 	bl	c044 <getActivePlugin>
    d9d0:	e2506000 	subs	r6, r0, #0
    d9d4:	0a000039 	beq	dac0 <handleLunaUiResponseRequest+0x14c>
    d9d8:	e1a00004 	mov	r0, r4
    d9dc:	ebfff2f1 	bl	a5a8 <LSMessageGetPayload@plt>
    d9e0:	e2508000 	subs	r8, r0, #0
    d9e4:	01a04008 	moveq	r4, r8
    d9e8:	0a000013 	beq	da3c <handleLunaUiResponseRequest+0xc8>
    d9ec:	ebfff2c6 	bl	a50c <json_tokener_parse@plt>
    d9f0:	e3700efa 	cmn	r0, #4000	@ 0xfa0
    d9f4:	e1a04000 	mov	r4, r0
    d9f8:	9a00000f 	bls	da3c <handleLunaUiResponseRequest+0xc8>
    d9fc:	e3060dcc 	movw	r0, #28108	@ 0x6dcc
    da00:	e3400001 	movt	r0, #1
    da04:	eb0013e0 	bl	1298c <LOCALIZED>
    da08:	e3a01000 	mov	r1, #0
    da0c:	e3e02001 	mvn	r2, #1
    da10:	e1a03000 	mov	r3, r0
    da14:	e1a00005 	mov	r0, r5
    da18:	ebffff58 	bl	d780 <handleComplexCmdResponseCb>
    da1c:	e3a00001 	mov	r0, #1
    da20:	e8bd81f0 	pop	{r4, r5, r6, r7, r8, pc}
    da24:	e3062b48 	movw	r2, #27464	@ 0x6b48
    da28:	e3a01007 	mov	r1, #7
    da2c:	e3402001 	movt	r2, #1
    da30:	e59f30d4 	ldr	r3, [pc, #212]	@ db0c <handleLunaUiResponseRequest+0x198>
    da34:	ebfff2de 	bl	a5b4 <PmLogPrint_@plt>
    da38:	eaffffd8 	b	d9a0 <handleLunaUiResponseRequest+0x2c>
    da3c:	e1a00004 	mov	r0, r4
    da40:	e3051b44 	movw	r1, #23364	@ 0x5b44
    da44:	e3401001 	movt	r1, #1
    da48:	ebffff1c 	bl	d6c0 <extractStringFromJsonObj>
    da4c:	e2507000 	subs	r7, r0, #0
    da50:	0a000024 	beq	dae8 <handleLunaUiResponseRequest+0x174>
    da54:	e5970000 	ldr	r0, [r7]
    da58:	e2861004 	add	r1, r6, #4
    da5c:	ebfff3a0 	bl	a8e4 <g_ascii_strcasecmp@plt>
    da60:	e3500000 	cmp	r0, #0
    da64:	0a00000e 	beq	daa4 <handleLunaUiResponseRequest+0x130>
    da68:	e3060b54 	movw	r0, #27476	@ 0x6b54
    da6c:	e3400001 	movt	r0, #1
    da70:	eb0013c5 	bl	1298c <LOCALIZED>
    da74:	e3a01000 	mov	r1, #0
    da78:	e3e02001 	mvn	r2, #1
    da7c:	e1a03000 	mov	r3, r0
    da80:	e1a00005 	mov	r0, r5
    da84:	ebffff3d 	bl	d780 <handleComplexCmdResponseCb>
    da88:	e1a00007 	mov	r0, r7
    da8c:	e3a01001 	mov	r1, #1
    da90:	ebfff297 	bl	a4f4 <g_string_free@plt>
    da94:	e1a00004 	mov	r0, r4
    da98:	ebfff385 	bl	a8b4 <json_object_put@plt>
    da9c:	e3a00001 	mov	r0, #1
    daa0:	e8bd81f0 	pop	{r4, r5, r6, r7, r8, pc}
    daa4:	e1a00005 	mov	r0, r5
    daa8:	e1a01008 	mov	r1, r8
    daac:	e30d2780 	movw	r2, #55168	@ 0xd780
    dab0:	e3402000 	movt	r2, #0
    dab4:	e1a0e00f 	mov	lr, pc
    dab8:	e596f034 	ldr	pc, [r6, #52]	@ 0x34
    dabc:	eafffff1 	b	da88 <handleLunaUiResponseRequest+0x114>
    dac0:	e3060b78 	movw	r0, #27512	@ 0x6b78
    dac4:	e3400001 	movt	r0, #1
    dac8:	eb0013af 	bl	1298c <LOCALIZED>
    dacc:	e1a01006 	mov	r1, r6
    dad0:	e3e02000 	mvn	r2, #0
    dad4:	e1a03000 	mov	r3, r0
    dad8:	e1a00005 	mov	r0, r5
    dadc:	ebffff27 	bl	d780 <handleComplexCmdResponseCb>
    dae0:	e3a00001 	mov	r0, #1
    dae4:	e8bd81f0 	pop	{r4, r5, r6, r7, r8, pc}
    dae8:	e3070274 	movw	r0, #29300	@ 0x7274
    daec:	e3400001 	movt	r0, #1
    daf0:	eb0013a5 	bl	1298c <LOCALIZED>
    daf4:	e1a01007 	mov	r1, r7
    daf8:	e3e02001 	mvn	r2, #1
    dafc:	e1a03000 	mov	r3, r0
    db00:	e1a00005 	mov	r0, r5
    db04:	ebffff1d 	bl	d780 <handleComplexCmdResponseCb>
    db08:	eaffffe1 	b	da94 <handleLunaUiResponseRequest+0x120>
    db0c:	000166a4 	.word	0x000166a4

0000db10 <handleLunaCmdDisconnectResponseCb>:
    db10:	eaffff1a 	b	d780 <handleComplexCmdResponseCb>

0000db14 <handleLunaServiceSendMsgToAppCb>:
    db14:	e3013a78 	movw	r3, #6776	@ 0x1a78
    db18:	e3403002 	movt	r3, #2
    db1c:	e92d4070 	push	{r4, r5, r6, lr}
    db20:	e1a05000 	mov	r5, r0
    db24:	e5930000 	ldr	r0, [r3]
    db28:	e3500000 	cmp	r0, #0
    db2c:	0a00001c 	beq	dba4 <handleLunaServiceSendMsgToAppCb+0x90>
    db30:	e5901000 	ldr	r1, [r0]
    db34:	e3510006 	cmp	r1, #6
    db38:	ca000019 	bgt	dba4 <handleLunaServiceSendMsgToAppCb+0x90>
    db3c:	e3012aac 	movw	r2, #6828	@ 0x1aac
    db40:	e3402002 	movt	r2, #2
    db44:	e5920000 	ldr	r0, [r2]
    db48:	ebfff281 	bl	a554 <g_timer_start@plt>
    db4c:	e3550000 	cmp	r5, #0
    db50:	0a000011 	beq	db9c <handleLunaServiceSendMsgToAppCb+0x88>
    db54:	e5d50000 	ldrb	r0, [r5]
    db58:	e3500000 	cmp	r0, #0
    db5c:	0a00000e 	beq	db9c <handleLunaServiceSendMsgToAppCb+0x88>
    db60:	e3a00000 	mov	r0, #0
    db64:	ebfff2d1 	bl	a6b0 <g_timeout_source_new@plt>
    db68:	e1a04000 	mov	r4, r0
    db6c:	e1a00005 	mov	r0, r5
    db70:	ebfff1e1 	bl	a2fc <g_strdup@plt>
    db74:	e3a03000 	mov	r3, #0
    db78:	e30d1c60 	movw	r1, #56416	@ 0xdc60
    db7c:	e3401000 	movt	r1, #0
    db80:	e1a02000 	mov	r2, r0
    db84:	e1a00004 	mov	r0, r4
    db88:	ebfff1d2 	bl	a2d8 <g_source_set_callback@plt>
    db8c:	ebfff294 	bl	a5e4 <g_main_context_default@plt>
    db90:	e1a01000 	mov	r1, r0
    db94:	e1a00004 	mov	r0, r4
    db98:	ebfff303 	bl	a7ac <g_source_attach@plt>
    db9c:	e3a00000 	mov	r0, #0
    dba0:	e8bd8070 	pop	{r4, r5, r6, pc}
    dba4:	e30622d4 	movw	r2, #25300	@ 0x62d4
    dba8:	e3a01007 	mov	r1, #7
    dbac:	e3402001 	movt	r2, #1
    dbb0:	e59f3004 	ldr	r3, [pc, #4]	@ dbbc <handleLunaServiceSendMsgToAppCb+0xa8>
    dbb4:	ebfff27e 	bl	a5b4 <PmLogPrint_@plt>
    dbb8:	eaffffdf 	b	db3c <handleLunaServiceSendMsgToAppCb+0x28>
    dbbc:	000166c0 	.word	0x000166c0

0000dbc0 <handleLunaServiceNotifyCb>:
    dbc0:	e3013a78 	movw	r3, #6776	@ 0x1a78
    dbc4:	e3403002 	movt	r3, #2
    dbc8:	e92d4030 	push	{r4, r5, lr}
    dbcc:	e1a05000 	mov	r5, r0
    dbd0:	e5930000 	ldr	r0, [r3]
    dbd4:	e24dd00c 	sub	sp, sp, #12
    dbd8:	e3500000 	cmp	r0, #0
    dbdc:	0a000002 	beq	dbec <handleLunaServiceNotifyCb+0x2c>
    dbe0:	e5901000 	ldr	r1, [r0]
    dbe4:	e3510005 	cmp	r1, #5
    dbe8:	da000009 	ble	dc14 <handleLunaServiceNotifyCb+0x54>
    dbec:	e3550000 	cmp	r5, #0
    dbf0:	e3062220 	movw	r2, #25120	@ 0x6220
    dbf4:	e3a01006 	mov	r1, #6
    dbf8:	e3402001 	movt	r2, #1
    dbfc:	e59f3058 	ldr	r3, [pc, #88]	@ dc5c <handleLunaServiceNotifyCb+0x9c>
    dc00:	e305ce80 	movw	ip, #24192	@ 0x5e80
    dc04:	e340c001 	movt	ip, #1
    dc08:	11a0c005 	movne	ip, r5
    dc0c:	e58dc000 	str	ip, [sp]
    dc10:	ebfff267 	bl	a5b4 <PmLogPrint_@plt>
    dc14:	e3a00000 	mov	r0, #0
    dc18:	ebfff2a4 	bl	a6b0 <g_timeout_source_new@plt>
    dc1c:	e1a04000 	mov	r4, r0
    dc20:	e1a00005 	mov	r0, r5
    dc24:	ebfff1b4 	bl	a2fc <g_strdup@plt>
    dc28:	e3a03000 	mov	r3, #0
    dc2c:	e30e1860 	movw	r1, #59488	@ 0xe860
    dc30:	e3401000 	movt	r1, #0
    dc34:	e1a02000 	mov	r2, r0
    dc38:	e1a00004 	mov	r0, r4
    dc3c:	ebfff1a5 	bl	a2d8 <g_source_set_callback@plt>
    dc40:	ebfff267 	bl	a5e4 <g_main_context_default@plt>
    dc44:	e1a01000 	mov	r1, r0
    dc48:	e1a00004 	mov	r0, r4
    dc4c:	ebfff2d6 	bl	a7ac <g_source_attach@plt>
    dc50:	e3a00000 	mov	r0, #0
    dc54:	e28dd00c 	add	sp, sp, #12
    dc58:	e8bd8030 	pop	{r4, r5, pc}
    dc5c:	000166e0 	.word	0x000166e0

0000dc60 <lunaServiceSendMsgToAppTask>:
    dc60:	e92d41f0 	push	{r4, r5, r6, r7, r8, lr}
    dc64:	e3015a78 	movw	r5, #6776	@ 0x1a78
    dc68:	e3405002 	movt	r5, #2
    dc6c:	e1a08000 	mov	r8, r0
    dc70:	e24dd008 	sub	sp, sp, #8
    dc74:	e5950000 	ldr	r0, [r5]
    dc78:	e3500000 	cmp	r0, #0
    dc7c:	0a00001b 	beq	dcf0 <lunaServiceSendMsgToAppTask+0x90>
    dc80:	e5903000 	ldr	r3, [r0]
    dc84:	e3530006 	cmp	r3, #6
    dc88:	ca000018 	bgt	dcf0 <lunaServiceSendMsgToAppTask+0x90>
    dc8c:	e3580000 	cmp	r8, #0
    dc90:	01a06008 	moveq	r6, r8
    dc94:	0a00001d 	beq	dd10 <lunaServiceSendMsgToAppTask+0xb0>
    dc98:	e1a00008 	mov	r0, r8
    dc9c:	ebfff21a 	bl	a50c <json_tokener_parse@plt>
    dca0:	e3700efa 	cmn	r0, #4000	@ 0xfa0
    dca4:	e1a06000 	mov	r6, r0
    dca8:	9a000018 	bls	dd10 <lunaServiceSendMsgToAppTask+0xb0>
    dcac:	e5950000 	ldr	r0, [r5]
    dcb0:	e3500000 	cmp	r0, #0
    dcb4:	0a000002 	beq	dcc4 <lunaServiceSendMsgToAppTask+0x64>
    dcb8:	e590c000 	ldr	ip, [r0]
    dcbc:	e35c0002 	cmp	ip, #2
    dcc0:	da000005 	ble	dcdc <lunaServiceSendMsgToAppTask+0x7c>
    dcc4:	e3062c14 	movw	r2, #27668	@ 0x6c14
    dcc8:	e3a01003 	mov	r1, #3
    dccc:	e3402001 	movt	r2, #1
    dcd0:	e59f3140 	ldr	r3, [pc, #320]	@ de18 <lunaServiceSendMsgToAppTask+0x1b8>
    dcd4:	e58d8000 	str	r8, [sp]
    dcd8:	ebfff235 	bl	a5b4 <PmLogPrint_@plt>
    dcdc:	e1a00008 	mov	r0, r8
    dce0:	ebfff146 	bl	a200 <g_free@plt>
    dce4:	e3a00000 	mov	r0, #0
    dce8:	e28dd008 	add	sp, sp, #8
    dcec:	e8bd81f0 	pop	{r4, r5, r6, r7, r8, pc}
    dcf0:	e30622d4 	movw	r2, #25300	@ 0x62d4
    dcf4:	e3a01007 	mov	r1, #7
    dcf8:	e3402001 	movt	r2, #1
    dcfc:	e59f3114 	ldr	r3, [pc, #276]	@ de18 <lunaServiceSendMsgToAppTask+0x1b8>
    dd00:	ebfff22b 	bl	a5b4 <PmLogPrint_@plt>
    dd04:	e3580000 	cmp	r8, #0
    dd08:	01a06008 	moveq	r6, r8
    dd0c:	1affffe1 	bne	dc98 <lunaServiceSendMsgToAppTask+0x38>
    dd10:	e3014a9c 	movw	r4, #6812	@ 0x1a9c
    dd14:	e3404002 	movt	r4, #2
    dd18:	e5940000 	ldr	r0, [r4]
    dd1c:	e3500000 	cmp	r0, #0
    dd20:	0a000037 	beq	de04 <lunaServiceSendMsgToAppTask+0x1a4>
    dd24:	ebfff2bb 	bl	a818 <json_object_new_object@plt>
    dd28:	e1a07000 	mov	r7, r0
    dd2c:	e5940000 	ldr	r0, [r4]
    dd30:	e3500000 	cmp	r0, #0
    dd34:	03060b9c 	movweq	r0, #27548	@ 0x6b9c
    dd38:	03400001 	movteq	r0, #1
    dd3c:	ebfff168 	bl	a2e4 <json_object_new_string@plt>
    dd40:	e3081054 	movw	r1, #32852	@ 0x8054
    dd44:	e3401001 	movt	r1, #1
    dd48:	e1a02000 	mov	r2, r0
    dd4c:	e1a00007 	mov	r0, r7
    dd50:	ebfff20b 	bl	a584 <json_object_object_add@plt>
    dd54:	e1a02006 	mov	r2, r6
    dd58:	e1a00007 	mov	r0, r7
    dd5c:	e3061bb0 	movw	r1, #27568	@ 0x6bb0
    dd60:	e3401001 	movt	r1, #1
    dd64:	ebfff206 	bl	a584 <json_object_object_add@plt>
    dd68:	e1a00007 	mov	r0, r7
    dd6c:	ebfff2d9 	bl	a8d8 <json_object_to_json_string@plt>
    dd70:	e30d2654 	movw	r2, #54868	@ 0xd654
    dd74:	e3a03000 	mov	r3, #0
    dd78:	e3402000 	movt	r2, #0
    dd7c:	e1a01000 	mov	r1, r0
    dd80:	e3060bb8 	movw	r0, #27576	@ 0x6bb8
    dd84:	e3400001 	movt	r0, #1
    dd88:	ebfffd7b 	bl	d37c <lhSend>
    dd8c:	e3500000 	cmp	r0, #0
    dd90:	1a00000d 	bne	ddcc <lunaServiceSendMsgToAppTask+0x16c>
    dd94:	e5950000 	ldr	r0, [r5]
    dd98:	e3500000 	cmp	r0, #0
    dd9c:	0a000002 	beq	ddac <lunaServiceSendMsgToAppTask+0x14c>
    dda0:	e5901000 	ldr	r1, [r0]
    dda4:	e3510002 	cmp	r1, #2
    dda8:	da000004 	ble	ddc0 <lunaServiceSendMsgToAppTask+0x160>
    ddac:	e3062be0 	movw	r2, #27616	@ 0x6be0
    ddb0:	e3a01003 	mov	r1, #3
    ddb4:	e3402001 	movt	r2, #1
    ddb8:	e59f3058 	ldr	r3, [pc, #88]	@ de18 <lunaServiceSendMsgToAppTask+0x1b8>
    ddbc:	ebfff1fc 	bl	a5b4 <PmLogPrint_@plt>
    ddc0:	e1a00007 	mov	r0, r7
    ddc4:	ebfff2ba 	bl	a8b4 <json_object_put@plt>
    ddc8:	eaffffc3 	b	dcdc <lunaServiceSendMsgToAppTask+0x7c>
    ddcc:	e5950000 	ldr	r0, [r5]
    ddd0:	e3500000 	cmp	r0, #0
    ddd4:	0a000002 	beq	dde4 <lunaServiceSendMsgToAppTask+0x184>
    ddd8:	e5902000 	ldr	r2, [r0]
    dddc:	e3520006 	cmp	r2, #6
    dde0:	dafffff6 	ble	ddc0 <lunaServiceSendMsgToAppTask+0x160>
    dde4:	e3a01007 	mov	r1, #7
    dde8:	e59f3028 	ldr	r3, [pc, #40]	@ de18 <lunaServiceSendMsgToAppTask+0x1b8>
    ddec:	e3062c00 	movw	r2, #27648	@ 0x6c00
    ddf0:	e3402001 	movt	r2, #1
    ddf4:	ebfff1ee 	bl	a5b4 <PmLogPrint_@plt>
    ddf8:	e1a00007 	mov	r0, r7
    ddfc:	ebfff2ac 	bl	a8b4 <json_object_put@plt>
    de00:	eaffffb5 	b	dcdc <lunaServiceSendMsgToAppTask+0x7c>
    de04:	e3060b8c 	movw	r0, #27532	@ 0x6b8c
    de08:	e3400001 	movt	r0, #1
    de0c:	ebfff200 	bl	a614 <g_getenv@plt>
    de10:	e5840000 	str	r0, [r4]
    de14:	eaffffc2 	b	dd24 <lunaServiceSendMsgToAppTask+0xc4>
    de18:	000166fc 	.word	0x000166fc

0000de1c <handleProfileChangeNotificationCb>:
    de1c:	e92d40f0 	push	{r4, r5, r6, r7, lr}
    de20:	e3016a78 	movw	r6, #6776	@ 0x1a78
    de24:	e3406002 	movt	r6, #2
    de28:	e1a05000 	mov	r5, r0
    de2c:	e24dd00c 	sub	sp, sp, #12
    de30:	e5960000 	ldr	r0, [r6]
    de34:	e3500000 	cmp	r0, #0
    de38:	0a000021 	beq	dec4 <handleProfileChangeNotificationCb+0xa8>
    de3c:	e5903000 	ldr	r3, [r0]
    de40:	e3530005 	cmp	r3, #5
    de44:	ca00001e 	bgt	dec4 <handleProfileChangeNotificationCb+0xa8>
    de48:	e3011aac 	movw	r1, #6828	@ 0x1aac
    de4c:	e3401002 	movt	r1, #2
    de50:	e5910000 	ldr	r0, [r1]
    de54:	ebfff1be 	bl	a554 <g_timer_start@plt>
    de58:	e3550000 	cmp	r5, #0
    de5c:	01a04005 	moveq	r4, r5
    de60:	0a000024 	beq	def8 <handleProfileChangeNotificationCb+0xdc>
    de64:	e1a00005 	mov	r0, r5
    de68:	ebfff1a7 	bl	a50c <json_tokener_parse@plt>
    de6c:	e3700efa 	cmn	r0, #4000	@ 0xfa0
    de70:	e1a04000 	mov	r4, r0
    de74:	9a00001f 	bls	def8 <handleProfileChangeNotificationCb+0xdc>
    de78:	e1a01005 	mov	r1, r5
    de7c:	e3060d18 	movw	r0, #27928	@ 0x6d18
    de80:	e3400001 	movt	r0, #1
    de84:	ebfffd68 	bl	d42c <lhNotifySubscribers>
    de88:	e3500000 	cmp	r0, #0
    de8c:	1a000046 	bne	dfac <handleProfileChangeNotificationCb+0x190>
    de90:	e5960000 	ldr	r0, [r6]
    de94:	e3500000 	cmp	r0, #0
    de98:	0a000002 	beq	dea8 <handleProfileChangeNotificationCb+0x8c>
    de9c:	e590e000 	ldr	lr, [r0]
    dea0:	e35e0002 	cmp	lr, #2
    dea4:	da000040 	ble	dfac <handleProfileChangeNotificationCb+0x190>
    dea8:	e3062d28 	movw	r2, #27944	@ 0x6d28
    deac:	e3a01003 	mov	r1, #3
    deb0:	e3402001 	movt	r2, #1
    deb4:	e59f3134 	ldr	r3, [pc, #308]	@ dff0 <handleProfileChangeNotificationCb+0x1d4>
    deb8:	e28dd00c 	add	sp, sp, #12
    debc:	e8bd40f0 	pop	{r4, r5, r6, r7, lr}
    dec0:	eafff1bb 	b	a5b4 <PmLogPrint_@plt>
    dec4:	e3a01006 	mov	r1, #6
    dec8:	e59f3120 	ldr	r3, [pc, #288]	@ dff0 <handleProfileChangeNotificationCb+0x1d4>
    decc:	e3062c40 	movw	r2, #27712	@ 0x6c40
    ded0:	e3402001 	movt	r2, #1
    ded4:	e58d5000 	str	r5, [sp]
    ded8:	ebfff1b5 	bl	a5b4 <PmLogPrint_@plt>
    dedc:	e3011aac 	movw	r1, #6828	@ 0x1aac
    dee0:	e3401002 	movt	r1, #2
    dee4:	e5910000 	ldr	r0, [r1]
    dee8:	ebfff199 	bl	a554 <g_timer_start@plt>
    deec:	e3550000 	cmp	r5, #0
    def0:	01a04005 	moveq	r4, r5
    def4:	1affffda 	bne	de64 <handleProfileChangeNotificationCb+0x48>
    def8:	ebfff246 	bl	a818 <json_object_new_object@plt>
    defc:	e2507000 	subs	r7, r0, #0
    df00:	0a000037 	beq	dfe4 <handleProfileChangeNotificationCb+0x1c8>
    df04:	e3060c50 	movw	r0, #27728	@ 0x6c50
    df08:	e3400001 	movt	r0, #1
    df0c:	ebfff0f4 	bl	a2e4 <json_object_new_string@plt>
    df10:	e3061c68 	movw	r1, #27752	@ 0x6c68
    df14:	e3401001 	movt	r1, #1
    df18:	e1a02000 	mov	r2, r0
    df1c:	e1a00007 	mov	r0, r7
    df20:	ebfff197 	bl	a584 <json_object_object_add@plt>
    df24:	e1a02004 	mov	r2, r4
    df28:	e1a00007 	mov	r0, r7
    df2c:	e3061c70 	movw	r1, #27760	@ 0x6c70
    df30:	e3401001 	movt	r1, #1
    df34:	ebfff192 	bl	a584 <json_object_object_add@plt>
    df38:	e1a00007 	mov	r0, r7
    df3c:	ebfff265 	bl	a8d8 <json_object_to_json_string@plt>
    df40:	e3a02000 	mov	r2, #0
    df44:	e1a03002 	mov	r3, r2
    df48:	e1a01000 	mov	r1, r0
    df4c:	e3060c78 	movw	r0, #27768	@ 0x6c78
    df50:	e3400001 	movt	r0, #1
    df54:	ebfffd08 	bl	d37c <lhSend>
    df58:	e3500000 	cmp	r0, #0
    df5c:	0a000014 	beq	dfb4 <handleProfileChangeNotificationCb+0x198>
    df60:	e5960000 	ldr	r0, [r6]
    df64:	e3500000 	cmp	r0, #0
    df68:	0a000002 	beq	df78 <handleProfileChangeNotificationCb+0x15c>
    df6c:	e590c000 	ldr	ip, [r0]
    df70:	e35c0006 	cmp	ip, #6
    df74:	da000004 	ble	df8c <handleProfileChangeNotificationCb+0x170>
    df78:	e3062ce4 	movw	r2, #27876	@ 0x6ce4
    df7c:	e3a01007 	mov	r1, #7
    df80:	e3402001 	movt	r2, #1
    df84:	e59f3064 	ldr	r3, [pc, #100]	@ dff0 <handleProfileChangeNotificationCb+0x1d4>
    df88:	ebfff189 	bl	a5b4 <PmLogPrint_@plt>
    df8c:	e1a00007 	mov	r0, r7
    df90:	ebfff247 	bl	a8b4 <json_object_put@plt>
    df94:	e1a01005 	mov	r1, r5
    df98:	e3060d18 	movw	r0, #27928	@ 0x6d18
    df9c:	e3400001 	movt	r0, #1
    dfa0:	ebfffd21 	bl	d42c <lhNotifySubscribers>
    dfa4:	e3500000 	cmp	r0, #0
    dfa8:	0affffb8 	beq	de90 <handleProfileChangeNotificationCb+0x74>
    dfac:	e28dd00c 	add	sp, sp, #12
    dfb0:	e8bd80f0 	pop	{r4, r5, r6, r7, pc}
    dfb4:	e5960000 	ldr	r0, [r6]
    dfb8:	e3500000 	cmp	r0, #0
    dfbc:	0a000002 	beq	dfcc <handleProfileChangeNotificationCb+0x1b0>
    dfc0:	e5902000 	ldr	r2, [r0]
    dfc4:	e3520002 	cmp	r2, #2
    dfc8:	daffffef 	ble	df8c <handleProfileChangeNotificationCb+0x170>
    dfcc:	e3a01003 	mov	r1, #3
    dfd0:	e3062ca8 	movw	r2, #27816	@ 0x6ca8
    dfd4:	e59f3014 	ldr	r3, [pc, #20]	@ dff0 <handleProfileChangeNotificationCb+0x1d4>
    dfd8:	e3402001 	movt	r2, #1
    dfdc:	ebfff174 	bl	a5b4 <PmLogPrint_@plt>
    dfe0:	eaffffe9 	b	df8c <handleProfileChangeNotificationCb+0x170>
    dfe4:	e1a00004 	mov	r0, r4
    dfe8:	ebfff231 	bl	a8b4 <json_object_put@plt>
    dfec:	eaffffa1 	b	de78 <handleProfileChangeNotificationCb+0x5c>
    dff0:	00016718 	.word	0x00016718

0000dff4 <handleLunaCmdGetConnectionDetailsResponseCb>:
    dff4:	e3520000 	cmp	r2, #0
    dff8:	03510000 	cmpeq	r1, #0
    dffc:	e92d41f0 	push	{r4, r5, r6, r7, r8, lr}
    e000:	e1a04001 	mov	r4, r1
    e004:	e1a05002 	mov	r5, r2
    e008:	03a06000 	moveq	r6, #0
    e00c:	13a06001 	movne	r6, #1
    e010:	e1a07000 	mov	r7, r0
    e014:	e1a08003 	mov	r8, r3
    e018:	0a00001b 	beq	e08c <handleLunaCmdGetConnectionDetailsResponseCb+0x98>
    e01c:	ebfff74c 	bl	bd54 <profileGetActiveProfile>
    e020:	e3500000 	cmp	r0, #0
    e024:	0a000035 	beq	e100 <handleLunaCmdGetConnectionDetailsResponseCb+0x10c>
    e028:	e3540000 	cmp	r4, #0
    e02c:	0a000033 	beq	e100 <handleLunaCmdGetConnectionDetailsResponseCb+0x10c>
    e030:	e1a00004 	mov	r0, r4
    e034:	ebfff134 	bl	a50c <json_tokener_parse@plt>
    e038:	e2506000 	subs	r6, r0, #0
    e03c:	0a00002f 	beq	e100 <handleLunaCmdGetConnectionDetailsResponseCb+0x10c>
    e040:	e3760efa 	cmn	r6, #4000	@ 0xfa0
    e044:	8a000024 	bhi	e0dc <handleLunaCmdGetConnectionDetailsResponseCb+0xe8>
    e048:	ebfff741 	bl	bd54 <profileGetActiveProfile>
    e04c:	ebfff0a4 	bl	a2e4 <json_object_new_string@plt>
    e050:	e3051b34 	movw	r1, #23348	@ 0x5b34
    e054:	e3401001 	movt	r1, #1
    e058:	e1a02000 	mov	r2, r0
    e05c:	e1a00006 	mov	r0, r6
    e060:	ebfff147 	bl	a584 <json_object_object_add@plt>
    e064:	e1a00006 	mov	r0, r6
    e068:	ebfff21a 	bl	a8d8 <json_object_to_json_string@plt>
    e06c:	e1a02005 	mov	r2, r5
    e070:	e1a03008 	mov	r3, r8
    e074:	e1a01000 	mov	r1, r0
    e078:	e1a00007 	mov	r0, r7
    e07c:	ebfffdbf 	bl	d780 <handleComplexCmdResponseCb>
    e080:	e1a00006 	mov	r0, r6
    e084:	e8bd41f0 	pop	{r4, r5, r6, r7, r8, lr}
    e088:	eafff209 	b	a8b4 <json_object_put@plt>
    e08c:	ebfff1e1 	bl	a818 <json_object_new_object@plt>
    e090:	e1a04000 	mov	r4, r0
    e094:	e3050b64 	movw	r0, #23396	@ 0x5b64
    e098:	e3400001 	movt	r0, #1
    e09c:	ebfff090 	bl	a2e4 <json_object_new_string@plt>
    e0a0:	e3061d54 	movw	r1, #27988	@ 0x6d54
    e0a4:	e3401001 	movt	r1, #1
    e0a8:	e1a02000 	mov	r2, r0
    e0ac:	e1a00004 	mov	r0, r4
    e0b0:	ebfff133 	bl	a584 <json_object_object_add@plt>
    e0b4:	e1a00004 	mov	r0, r4
    e0b8:	ebfff206 	bl	a8d8 <json_object_to_json_string@plt>
    e0bc:	e1a02006 	mov	r2, r6
    e0c0:	e1a03008 	mov	r3, r8
    e0c4:	e1a01000 	mov	r1, r0
    e0c8:	e1a00007 	mov	r0, r7
    e0cc:	ebfffdab 	bl	d780 <handleComplexCmdResponseCb>
    e0d0:	e1a00004 	mov	r0, r4
    e0d4:	e8bd41f0 	pop	{r4, r5, r6, r7, r8, lr}
    e0d8:	eafff1f5 	b	a8b4 <json_object_put@plt>
    e0dc:	e3060dcc 	movw	r0, #28108	@ 0x6dcc
    e0e0:	e3400001 	movt	r0, #1
    e0e4:	eb001228 	bl	1298c <LOCALIZED>
    e0e8:	e1a01004 	mov	r1, r4
    e0ec:	e3e02000 	mvn	r2, #0
    e0f0:	e1a03000 	mov	r3, r0
    e0f4:	e1a00007 	mov	r0, r7
    e0f8:	e8bd41f0 	pop	{r4, r5, r6, r7, r8, lr}
    e0fc:	eafffd9f 	b	d780 <handleComplexCmdResponseCb>
    e100:	e1a00007 	mov	r0, r7
    e104:	e1a01004 	mov	r1, r4
    e108:	e1a02005 	mov	r2, r5
    e10c:	e1a03008 	mov	r3, r8
    e110:	e8bd41f0 	pop	{r4, r5, r6, r7, r8, lr}
    e114:	eafffd99 	b	d780 <handleComplexCmdResponseCb>

0000e118 <handleLunaGetConnectionDetails>:
    e118:	e3013aac 	movw	r3, #6828	@ 0x1aac
    e11c:	e3403002 	movt	r3, #2
    e120:	e92d4070 	push	{r4, r5, r6, lr}
    e124:	e1a05000 	mov	r5, r0
    e128:	e5930000 	ldr	r0, [r3]
    e12c:	e1a04001 	mov	r4, r1
    e130:	ebfff107 	bl	a554 <g_timer_start@plt>
    e134:	e3a00008 	mov	r0, #8
    e138:	ebfff183 	bl	a74c <g_malloc0@plt>
    e13c:	e1a06000 	mov	r6, r0
    e140:	e1a00004 	mov	r0, r4
    e144:	e5865000 	str	r5, [r6]
    e148:	e5864004 	str	r4, [r6, #4]
    e14c:	ebfff1a5 	bl	a7e8 <LSMessageRef@plt>
    e150:	ebfff7bb 	bl	c044 <getActivePlugin>
    e154:	e2503000 	subs	r3, r0, #0
    e158:	0a000006 	beq	e178 <handleLunaGetConnectionDetails+0x60>
    e15c:	e1a00006 	mov	r0, r6
    e160:	e30d1ff4 	movw	r1, #57332	@ 0xdff4
    e164:	e3401000 	movt	r1, #0
    e168:	e1a0e00f 	mov	lr, pc
    e16c:	e593f030 	ldr	pc, [r3, #48]	@ 0x30
    e170:	e3a00001 	mov	r0, #1
    e174:	e8bd8070 	pop	{r4, r5, r6, pc}
    e178:	e1a00006 	mov	r0, r6
    e17c:	e1a01003 	mov	r1, r3
    e180:	e1a02003 	mov	r2, r3
    e184:	ebffff9a 	bl	dff4 <handleLunaCmdGetConnectionDetailsResponseCb>
    e188:	e3a00001 	mov	r0, #1
    e18c:	e8bd8070 	pop	{r4, r5, r6, pc}

0000e190 <handleLunaDisconnectRequest>:
    e190:	e92d47f0 	push	{r4, r5, r6, r7, r8, r9, sl, lr}
    e194:	e3016a78 	movw	r6, #6776	@ 0x1a78
    e198:	e3406002 	movt	r6, #2
    e19c:	e1a0a000 	mov	sl, r0
    e1a0:	e24dd008 	sub	sp, sp, #8
    e1a4:	e1a08001 	mov	r8, r1
    e1a8:	e5960000 	ldr	r0, [r6]
    e1ac:	e3500000 	cmp	r0, #0
    e1b0:	0a000020 	beq	e238 <handleLunaDisconnectRequest+0xa8>
    e1b4:	e5903000 	ldr	r3, [r0]
    e1b8:	e3530006 	cmp	r3, #6
    e1bc:	ca00001d 	bgt	e238 <handleLunaDisconnectRequest+0xa8>
    e1c0:	e3011aac 	movw	r1, #6828	@ 0x1aac
    e1c4:	e3401002 	movt	r1, #2
    e1c8:	e5910000 	ldr	r0, [r1]
    e1cc:	ebfff0e0 	bl	a554 <g_timer_start@plt>
    e1d0:	e1a00008 	mov	r0, r8
    e1d4:	ebfff0f3 	bl	a5a8 <LSMessageGetPayload@plt>
    e1d8:	e1a04000 	mov	r4, r0
    e1dc:	ebfff6dc 	bl	bd54 <profileGetActiveProfile>
    e1e0:	e3500000 	cmp	r0, #0
    e1e4:	0a000002 	beq	e1f4 <handleLunaDisconnectRequest+0x64>
    e1e8:	e5d02000 	ldrb	r2, [r0]
    e1ec:	e3520000 	cmp	r2, #0
    e1f0:	1a000016 	bne	e250 <handleLunaDisconnectRequest+0xc0>
    e1f4:	e5960000 	ldr	r0, [r6]
    e1f8:	e3500000 	cmp	r0, #0
    e1fc:	0a000002 	beq	e20c <handleLunaDisconnectRequest+0x7c>
    e200:	e5903000 	ldr	r3, [r0]
    e204:	e3530002 	cmp	r3, #2
    e208:	da000004 	ble	e220 <handleLunaDisconnectRequest+0x90>
    e20c:	e3062de0 	movw	r2, #28128	@ 0x6de0
    e210:	e3a01003 	mov	r1, #3
    e214:	e3402001 	movt	r2, #1
    e218:	e59f3224 	ldr	r3, [pc, #548]	@ e444 <handleLunaDisconnectRequest+0x2b4>
    e21c:	ebfff0e4 	bl	a5b4 <PmLogPrint_@plt>
    e220:	e3060de4 	movw	r0, #28132	@ 0x6de4
    e224:	e3400001 	movt	r0, #1
    e228:	eb0011d7 	bl	1298c <LOCALIZED>
    e22c:	e3e05000 	mvn	r5, #0
    e230:	e1a04000 	mov	r4, r0
    e234:	ea00001d 	b	e2b0 <handleLunaDisconnectRequest+0x120>
    e238:	e30622d4 	movw	r2, #25300	@ 0x62d4
    e23c:	e3a01007 	mov	r1, #7
    e240:	e3402001 	movt	r2, #1
    e244:	e59f31f8 	ldr	r3, [pc, #504]	@ e444 <handleLunaDisconnectRequest+0x2b4>
    e248:	ebfff0d9 	bl	a5b4 <PmLogPrint_@plt>
    e24c:	eaffffdb 	b	e1c0 <handleLunaDisconnectRequest+0x30>
    e250:	e3540000 	cmp	r4, #0
    e254:	0a00002d 	beq	e310 <handleLunaDisconnectRequest+0x180>
    e258:	e5960000 	ldr	r0, [r6]
    e25c:	e3500000 	cmp	r0, #0
    e260:	0a00002d 	beq	e31c <handleLunaDisconnectRequest+0x18c>
    e264:	e5905000 	ldr	r5, [r0]
    e268:	e3550006 	cmp	r5, #6
    e26c:	ca00002a 	bgt	e31c <handleLunaDisconnectRequest+0x18c>
    e270:	e1a00004 	mov	r0, r4
    e274:	ebfff0a4 	bl	a50c <json_tokener_parse@plt>
    e278:	e3700efa 	cmn	r0, #4000	@ 0xfa0
    e27c:	e1a07000 	mov	r7, r0
    e280:	9a000030 	bls	e348 <handleLunaDisconnectRequest+0x1b8>
    e284:	e5960000 	ldr	r0, [r6]
    e288:	e3500000 	cmp	r0, #0
    e28c:	0a00004d 	beq	e3c8 <handleLunaDisconnectRequest+0x238>
    e290:	e590e000 	ldr	lr, [r0]
    e294:	e35e0002 	cmp	lr, #2
    e298:	ca00004a 	bgt	e3c8 <handleLunaDisconnectRequest+0x238>
    e29c:	e3060dcc 	movw	r0, #28108	@ 0x6dcc
    e2a0:	e3400001 	movt	r0, #1
    e2a4:	eb0011b8 	bl	1298c <LOCALIZED>
    e2a8:	e3e05000 	mvn	r5, #0
    e2ac:	e1a04000 	mov	r4, r0
    e2b0:	e3540000 	cmp	r4, #0
    e2b4:	0a000015 	beq	e310 <handleLunaDisconnectRequest+0x180>
    e2b8:	ebfff156 	bl	a818 <json_object_new_object@plt>
    e2bc:	e1a03004 	mov	r3, r4
    e2c0:	e1a02005 	mov	r2, r5
    e2c4:	e3a01000 	mov	r1, #0
    e2c8:	e1a07000 	mov	r7, r0
    e2cc:	ebfffbca 	bl	d1fc <lhGenStdErrReturn>
    e2d0:	e1a00007 	mov	r0, r7
    e2d4:	ebfff17f 	bl	a8d8 <json_object_to_json_string@plt>
    e2d8:	e1a01008 	mov	r1, r8
    e2dc:	e1a02000 	mov	r2, r0
    e2e0:	e1a0000a 	mov	r0, sl
    e2e4:	ebfffbfe 	bl	d2e4 <lhReply>
    e2e8:	e3500000 	cmp	r0, #0
    e2ec:	1a000005 	bne	e308 <handleLunaDisconnectRequest+0x178>
    e2f0:	e5960000 	ldr	r0, [r6]
    e2f4:	e3500000 	cmp	r0, #0
    e2f8:	0a00002c 	beq	e3b0 <handleLunaDisconnectRequest+0x220>
    e2fc:	e5901000 	ldr	r1, [r0]
    e300:	e3510002 	cmp	r1, #2
    e304:	ca000029 	bgt	e3b0 <handleLunaDisconnectRequest+0x220>
    e308:	e1a00007 	mov	r0, r7
    e30c:	ebfff168 	bl	a8b4 <json_object_put@plt>
    e310:	e3a00001 	mov	r0, #1
    e314:	e28dd008 	add	sp, sp, #8
    e318:	e8bd87f0 	pop	{r4, r5, r6, r7, r8, r9, sl, pc}
    e31c:	e3a01007 	mov	r1, #7
    e320:	e59f311c 	ldr	r3, [pc, #284]	@ e444 <handleLunaDisconnectRequest+0x2b4>
    e324:	e3062d5c 	movw	r2, #27996	@ 0x6d5c
    e328:	e3402001 	movt	r2, #1
    e32c:	e58d4000 	str	r4, [sp]
    e330:	ebfff09f 	bl	a5b4 <PmLogPrint_@plt>
    e334:	e1a00004 	mov	r0, r4
    e338:	ebfff073 	bl	a50c <json_tokener_parse@plt>
    e33c:	e3700efa 	cmn	r0, #4000	@ 0xfa0
    e340:	e1a07000 	mov	r7, r0
    e344:	8affffce 	bhi	e284 <handleLunaDisconnectRequest+0xf4>
    e348:	ebfff73d 	bl	c044 <getActivePlugin>
    e34c:	e2509000 	subs	r9, r0, #0
    e350:	0a00002a 	beq	e400 <handleLunaDisconnectRequest+0x270>
    e354:	e3a00008 	mov	r0, #8
    e358:	ebfff0fb 	bl	a74c <g_malloc0@plt>
    e35c:	e1a05000 	mov	r5, r0
    e360:	e1a00008 	mov	r0, r8
    e364:	e585a000 	str	sl, [r5]
    e368:	e5858004 	str	r8, [r5, #4]
    e36c:	ebfff11d 	bl	a7e8 <LSMessageRef@plt>
    e370:	e5960000 	ldr	r0, [r6]
    e374:	e3500000 	cmp	r0, #0
    e378:	0a000018 	beq	e3e0 <handleLunaDisconnectRequest+0x250>
    e37c:	e590c000 	ldr	ip, [r0]
    e380:	e35c0006 	cmp	ip, #6
    e384:	ca000015 	bgt	e3e0 <handleLunaDisconnectRequest+0x250>
    e388:	e1a00005 	mov	r0, r5
    e38c:	e30d1b10 	movw	r1, #56080	@ 0xdb10
    e390:	e3401000 	movt	r1, #0
    e394:	e3a04000 	mov	r4, #0
    e398:	e1a0e00f 	mov	lr, pc
    e39c:	e599f02c 	ldr	pc, [r9, #44]	@ 0x2c
    e3a0:	e1a05004 	mov	r5, r4
    e3a4:	e1a00007 	mov	r0, r7
    e3a8:	ebfff141 	bl	a8b4 <json_object_put@plt>
    e3ac:	eaffffbf 	b	e2b0 <handleLunaDisconnectRequest+0x120>
    e3b0:	e3062e00 	movw	r2, #28160	@ 0x6e00
    e3b4:	e3a01003 	mov	r1, #3
    e3b8:	e3402001 	movt	r2, #1
    e3bc:	e59f3080 	ldr	r3, [pc, #128]	@ e444 <handleLunaDisconnectRequest+0x2b4>
    e3c0:	ebfff07b 	bl	a5b4 <PmLogPrint_@plt>
    e3c4:	eaffffcf 	b	e308 <handleLunaDisconnectRequest+0x178>
    e3c8:	e3062dc8 	movw	r2, #28104	@ 0x6dc8
    e3cc:	e3a01003 	mov	r1, #3
    e3d0:	e3402001 	movt	r2, #1
    e3d4:	e59f3068 	ldr	r3, [pc, #104]	@ e444 <handleLunaDisconnectRequest+0x2b4>
    e3d8:	ebfff075 	bl	a5b4 <PmLogPrint_@plt>
    e3dc:	eaffffae 	b	e29c <handleLunaDisconnectRequest+0x10c>
    e3e0:	e3062d70 	movw	r2, #28016	@ 0x6d70
    e3e4:	e3a01007 	mov	r1, #7
    e3e8:	e3402001 	movt	r2, #1
    e3ec:	e59f3050 	ldr	r3, [pc, #80]	@ e444 <handleLunaDisconnectRequest+0x2b4>
    e3f0:	e58d4004 	str	r4, [sp, #4]
    e3f4:	e58d8000 	str	r8, [sp]
    e3f8:	ebfff06d 	bl	a5b4 <PmLogPrint_@plt>
    e3fc:	eaffffe1 	b	e388 <handleLunaDisconnectRequest+0x1f8>
    e400:	e5960000 	ldr	r0, [r6]
    e404:	e3500000 	cmp	r0, #0
    e408:	0a000002 	beq	e418 <handleLunaDisconnectRequest+0x288>
    e40c:	e5904000 	ldr	r4, [r0]
    e410:	e3540002 	cmp	r4, #2
    e414:	da000004 	ble	e42c <handleLunaDisconnectRequest+0x29c>
    e418:	e3062da4 	movw	r2, #28068	@ 0x6da4
    e41c:	e3a01003 	mov	r1, #3
    e420:	e3402001 	movt	r2, #1
    e424:	e59f3018 	ldr	r3, [pc, #24]	@ e444 <handleLunaDisconnectRequest+0x2b4>
    e428:	ebfff061 	bl	a5b4 <PmLogPrint_@plt>
    e42c:	e3060da8 	movw	r0, #28072	@ 0x6da8
    e430:	e3400001 	movt	r0, #1
    e434:	eb001154 	bl	1298c <LOCALIZED>
    e438:	e3e05000 	mvn	r5, #0
    e43c:	e1a04000 	mov	r4, r0
    e440:	eaffffd7 	b	e3a4 <handleLunaDisconnectRequest+0x214>
    e444:	0001673c 	.word	0x0001673c

0000e448 <handleLunaConnectRequest>:
    e448:	e92d41f0 	push	{r4, r5, r6, r7, r8, lr}
    e44c:	e3015a78 	movw	r5, #6776	@ 0x1a78
    e450:	e3405002 	movt	r5, #2
    e454:	e1a07000 	mov	r7, r0
    e458:	e1a04001 	mov	r4, r1
    e45c:	e5950000 	ldr	r0, [r5]
    e460:	e3500000 	cmp	r0, #0
    e464:	0a000031 	beq	e530 <handleLunaConnectRequest+0xe8>
    e468:	e5903000 	ldr	r3, [r0]
    e46c:	e3530006 	cmp	r3, #6
    e470:	ca00002e 	bgt	e530 <handleLunaConnectRequest+0xe8>
    e474:	e3011aac 	movw	r1, #6828	@ 0x1aac
    e478:	e3401002 	movt	r1, #2
    e47c:	e5910000 	ldr	r0, [r1]
    e480:	ebfff033 	bl	a554 <g_timer_start@plt>
    e484:	e3a00008 	mov	r0, #8
    e488:	ebfff0af 	bl	a74c <g_malloc0@plt>
    e48c:	e1a06000 	mov	r6, r0
    e490:	e1a00004 	mov	r0, r4
    e494:	e5867000 	str	r7, [r6]
    e498:	e5864004 	str	r4, [r6, #4]
    e49c:	ebfff0d1 	bl	a7e8 <LSMessageRef@plt>
    e4a0:	ebfff62b 	bl	bd54 <profileGetActiveProfile>
    e4a4:	e3500000 	cmp	r0, #0
    e4a8:	0a000002 	beq	e4b8 <handleLunaConnectRequest+0x70>
    e4ac:	e5d02000 	ldrb	r2, [r0]
    e4b0:	e3520000 	cmp	r2, #0
    e4b4:	1a000023 	bne	e548 <handleLunaConnectRequest+0x100>
    e4b8:	e1a00004 	mov	r0, r4
    e4bc:	ebfff039 	bl	a5a8 <LSMessageGetPayload@plt>
    e4c0:	e250c000 	subs	ip, r0, #0
    e4c4:	01a0400c 	moveq	r4, ip
    e4c8:	0a000033 	beq	e59c <handleLunaConnectRequest+0x154>
    e4cc:	ebfff00e 	bl	a50c <json_tokener_parse@plt>
    e4d0:	e3700efa 	cmn	r0, #4000	@ 0xfa0
    e4d4:	e1a04000 	mov	r4, r0
    e4d8:	9a00002f 	bls	e59c <handleLunaConnectRequest+0x154>
    e4dc:	e5950000 	ldr	r0, [r5]
    e4e0:	e3500000 	cmp	r0, #0
    e4e4:	0a000002 	beq	e4f4 <handleLunaConnectRequest+0xac>
    e4e8:	e5903000 	ldr	r3, [r0]
    e4ec:	e3530002 	cmp	r3, #2
    e4f0:	da000004 	ble	e508 <handleLunaConnectRequest+0xc0>
    e4f4:	e3062dc8 	movw	r2, #28104	@ 0x6dc8
    e4f8:	e3a01003 	mov	r1, #3
    e4fc:	e3402001 	movt	r2, #1
    e500:	e59f3130 	ldr	r3, [pc, #304]	@ e638 <handleLunaConnectRequest+0x1f0>
    e504:	ebfff02a 	bl	a5b4 <PmLogPrint_@plt>
    e508:	e3060dcc 	movw	r0, #28108	@ 0x6dcc
    e50c:	e3400001 	movt	r0, #1
    e510:	eb00111d 	bl	1298c <LOCALIZED>
    e514:	e3a01000 	mov	r1, #0
    e518:	e3e02001 	mvn	r2, #1
    e51c:	e1a03000 	mov	r3, r0
    e520:	e1a00006 	mov	r0, r6
    e524:	ebfffc95 	bl	d780 <handleComplexCmdResponseCb>
    e528:	e3a00001 	mov	r0, #1
    e52c:	e8bd81f0 	pop	{r4, r5, r6, r7, r8, pc}
    e530:	e30622d4 	movw	r2, #25300	@ 0x62d4
    e534:	e3a01007 	mov	r1, #7
    e538:	e3402001 	movt	r2, #1
    e53c:	e59f30f4 	ldr	r3, [pc, #244]	@ e638 <handleLunaConnectRequest+0x1f0>
    e540:	ebfff01b 	bl	a5b4 <PmLogPrint_@plt>
    e544:	eaffffca 	b	e474 <handleLunaConnectRequest+0x2c>
    e548:	e5950000 	ldr	r0, [r5]
    e54c:	e3500000 	cmp	r0, #0
    e550:	0a000002 	beq	e560 <handleLunaConnectRequest+0x118>
    e554:	e5901000 	ldr	r1, [r0]
    e558:	e3510002 	cmp	r1, #2
    e55c:	da000004 	ble	e574 <handleLunaConnectRequest+0x12c>
    e560:	e3062e70 	movw	r2, #28272	@ 0x6e70
    e564:	e3a01003 	mov	r1, #3
    e568:	e3402001 	movt	r2, #1
    e56c:	e59f30c4 	ldr	r3, [pc, #196]	@ e638 <handleLunaConnectRequest+0x1f0>
    e570:	ebfff00f 	bl	a5b4 <PmLogPrint_@plt>
    e574:	e3060e74 	movw	r0, #28276	@ 0x6e74
    e578:	e3400001 	movt	r0, #1
    e57c:	eb001102 	bl	1298c <LOCALIZED>
    e580:	e3a01000 	mov	r1, #0
    e584:	e3e02003 	mvn	r2, #3
    e588:	e1a03000 	mov	r3, r0
    e58c:	e1a00006 	mov	r0, r6
    e590:	ebfffc7a 	bl	d780 <handleComplexCmdResponseCb>
    e594:	e3a00001 	mov	r0, #1
    e598:	e8bd81f0 	pop	{r4, r5, r6, r7, r8, pc}
    e59c:	e1a00004 	mov	r0, r4
    e5a0:	e3051b34 	movw	r1, #23348	@ 0x5b34
    e5a4:	e3401001 	movt	r1, #1
    e5a8:	ebfffc44 	bl	d6c0 <extractStringFromJsonObj>
    e5ac:	e2507000 	subs	r7, r0, #0
    e5b0:	0a000008 	beq	e5d8 <handleLunaConnectRequest+0x190>
    e5b4:	e5950000 	ldr	r0, [r5]
    e5b8:	e3500000 	cmp	r0, #0
    e5bc:	0a000017 	beq	e620 <handleLunaConnectRequest+0x1d8>
    e5c0:	e590e000 	ldr	lr, [r0]
    e5c4:	e35e0006 	cmp	lr, #6
    e5c8:	ca000014 	bgt	e620 <handleLunaConnectRequest+0x1d8>
    e5cc:	e5970000 	ldr	r0, [r7]
    e5d0:	e3a01004 	mov	r1, #4
    e5d4:	ebfff5df 	bl	bd58 <profileSetActivityState>
    e5d8:	e3a01001 	mov	r1, #1
    e5dc:	e1a00007 	mov	r0, r7
    e5e0:	ebffefc3 	bl	a4f4 <g_string_free@plt>
    e5e4:	e1a00004 	mov	r0, r4
    e5e8:	ebfff0b1 	bl	a8b4 <json_object_put@plt>
    e5ec:	e3a00000 	mov	r0, #0
    e5f0:	ebfff02e 	bl	a6b0 <g_timeout_source_new@plt>
    e5f4:	e1a02006 	mov	r2, r6
    e5f8:	e3a03000 	mov	r3, #0
    e5fc:	e3001200 	movw	r1, #512	@ 0x200
    e600:	e3401001 	movt	r1, #1
    e604:	e1a04000 	mov	r4, r0
    e608:	ebffef32 	bl	a2d8 <g_source_set_callback@plt>
    e60c:	ebffeff4 	bl	a5e4 <g_main_context_default@plt>
    e610:	e1a01000 	mov	r1, r0
    e614:	e1a00004 	mov	r0, r4
    e618:	ebfff063 	bl	a7ac <g_source_attach@plt>
    e61c:	eaffffdc 	b	e594 <handleLunaConnectRequest+0x14c>
    e620:	e3062e34 	movw	r2, #28212	@ 0x6e34
    e624:	e3a01007 	mov	r1, #7
    e628:	e3402001 	movt	r2, #1
    e62c:	e59f3004 	ldr	r3, [pc, #4]	@ e638 <handleLunaConnectRequest+0x1f0>
    e630:	ebffefdf 	bl	a5b4 <PmLogPrint_@plt>
    e634:	eaffffe4 	b	e5cc <handleLunaConnectRequest+0x184>
    e638:	00016758 	.word	0x00016758

0000e63c <handleLunaCmdConnectResponseCb>:
    e63c:	e92d41f0 	push	{r4, r5, r6, r7, r8, lr}
    e640:	e2527000 	subs	r7, r2, #0
    e644:	e1a04000 	mov	r4, r0
    e648:	e1a05001 	mov	r5, r1
    e64c:	e1a06003 	mov	r6, r3
    e650:	0a000002 	beq	e660 <handleLunaCmdConnectResponseCb+0x24>
    e654:	ebfff5be 	bl	bd54 <profileGetActiveProfile>
    e658:	e3a01001 	mov	r1, #1
    e65c:	ebfff5bd 	bl	bd58 <profileSetActivityState>
    e660:	e1a00004 	mov	r0, r4
    e664:	e1a01005 	mov	r1, r5
    e668:	e1a02007 	mov	r2, r7
    e66c:	e1a03006 	mov	r3, r6
    e670:	e8bd41f0 	pop	{r4, r5, r6, r7, r8, lr}
    e674:	eafffc41 	b	d780 <handleComplexCmdResponseCb>

0000e678 <sendNotificationConnectedWithOutProfile>:
    e678:	e3013a78 	movw	r3, #6776	@ 0x1a78
    e67c:	e3403002 	movt	r3, #2
    e680:	e92d4010 	push	{r4, lr}
    e684:	e5930000 	ldr	r0, [r3]
    e688:	e3500000 	cmp	r0, #0
    e68c:	0a000002 	beq	e69c <sendNotificationConnectedWithOutProfile+0x24>
    e690:	e5901000 	ldr	r1, [r0]
    e694:	e3510006 	cmp	r1, #6
    e698:	da000004 	ble	e6b0 <sendNotificationConnectedWithOutProfile+0x38>
    e69c:	e30622d4 	movw	r2, #25300	@ 0x62d4
    e6a0:	e3a01007 	mov	r1, #7
    e6a4:	e3402001 	movt	r2, #1
    e6a8:	e59f303c 	ldr	r3, [pc, #60]	@ e6ec <sendNotificationConnectedWithOutProfile+0x74>
    e6ac:	ebffefc0 	bl	a5b4 <PmLogPrint_@plt>
    e6b0:	ebfff058 	bl	a818 <json_object_new_object@plt>
    e6b4:	e1a04000 	mov	r4, r0
    e6b8:	e3a00001 	mov	r0, #1
    e6bc:	ebfff04c 	bl	a7f4 <json_object_new_boolean@plt>
    e6c0:	e3061ea8 	movw	r1, #28328	@ 0x6ea8
    e6c4:	e3401001 	movt	r1, #1
    e6c8:	e1a02000 	mov	r2, r0
    e6cc:	e1a00004 	mov	r0, r4
    e6d0:	ebffefab 	bl	a584 <json_object_object_add@plt>
    e6d4:	e1a00004 	mov	r0, r4
    e6d8:	ebffef4c 	bl	a410 <json_object_get_string@plt>
    e6dc:	ebfffd0c 	bl	db14 <handleLunaServiceSendMsgToAppCb>
    e6e0:	e1a00004 	mov	r0, r4
    e6e4:	e8bd4010 	pop	{r4, lr}
    e6e8:	eafff071 	b	a8b4 <json_object_put@plt>
    e6ec:	00016774 	.word	0x00016774

0000e6f0 <handleAddProfileResponseWhenNoProfileNameProvided>:
    e6f0:	e92d4070 	push	{r4, r5, r6, lr}
    e6f4:	e3015a78 	movw	r5, #6776	@ 0x1a78
    e6f8:	e3405002 	movt	r5, #2
    e6fc:	e1a04002 	mov	r4, r2
    e700:	e5950000 	ldr	r0, [r5]
    e704:	e3500000 	cmp	r0, #0
    e708:	0a00001a 	beq	e778 <handleAddProfileResponseWhenNoProfileNameProvided+0x88>
    e70c:	e5903000 	ldr	r3, [r0]
    e710:	e3530006 	cmp	r3, #6
    e714:	ca000017 	bgt	e778 <handleAddProfileResponseWhenNoProfileNameProvided+0x88>
    e718:	e3540000 	cmp	r4, #0
    e71c:	1a00001c 	bne	e794 <handleAddProfileResponseWhenNoProfileNameProvided+0xa4>
    e720:	e5950000 	ldr	r0, [r5]
    e724:	e3500000 	cmp	r0, #0
    e728:	0a000002 	beq	e738 <handleAddProfileResponseWhenNoProfileNameProvided+0x48>
    e72c:	e5901000 	ldr	r1, [r0]
    e730:	e3510006 	cmp	r1, #6
    e734:	da000004 	ble	e74c <handleAddProfileResponseWhenNoProfileNameProvided+0x5c>
    e738:	e3062ec0 	movw	r2, #28352	@ 0x6ec0
    e73c:	e3a01007 	mov	r1, #7
    e740:	e3402001 	movt	r2, #1
    e744:	e59f30a8 	ldr	r3, [pc, #168]	@ e7f4 <handleAddProfileResponseWhenNoProfileNameProvided+0x104>
    e748:	ebffef99 	bl	a5b4 <PmLogPrint_@plt>
    e74c:	e3014a9c 	movw	r4, #6812	@ 0x1a9c
    e750:	e3404002 	movt	r4, #2
    e754:	e5940004 	ldr	r0, [r4, #4]
    e758:	e3500000 	cmp	r0, #0
    e75c:	0a000018 	beq	e7c4 <handleAddProfileResponseWhenNoProfileNameProvided+0xd4>
    e760:	e3a01003 	mov	r1, #3
    e764:	ebfff57b 	bl	bd58 <profileSetActivityState>
    e768:	e5940004 	ldr	r0, [r4, #4]
    e76c:	ebffeea3 	bl	a200 <g_free@plt>
    e770:	e8bd4070 	pop	{r4, r5, r6, lr}
    e774:	eaffffbf 	b	e678 <sendNotificationConnectedWithOutProfile>
    e778:	e30622d4 	movw	r2, #25300	@ 0x62d4
    e77c:	e3a01007 	mov	r1, #7
    e780:	e3402001 	movt	r2, #1
    e784:	e59f3068 	ldr	r3, [pc, #104]	@ e7f4 <handleAddProfileResponseWhenNoProfileNameProvided+0x104>
    e788:	ebffef89 	bl	a5b4 <PmLogPrint_@plt>
    e78c:	e3540000 	cmp	r4, #0
    e790:	0affffe2 	beq	e720 <handleAddProfileResponseWhenNoProfileNameProvided+0x30>
    e794:	e5950000 	ldr	r0, [r5]
    e798:	e3500000 	cmp	r0, #0
    e79c:	0a000002 	beq	e7ac <handleAddProfileResponseWhenNoProfileNameProvided+0xbc>
    e7a0:	e590c000 	ldr	ip, [r0]
    e7a4:	e35c0002 	cmp	ip, #2
    e7a8:	d8bd8070 	pople	{r4, r5, r6, pc}
    e7ac:	e3062efc 	movw	r2, #28412	@ 0x6efc
    e7b0:	e3a01003 	mov	r1, #3
    e7b4:	e3402001 	movt	r2, #1
    e7b8:	e59f3034 	ldr	r3, [pc, #52]	@ e7f4 <handleAddProfileResponseWhenNoProfileNameProvided+0x104>
    e7bc:	e8bd4070 	pop	{r4, r5, r6, lr}
    e7c0:	eaffef7b 	b	a5b4 <PmLogPrint_@plt>
    e7c4:	e5950000 	ldr	r0, [r5]
    e7c8:	e3500000 	cmp	r0, #0
    e7cc:	0a000002 	beq	e7dc <handleAddProfileResponseWhenNoProfileNameProvided+0xec>
    e7d0:	e5902000 	ldr	r2, [r0]
    e7d4:	e3520002 	cmp	r2, #2
    e7d8:	d8bd8070 	pople	{r4, r5, r6, pc}
    e7dc:	e3062ee0 	movw	r2, #28384	@ 0x6ee0
    e7e0:	e3a01003 	mov	r1, #3
    e7e4:	e3402001 	movt	r2, #1
    e7e8:	e59f3004 	ldr	r3, [pc, #4]	@ e7f4 <handleAddProfileResponseWhenNoProfileNameProvided+0x104>
    e7ec:	e8bd4070 	pop	{r4, r5, r6, lr}
    e7f0:	eaffef6f 	b	a5b4 <PmLogPrint_@plt>
    e7f4:	0001679c 	.word	0x0001679c

0000e7f8 <sendDashBoardBannerNotification>:
    e7f8:	e92d4070 	push	{r4, r5, r6, lr}
    e7fc:	e1a05000 	mov	r5, r0
    e800:	ebfff004 	bl	a818 <json_object_new_object@plt>
    e804:	e1a04000 	mov	r4, r0
    e808:	e3a00001 	mov	r0, #1
    e80c:	ebffeff8 	bl	a7f4 <json_object_new_boolean@plt>
    e810:	e3061f18 	movw	r1, #28440	@ 0x6f18
    e814:	e3401001 	movt	r1, #1
    e818:	e1a02000 	mov	r2, r0
    e81c:	e1a00004 	mov	r0, r4
    e820:	ebffef57 	bl	a584 <json_object_object_add@plt>
    e824:	e3550000 	cmp	r5, #0
    e828:	0a000006 	beq	e848 <sendDashBoardBannerNotification+0x50>
    e82c:	e1a00005 	mov	r0, r5
    e830:	ebffeeab 	bl	a2e4 <json_object_new_string@plt>
    e834:	e3051b34 	movw	r1, #23348	@ 0x5b34
    e838:	e3401001 	movt	r1, #1
    e83c:	e1a02000 	mov	r2, r0
    e840:	e1a00004 	mov	r0, r4
    e844:	ebffef4e 	bl	a584 <json_object_object_add@plt>
    e848:	e1a00004 	mov	r0, r4
    e84c:	ebffeeef 	bl	a410 <json_object_get_string@plt>
    e850:	ebfffcaf 	bl	db14 <handleLunaServiceSendMsgToAppCb>
    e854:	e1a00004 	mov	r0, r4
    e858:	e8bd4070 	pop	{r4, r5, r6, lr}
    e85c:	eafff014 	b	a8b4 <json_object_put@plt>

0000e860 <lunaServiceNotifyTask>:
    e860:	e92d4ff0 	push	{r4, r5, r6, r7, r8, r9, sl, fp, lr}
    e864:	e2507000 	subs	r7, r0, #0
    e868:	e24dd01c 	sub	sp, sp, #28
    e86c:	0a000088 	beq	ea94 <lunaServiceNotifyTask+0x234>
    e870:	e3016a78 	movw	r6, #6776	@ 0x1a78
    e874:	e3406002 	movt	r6, #2
    e878:	e5960000 	ldr	r0, [r6]
    e87c:	e3500000 	cmp	r0, #0
    e880:	0a000002 	beq	e890 <lunaServiceNotifyTask+0x30>
    e884:	e5902000 	ldr	r2, [r0]
    e888:	e3520005 	cmp	r2, #5
    e88c:	da000005 	ble	e8a8 <lunaServiceNotifyTask+0x48>
    e890:	e3062220 	movw	r2, #25120	@ 0x6220
    e894:	e3a01006 	mov	r1, #6
    e898:	e3402001 	movt	r2, #1
    e89c:	e59f3504 	ldr	r3, [pc, #1284]	@ eda8 <lunaServiceNotifyTask+0x548>
    e8a0:	e58d7000 	str	r7, [sp]
    e8a4:	ebffef42 	bl	a5b4 <PmLogPrint_@plt>
    e8a8:	e3060f40 	movw	r0, #28480	@ 0x6f40
    e8ac:	e1a01007 	mov	r1, r7
    e8b0:	e3400001 	movt	r0, #1
    e8b4:	ebfffadc 	bl	d42c <lhNotifySubscribers>
    e8b8:	e3500000 	cmp	r0, #0
    e8bc:	0a000009 	beq	e8e8 <lunaServiceNotifyTask+0x88>
    e8c0:	e1a00007 	mov	r0, r7
    e8c4:	ebffef10 	bl	a50c <json_tokener_parse@plt>
    e8c8:	e3700efa 	cmn	r0, #4000	@ 0xfa0
    e8cc:	e1a05000 	mov	r5, r0
    e8d0:	9a000010 	bls	e918 <lunaServiceNotifyTask+0xb8>
    e8d4:	e1a00007 	mov	r0, r7
    e8d8:	ebffee48 	bl	a200 <g_free@plt>
    e8dc:	e3a00000 	mov	r0, #0
    e8e0:	e28dd01c 	add	sp, sp, #28
    e8e4:	e8bd8ff0 	pop	{r4, r5, r6, r7, r8, r9, sl, fp, pc}
    e8e8:	e5960000 	ldr	r0, [r6]
    e8ec:	e3500000 	cmp	r0, #0
    e8f0:	0a000002 	beq	e900 <lunaServiceNotifyTask+0xa0>
    e8f4:	e5905000 	ldr	r5, [r0]
    e8f8:	e3550002 	cmp	r5, #2
    e8fc:	daffffef 	ble	e8c0 <lunaServiceNotifyTask+0x60>
    e900:	e3062d28 	movw	r2, #27944	@ 0x6d28
    e904:	e3a01003 	mov	r1, #3
    e908:	e3402001 	movt	r2, #1
    e90c:	e59f3494 	ldr	r3, [pc, #1172]	@ eda8 <lunaServiceNotifyTask+0x548>
    e910:	ebffef27 	bl	a5b4 <PmLogPrint_@plt>
    e914:	eaffffe9 	b	e8c0 <lunaServiceNotifyTask+0x60>
    e918:	e3061d54 	movw	r1, #27988	@ 0x6d54
    e91c:	e3401001 	movt	r1, #1
    e920:	ebffef56 	bl	a680 <json_object_object_get@plt>
    e924:	e3500000 	cmp	r0, #0
    e928:	0a00002e 	beq	e9e8 <lunaServiceNotifyTask+0x188>
    e92c:	ebffeeb7 	bl	a410 <json_object_get_string@plt>
    e930:	e3051b64 	movw	r1, #23396	@ 0x5b64
    e934:	e3401001 	movt	r1, #1
    e938:	e1a04000 	mov	r4, r0
    e93c:	ebffefe8 	bl	a8e4 <g_ascii_strcasecmp@plt>
    e940:	e3500000 	cmp	r0, #0
    e944:	1a00002a 	bne	e9f4 <lunaServiceNotifyTask+0x194>
    e948:	e1a00005 	mov	r0, r5
    e94c:	ebffefd8 	bl	a8b4 <json_object_put@plt>
    e950:	e3013a9c 	movw	r3, #6812	@ 0x1a9c
    e954:	e3403002 	movt	r3, #2
    e958:	e5930008 	ldr	r0, [r3, #8]
    e95c:	e3500000 	cmp	r0, #0
    e960:	03a04001 	moveq	r4, #1
    e964:	0a000002 	beq	e974 <lunaServiceNotifyTask+0x114>
    e968:	ebfff4f9 	bl	bd54 <profileGetActiveProfile>
    e96c:	e3a04001 	mov	r4, #1
    e970:	ebffffa0 	bl	e7f8 <sendDashBoardBannerNotification>
    e974:	ebfff4f6 	bl	bd54 <profileGetActiveProfile>
    e978:	e1a01004 	mov	r1, r4
    e97c:	ebfff4f5 	bl	bd58 <profileSetActivityState>
    e980:	e3540001 	cmp	r4, #1
    e984:	0a00003b 	beq	ea78 <lunaServiceNotifyTask+0x218>
    e988:	e3540003 	cmp	r4, #3
    e98c:	1affffd0 	bne	e8d4 <lunaServiceNotifyTask+0x74>
    e990:	e3018a9c 	movw	r8, #6812	@ 0x1a9c
    e994:	e3408002 	movt	r8, #2
    e998:	e3a02001 	mov	r2, #1
    e99c:	e1a00007 	mov	r0, r7
    e9a0:	e5882008 	str	r2, [r8, #8]
    e9a4:	ebffeed8 	bl	a50c <json_tokener_parse@plt>
    e9a8:	e3700efa 	cmn	r0, #4000	@ 0xfa0
    e9ac:	e1a05000 	mov	r5, r0
    e9b0:	8affffc7 	bhi	e8d4 <lunaServiceNotifyTask+0x74>
    e9b4:	e3051b44 	movw	r1, #23364	@ 0x5b44
    e9b8:	e3401001 	movt	r1, #1
    e9bc:	ebfffb3f 	bl	d6c0 <extractStringFromJsonObj>
    e9c0:	e2508000 	subs	r8, r0, #0
    e9c4:	0a000056 	beq	eb24 <lunaServiceNotifyTask+0x2c4>
    e9c8:	e5984000 	ldr	r4, [r8]
    e9cc:	ebfff4e0 	bl	bd54 <profileGetActiveProfile>
    e9d0:	e1a01000 	mov	r1, r0
    e9d4:	e1a00004 	mov	r0, r4
    e9d8:	eb000b00 	bl	115e0 <saveDataForRecovery>
    e9dc:	e1a00008 	mov	r0, r8
    e9e0:	e3a01001 	mov	r1, #1
    e9e4:	ebffeec2 	bl	a4f4 <g_string_free@plt>
    e9e8:	e1a00005 	mov	r0, r5
    e9ec:	ebffefb0 	bl	a8b4 <json_object_put@plt>
    e9f0:	eaffffb7 	b	e8d4 <lunaServiceNotifyTask+0x74>
    e9f4:	e1a00004 	mov	r0, r4
    e9f8:	e3051b54 	movw	r1, #23380	@ 0x5b54
    e9fc:	e3401001 	movt	r1, #1
    ea00:	ebffefb7 	bl	a8e4 <g_ascii_strcasecmp@plt>
    ea04:	e3500000 	cmp	r0, #0
    ea08:	03a04002 	moveq	r4, #2
    ea0c:	1a00002e 	bne	eacc <lunaServiceNotifyTask+0x26c>
    ea10:	e1a00005 	mov	r0, r5
    ea14:	ebffefa6 	bl	a8b4 <json_object_put@plt>
    ea18:	e3540003 	cmp	r4, #3
    ea1c:	1affffd4 	bne	e974 <lunaServiceNotifyTask+0x114>
    ea20:	ebfff4cb 	bl	bd54 <profileGetActiveProfile>
    ea24:	e3500000 	cmp	r0, #0
    ea28:	1affffd1 	bne	e974 <lunaServiceNotifyTask+0x114>
    ea2c:	e1a00007 	mov	r0, r7
    ea30:	ebffeeb5 	bl	a50c <json_tokener_parse@plt>
    ea34:	e3700efa 	cmn	r0, #4000	@ 0xfa0
    ea38:	e1a0a000 	mov	sl, r0
    ea3c:	9a000044 	bls	eb54 <lunaServiceNotifyTask+0x2f4>
    ea40:	e5960000 	ldr	r0, [r6]
    ea44:	e3500000 	cmp	r0, #0
    ea48:	0a000002 	beq	ea58 <lunaServiceNotifyTask+0x1f8>
    ea4c:	e5903000 	ldr	r3, [r0]
    ea50:	e3530002 	cmp	r3, #2
    ea54:	daffffcd 	ble	e990 <lunaServiceNotifyTask+0x130>
    ea58:	e3a01003 	mov	r1, #3
    ea5c:	e3072058 	movw	r2, #28760	@ 0x7058
    ea60:	e59f3340 	ldr	r3, [pc, #832]	@ eda8 <lunaServiceNotifyTask+0x548>
    ea64:	e3402001 	movt	r2, #1
    ea68:	e3018a9c 	movw	r8, #6812	@ 0x1a9c
    ea6c:	ebffeed0 	bl	a5b4 <PmLogPrint_@plt>
    ea70:	e3408002 	movt	r8, #2
    ea74:	eaffffc7 	b	e998 <lunaServiceNotifyTask+0x138>
    ea78:	e3011a9c 	movw	r1, #6812	@ 0x1a9c
    ea7c:	e3401002 	movt	r1, #2
    ea80:	e3a00000 	mov	r0, #0
    ea84:	e5810008 	str	r0, [r1, #8]
    ea88:	eb0009eb 	bl	1123c <removeRecoveryData>
    ea8c:	ebfff570 	bl	c054 <deactivatePlugin>
    ea90:	eaffff8f 	b	e8d4 <lunaServiceNotifyTask+0x74>
    ea94:	e3013a78 	movw	r3, #6776	@ 0x1a78
    ea98:	e3403002 	movt	r3, #2
    ea9c:	e5930000 	ldr	r0, [r3]
    eaa0:	e3500000 	cmp	r0, #0
    eaa4:	0a000002 	beq	eab4 <lunaServiceNotifyTask+0x254>
    eaa8:	e5901000 	ldr	r1, [r0]
    eaac:	e3510002 	cmp	r1, #2
    eab0:	daffff89 	ble	e8dc <lunaServiceNotifyTask+0x7c>
    eab4:	e3a01003 	mov	r1, #3
    eab8:	e3062f28 	movw	r2, #28456	@ 0x6f28
    eabc:	e59f32e4 	ldr	r3, [pc, #740]	@ eda8 <lunaServiceNotifyTask+0x548>
    eac0:	e3402001 	movt	r2, #1
    eac4:	ebffeeba 	bl	a5b4 <PmLogPrint_@plt>
    eac8:	eaffff83 	b	e8dc <lunaServiceNotifyTask+0x7c>
    eacc:	e1a00004 	mov	r0, r4
    ead0:	e3051b8c 	movw	r1, #23436	@ 0x5b8c
    ead4:	e3401001 	movt	r1, #1
    ead8:	ebffef81 	bl	a8e4 <g_ascii_strcasecmp@plt>
    eadc:	e3500000 	cmp	r0, #0
    eae0:	03a04005 	moveq	r4, #5
    eae4:	0affffc9 	beq	ea10 <lunaServiceNotifyTask+0x1b0>
    eae8:	e1a00004 	mov	r0, r4
    eaec:	e3051b74 	movw	r1, #23412	@ 0x5b74
    eaf0:	e3401001 	movt	r1, #1
    eaf4:	ebffef7a 	bl	a8e4 <g_ascii_strcasecmp@plt>
    eaf8:	e3500000 	cmp	r0, #0
    eafc:	03a04003 	moveq	r4, #3
    eb00:	0affffc2 	beq	ea10 <lunaServiceNotifyTask+0x1b0>
    eb04:	e1a00004 	mov	r0, r4
    eb08:	e3051b80 	movw	r1, #23424	@ 0x5b80
    eb0c:	e3401001 	movt	r1, #1
    eb10:	ebffef73 	bl	a8e4 <g_ascii_strcasecmp@plt>
    eb14:	e3500000 	cmp	r0, #0
    eb18:	03a04004 	moveq	r4, #4
    eb1c:	0affffbb 	beq	ea10 <lunaServiceNotifyTask+0x1b0>
    eb20:	eaffffb0 	b	e9e8 <lunaServiceNotifyTask+0x188>
    eb24:	e5960000 	ldr	r0, [r6]
    eb28:	e3500000 	cmp	r0, #0
    eb2c:	0a000002 	beq	eb3c <lunaServiceNotifyTask+0x2dc>
    eb30:	e590c000 	ldr	ip, [r0]
    eb34:	e35c0002 	cmp	ip, #2
    eb38:	daffffa7 	ble	e9dc <lunaServiceNotifyTask+0x17c>
    eb3c:	e3072084 	movw	r2, #28804	@ 0x7084
    eb40:	e3a01003 	mov	r1, #3
    eb44:	e3402001 	movt	r2, #1
    eb48:	e59f3258 	ldr	r3, [pc, #600]	@ eda8 <lunaServiceNotifyTask+0x548>
    eb4c:	ebffee98 	bl	a5b4 <PmLogPrint_@plt>
    eb50:	eaffffa1 	b	e9dc <lunaServiceNotifyTask+0x17c>
    eb54:	e3051b44 	movw	r1, #23364	@ 0x5b44
    eb58:	e3401001 	movt	r1, #1
    eb5c:	ebfffad7 	bl	d6c0 <extractStringFromJsonObj>
    eb60:	e3061f4c 	movw	r1, #28492	@ 0x6f4c
    eb64:	e3401001 	movt	r1, #1
    eb68:	e58d0008 	str	r0, [sp, #8]
    eb6c:	e1a0000a 	mov	r0, sl
    eb70:	ebfffad2 	bl	d6c0 <extractStringFromJsonObj>
    eb74:	e3051b34 	movw	r1, #23348	@ 0x5b34
    eb78:	e3401001 	movt	r1, #1
    eb7c:	e58d000c 	str	r0, [sp, #12]
    eb80:	e1a0000a 	mov	r0, sl
    eb84:	ebfffacd 	bl	d6c0 <extractStringFromJsonObj>
    eb88:	e250b000 	subs	fp, r0, #0
    eb8c:	0a00001e 	beq	ec0c <lunaServiceNotifyTask+0x3ac>
    eb90:	e5960000 	ldr	r0, [r6]
    eb94:	e3500000 	cmp	r0, #0
    eb98:	0a000002 	beq	eba8 <lunaServiceNotifyTask+0x348>
    eb9c:	e5908000 	ldr	r8, [r0]
    eba0:	e3580006 	cmp	r8, #6
    eba4:	da000006 	ble	ebc4 <lunaServiceNotifyTask+0x364>
    eba8:	e59bc000 	ldr	ip, [fp]
    ebac:	e3062f54 	movw	r2, #28500	@ 0x6f54
    ebb0:	e3a01007 	mov	r1, #7
    ebb4:	e3402001 	movt	r2, #1
    ebb8:	e59f31e8 	ldr	r3, [pc, #488]	@ eda8 <lunaServiceNotifyTask+0x548>
    ebbc:	e58dc000 	str	ip, [sp]
    ebc0:	ebffee7b 	bl	a5b4 <PmLogPrint_@plt>
    ebc4:	e59b0000 	ldr	r0, [fp]
    ebc8:	e3a01003 	mov	r1, #3
    ebcc:	e3018a9c 	movw	r8, #6812	@ 0x1a9c
    ebd0:	ebfff460 	bl	bd58 <profileSetActivityState>
    ebd4:	e3408002 	movt	r8, #2
    ebd8:	ebfffea6 	bl	e678 <sendNotificationConnectedWithOutProfile>
    ebdc:	e59d0008 	ldr	r0, [sp, #8]
    ebe0:	e3a01001 	mov	r1, #1
    ebe4:	ebffee42 	bl	a4f4 <g_string_free@plt>
    ebe8:	e59d000c 	ldr	r0, [sp, #12]
    ebec:	e3a01001 	mov	r1, #1
    ebf0:	ebffee3f 	bl	a4f4 <g_string_free@plt>
    ebf4:	e1a0000b 	mov	r0, fp
    ebf8:	e3a01001 	mov	r1, #1
    ebfc:	ebffee3c 	bl	a4f4 <g_string_free@plt>
    ec00:	e1a0000a 	mov	r0, sl
    ec04:	ebffef2a 	bl	a8b4 <json_object_put@plt>
    ec08:	eaffff62 	b	e998 <lunaServiceNotifyTask+0x138>
    ec0c:	e59d0008 	ldr	r0, [sp, #8]
    ec10:	e59de00c 	ldr	lr, [sp, #12]
    ec14:	e3500000 	cmp	r0, #0
    ec18:	135e0000 	cmpne	lr, #0
    ec1c:	0a00005e 	beq	ed9c <lunaServiceNotifyTask+0x53c>
    ec20:	e5960000 	ldr	r0, [r6]
    ec24:	e3500000 	cmp	r0, #0
    ec28:	0a000002 	beq	ec38 <lunaServiceNotifyTask+0x3d8>
    ec2c:	e5909000 	ldr	r9, [r0]
    ec30:	e3590006 	cmp	r9, #6
    ec34:	da000004 	ble	ec4c <lunaServiceNotifyTask+0x3ec>
    ec38:	e3062fd0 	movw	r2, #28624	@ 0x6fd0
    ec3c:	e3a01007 	mov	r1, #7
    ec40:	e3402001 	movt	r2, #1
    ec44:	e59f315c 	ldr	r3, [pc, #348]	@ eda8 <lunaServiceNotifyTask+0x548>
    ec48:	ebffee59 	bl	a5b4 <PmLogPrint_@plt>
    ec4c:	e3a00000 	mov	r0, #0
    ec50:	ebffee93 	bl	a6a4 <time@plt>
    ec54:	e58d0014 	str	r0, [sp, #20]
    ec58:	ebffeeee 	bl	a818 <json_object_new_object@plt>
    ec5c:	e2509000 	subs	r9, r0, #0
    ec60:	0a00004d 	beq	ed9c <lunaServiceNotifyTask+0x53c>
    ec64:	ebffeeeb 	bl	a818 <json_object_new_object@plt>
    ec68:	e59d100c 	ldr	r1, [sp, #12]
    ec6c:	e5918000 	ldr	r8, [r1]
    ec70:	e1a05000 	mov	r5, r0
    ec74:	e28d0014 	add	r0, sp, #20
    ec78:	ebffee5f 	bl	a5fc <ctime@plt>
    ec7c:	e1a01008 	mov	r1, r8
    ec80:	e3018a9c 	movw	r8, #6812	@ 0x1a9c
    ec84:	e3408002 	movt	r8, #2
    ec88:	e1a02000 	mov	r2, r0
    ec8c:	e3070024 	movw	r0, #28708	@ 0x7024
    ec90:	e3400001 	movt	r0, #1
    ec94:	ebffee0a 	bl	a4c4 <g_strdup_printf@plt>
    ec98:	e5880004 	str	r0, [r8, #4]
    ec9c:	ebffed90 	bl	a2e4 <json_object_new_string@plt>
    eca0:	e3051b34 	movw	r1, #23348	@ 0x5b34
    eca4:	e3401001 	movt	r1, #1
    eca8:	e1a02000 	mov	r2, r0
    ecac:	e1a00009 	mov	r0, r9
    ecb0:	ebffee33 	bl	a584 <json_object_object_add@plt>
    ecb4:	e59d3008 	ldr	r3, [sp, #8]
    ecb8:	e5930000 	ldr	r0, [r3]
    ecbc:	ebffed88 	bl	a2e4 <json_object_new_string@plt>
    ecc0:	e3051b44 	movw	r1, #23364	@ 0x5b44
    ecc4:	e3401001 	movt	r1, #1
    ecc8:	e1a02000 	mov	r2, r0
    eccc:	e1a00009 	mov	r0, r9
    ecd0:	ebffee2b 	bl	a584 <json_object_object_add@plt>
    ecd4:	e1a02005 	mov	r2, r5
    ecd8:	e1a00009 	mov	r0, r9
    ecdc:	e307102c 	movw	r1, #28716	@ 0x702c
    ece0:	e3401001 	movt	r1, #1
    ece4:	ebffee26 	bl	a584 <json_object_object_add@plt>
    ece8:	e59d400c 	ldr	r4, [sp, #12]
    ecec:	e5940000 	ldr	r0, [r4]
    ecf0:	ebffed7b 	bl	a2e4 <json_object_new_string@plt>
    ecf4:	e3061f4c 	movw	r1, #28492	@ 0x6f4c
    ecf8:	e3401001 	movt	r1, #1
    ecfc:	e1a02000 	mov	r2, r0
    ed00:	e1a00005 	mov	r0, r5
    ed04:	ebffee1e 	bl	a584 <json_object_object_add@plt>
    ed08:	ebffee5f 	bl	a68c <json_object_new_array@plt>
    ed0c:	e3071038 	movw	r1, #28728	@ 0x7038
    ed10:	e3401001 	movt	r1, #1
    ed14:	e1a02000 	mov	r2, r0
    ed18:	e1a00005 	mov	r0, r5
    ed1c:	ebffee18 	bl	a584 <json_object_object_add@plt>
    ed20:	e5964000 	ldr	r4, [r6]
    ed24:	e3540000 	cmp	r4, #0
    ed28:	0a000002 	beq	ed38 <lunaServiceNotifyTask+0x4d8>
    ed2c:	e5942000 	ldr	r2, [r4]
    ed30:	e3520006 	cmp	r2, #6
    ed34:	da000008 	ble	ed5c <lunaServiceNotifyTask+0x4fc>
    ed38:	e1a00009 	mov	r0, r9
    ed3c:	ebffeee5 	bl	a8d8 <json_object_to_json_string@plt>
    ed40:	e3072048 	movw	r2, #28744	@ 0x7048
    ed44:	e3a01007 	mov	r1, #7
    ed48:	e3402001 	movt	r2, #1
    ed4c:	e59f3054 	ldr	r3, [pc, #84]	@ eda8 <lunaServiceNotifyTask+0x548>
    ed50:	e58d0000 	str	r0, [sp]
    ed54:	e1a00004 	mov	r0, r4
    ed58:	ebffee15 	bl	a5b4 <PmLogPrint_@plt>
    ed5c:	e59de008 	ldr	lr, [sp, #8]
    ed60:	e1a00009 	mov	r0, r9
    ed64:	e5984004 	ldr	r4, [r8, #4]
    ed68:	e59e5000 	ldr	r5, [lr]
    ed6c:	ebffeed9 	bl	a8d8 <json_object_to_json_string@plt>
    ed70:	e1a01004 	mov	r1, r4
    ed74:	e30ec6f0 	movw	ip, #59120	@ 0xe6f0
    ed78:	e340c000 	movt	ip, #0
    ed7c:	e58dc000 	str	ip, [sp]
    ed80:	e1a02005 	mov	r2, r5
    ed84:	e1a03000 	mov	r3, r0
    ed88:	e3a00000 	mov	r0, #0
    ed8c:	ebfff47b 	bl	bf80 <profileAddOrUpdate>
    ed90:	e1a00009 	mov	r0, r9
    ed94:	ebffeec6 	bl	a8b4 <json_object_put@plt>
    ed98:	eaffff8f 	b	ebdc <lunaServiceNotifyTask+0x37c>
    ed9c:	e3018a9c 	movw	r8, #6812	@ 0x1a9c
    eda0:	e3408002 	movt	r8, #2
    eda4:	eaffff8c 	b	ebdc <lunaServiceNotifyTask+0x37c>
    eda8:	000167d0 	.word	0x000167d0

0000edac <handleLunaProfileUpdateRequest>:
    edac:	e3013aac 	movw	r3, #6828	@ 0x1aac
    edb0:	e3403002 	movt	r3, #2
    edb4:	e92d45f0 	push	{r4, r5, r6, r7, r8, sl, lr}
    edb8:	e1a04000 	mov	r4, r0
    edbc:	e24dd00c 	sub	sp, sp, #12
    edc0:	e5930000 	ldr	r0, [r3]
    edc4:	e1a05001 	mov	r5, r1
    edc8:	ebffede1 	bl	a554 <g_timer_start@plt>
    edcc:	e3a00008 	mov	r0, #8
    edd0:	ebffee5d 	bl	a74c <g_malloc0@plt>
    edd4:	e1a06000 	mov	r6, r0
    edd8:	e1a00005 	mov	r0, r5
    eddc:	e8860030 	stm	r6, {r4, r5}
    ede0:	ebffee80 	bl	a7e8 <LSMessageRef@plt>
    ede4:	e1a00005 	mov	r0, r5
    ede8:	ebffedee 	bl	a5a8 <LSMessageGetPayload@plt>
    edec:	e2507000 	subs	r7, r0, #0
    edf0:	0a000062 	beq	ef80 <handleLunaProfileUpdateRequest+0x1d4>
    edf4:	e3014a78 	movw	r4, #6776	@ 0x1a78
    edf8:	e3404002 	movt	r4, #2
    edfc:	e5940000 	ldr	r0, [r4]
    ee00:	e3500000 	cmp	r0, #0
    ee04:	0a00001d 	beq	ee80 <handleLunaProfileUpdateRequest+0xd4>
    ee08:	e5901000 	ldr	r1, [r0]
    ee0c:	e3510006 	cmp	r1, #6
    ee10:	ca00001a 	bgt	ee80 <handleLunaProfileUpdateRequest+0xd4>
    ee14:	e1a00007 	mov	r0, r7
    ee18:	ebffedbb 	bl	a50c <json_tokener_parse@plt>
    ee1c:	e3700efa 	cmn	r0, #4000	@ 0xfa0
    ee20:	e1a0a000 	mov	sl, r0
    ee24:	9a000020 	bls	eeac <handleLunaProfileUpdateRequest+0x100>
    ee28:	e5940000 	ldr	r0, [r4]
    ee2c:	e3500000 	cmp	r0, #0
    ee30:	0a000002 	beq	ee40 <handleLunaProfileUpdateRequest+0x94>
    ee34:	e5903000 	ldr	r3, [r0]
    ee38:	e3530002 	cmp	r3, #2
    ee3c:	da000004 	ble	ee54 <handleLunaProfileUpdateRequest+0xa8>
    ee40:	e3062dc8 	movw	r2, #28104	@ 0x6dc8
    ee44:	e3a01003 	mov	r1, #3
    ee48:	e3402001 	movt	r2, #1
    ee4c:	e59f31f4 	ldr	r3, [pc, #500]	@ f048 <handleLunaProfileUpdateRequest+0x29c>
    ee50:	ebffedd7 	bl	a5b4 <PmLogPrint_@plt>
    ee54:	e3060dcc 	movw	r0, #28108	@ 0x6dcc
    ee58:	e3400001 	movt	r0, #1
    ee5c:	eb000eca 	bl	1298c <LOCALIZED>
    ee60:	e3a01000 	mov	r1, #0
    ee64:	e3e02001 	mvn	r2, #1
    ee68:	e1a03000 	mov	r3, r0
    ee6c:	e1a00006 	mov	r0, r6
    ee70:	ebfffa42 	bl	d780 <handleComplexCmdResponseCb>
    ee74:	e3a00001 	mov	r0, #1
    ee78:	e28dd00c 	add	sp, sp, #12
    ee7c:	e8bd85f0 	pop	{r4, r5, r6, r7, r8, sl, pc}
    ee80:	e3a01007 	mov	r1, #7
    ee84:	e59f31bc 	ldr	r3, [pc, #444]	@ f048 <handleLunaProfileUpdateRequest+0x29c>
    ee88:	e30720a0 	movw	r2, #28832	@ 0x70a0
    ee8c:	e3402001 	movt	r2, #1
    ee90:	e58d5000 	str	r5, [sp]
    ee94:	ebffedc6 	bl	a5b4 <PmLogPrint_@plt>
    ee98:	e1a00007 	mov	r0, r7
    ee9c:	ebffed9a 	bl	a50c <json_tokener_parse@plt>
    eea0:	e3700efa 	cmn	r0, #4000	@ 0xfa0
    eea4:	e1a0a000 	mov	sl, r0
    eea8:	8affffde 	bhi	ee28 <handleLunaProfileUpdateRequest+0x7c>
    eeac:	e3051b34 	movw	r1, #23348	@ 0x5b34
    eeb0:	e3401001 	movt	r1, #1
    eeb4:	ebfffa01 	bl	d6c0 <extractStringFromJsonObj>
    eeb8:	e2508000 	subs	r8, r0, #0
    eebc:	0a00001b 	beq	ef30 <handleLunaProfileUpdateRequest+0x184>
    eec0:	ebfff3a3 	bl	bd54 <profileGetActiveProfile>
    eec4:	e3500000 	cmp	r0, #0
    eec8:	0a00003c 	beq	efc0 <handleLunaProfileUpdateRequest+0x214>
    eecc:	ebfff3a0 	bl	bd54 <profileGetActiveProfile>
    eed0:	e5981000 	ldr	r1, [r8]
    eed4:	ebffee82 	bl	a8e4 <g_ascii_strcasecmp@plt>
    eed8:	e3500000 	cmp	r0, #0
    eedc:	1a000037 	bne	efc0 <handleLunaProfileUpdateRequest+0x214>
    eee0:	e5940000 	ldr	r0, [r4]
    eee4:	e3500000 	cmp	r0, #0
    eee8:	0a000042 	beq	eff8 <handleLunaProfileUpdateRequest+0x24c>
    eeec:	e5902000 	ldr	r2, [r0]
    eef0:	e3520002 	cmp	r2, #2
    eef4:	ca00003f 	bgt	eff8 <handleLunaProfileUpdateRequest+0x24c>
    eef8:	e3070100 	movw	r0, #28928	@ 0x7100
    eefc:	e3400001 	movt	r0, #1
    ef00:	eb000ea1 	bl	1298c <LOCALIZED>
    ef04:	e3a01000 	mov	r1, #0
    ef08:	e3e02001 	mvn	r2, #1
    ef0c:	e1a03000 	mov	r3, r0
    ef10:	e1a00006 	mov	r0, r6
    ef14:	ebfffa19 	bl	d780 <handleComplexCmdResponseCb>
    ef18:	e1a00008 	mov	r0, r8
    ef1c:	e3a01001 	mov	r1, #1
    ef20:	ebffed73 	bl	a4f4 <g_string_free@plt>
    ef24:	e1a0000a 	mov	r0, sl
    ef28:	ebffee61 	bl	a8b4 <json_object_put@plt>
    ef2c:	eaffffd0 	b	ee74 <handleLunaProfileUpdateRequest+0xc8>
    ef30:	e5940000 	ldr	r0, [r4]
    ef34:	e3500000 	cmp	r0, #0
    ef38:	0a000002 	beq	ef48 <handleLunaProfileUpdateRequest+0x19c>
    ef3c:	e590e000 	ldr	lr, [r0]
    ef40:	e35e0002 	cmp	lr, #2
    ef44:	da000004 	ble	ef5c <handleLunaProfileUpdateRequest+0x1b0>
    ef48:	e3072168 	movw	r2, #29032	@ 0x7168
    ef4c:	e3a01003 	mov	r1, #3
    ef50:	e3402001 	movt	r2, #1
    ef54:	e59f30ec 	ldr	r3, [pc, #236]	@ f048 <handleLunaProfileUpdateRequest+0x29c>
    ef58:	ebffed95 	bl	a5b4 <PmLogPrint_@plt>
    ef5c:	e307016c 	movw	r0, #29036	@ 0x716c
    ef60:	e3400001 	movt	r0, #1
    ef64:	eb000e88 	bl	1298c <LOCALIZED>
    ef68:	e3a01000 	mov	r1, #0
    ef6c:	e3e02001 	mvn	r2, #1
    ef70:	e1a03000 	mov	r3, r0
    ef74:	e1a00006 	mov	r0, r6
    ef78:	ebfffa00 	bl	d780 <handleComplexCmdResponseCb>
    ef7c:	eaffffe8 	b	ef24 <handleLunaProfileUpdateRequest+0x178>
    ef80:	e3011a78 	movw	r1, #6776	@ 0x1a78
    ef84:	e3401002 	movt	r1, #2
    ef88:	e5910000 	ldr	r0, [r1]
    ef8c:	e3500000 	cmp	r0, #0
    ef90:	0a000002 	beq	efa0 <handleLunaProfileUpdateRequest+0x1f4>
    ef94:	e5902000 	ldr	r2, [r0]
    ef98:	e3520002 	cmp	r2, #2
    ef9c:	da000004 	ble	efb4 <handleLunaProfileUpdateRequest+0x208>
    efa0:	e3072188 	movw	r2, #29064	@ 0x7188
    efa4:	e3a01003 	mov	r1, #3
    efa8:	e3402001 	movt	r2, #1
    efac:	e59f3094 	ldr	r3, [pc, #148]	@ f048 <handleLunaProfileUpdateRequest+0x29c>
    efb0:	ebffed7f 	bl	a5b4 <PmLogPrint_@plt>
    efb4:	e307019c 	movw	r0, #29084	@ 0x719c
    efb8:	e3400001 	movt	r0, #1
    efbc:	eaffffa6 	b	ee5c <handleLunaProfileUpdateRequest+0xb0>
    efc0:	e3a0000c 	mov	r0, #12
    efc4:	ebffedc2 	bl	a6d4 <malloc@plt>
    efc8:	e2505000 	subs	r5, r0, #0
    efcc:	0a00000f 	beq	f010 <handleLunaProfileUpdateRequest+0x264>
    efd0:	e5856004 	str	r6, [r5, #4]
    efd4:	e1a00007 	mov	r0, r7
    efd8:	ebffecc7 	bl	a2fc <g_strdup@plt>
    efdc:	e1a02005 	mov	r2, r5
    efe0:	e30f1560 	movw	r1, #62816	@ 0xf560
    efe4:	e3401000 	movt	r1, #0
    efe8:	e5850008 	str	r0, [r5, #8]
    efec:	e5980000 	ldr	r0, [r8]
    eff0:	ebfff359 	bl	bd5c <profileGetPrvDetails>
    eff4:	eaffffc7 	b	ef18 <handleLunaProfileUpdateRequest+0x16c>
    eff8:	e30720cc 	movw	r2, #28876	@ 0x70cc
    effc:	e3a01003 	mov	r1, #3
    f000:	e3402001 	movt	r2, #1
    f004:	e59f303c 	ldr	r3, [pc, #60]	@ f048 <handleLunaProfileUpdateRequest+0x29c>
    f008:	ebffed69 	bl	a5b4 <PmLogPrint_@plt>
    f00c:	eaffffb9 	b	eef8 <handleLunaProfileUpdateRequest+0x14c>
    f010:	e5940000 	ldr	r0, [r4]
    f014:	e3500000 	cmp	r0, #0
    f018:	0a000002 	beq	f028 <handleLunaProfileUpdateRequest+0x27c>
    f01c:	e590c000 	ldr	ip, [r0]
    f020:	e35c0002 	cmp	ip, #2
    f024:	da000004 	ble	f03c <handleLunaProfileUpdateRequest+0x290>
    f028:	e307212c 	movw	r2, #28972	@ 0x712c
    f02c:	e3a01003 	mov	r1, #3
    f030:	e3402001 	movt	r2, #1
    f034:	e59f300c 	ldr	r3, [pc, #12]	@ f048 <handleLunaProfileUpdateRequest+0x29c>
    f038:	ebffed5d 	bl	a5b4 <PmLogPrint_@plt>
    f03c:	e307014c 	movw	r0, #29004	@ 0x714c
    f040:	e3400001 	movt	r0, #1
    f044:	eaffffad 	b	ef00 <handleLunaProfileUpdateRequest+0x154>
    f048:	000167e8 	.word	0x000167e8

0000f04c <handleLunaProfileAddRequest>:
    f04c:	e3013aac 	movw	r3, #6828	@ 0x1aac
    f050:	e3403002 	movt	r3, #2
    f054:	e92d45f0 	push	{r4, r5, r6, r7, r8, sl, lr}
    f058:	e1a04000 	mov	r4, r0
    f05c:	e24dd00c 	sub	sp, sp, #12
    f060:	e5930000 	ldr	r0, [r3]
    f064:	e1a05001 	mov	r5, r1
    f068:	ebffed39 	bl	a554 <g_timer_start@plt>
    f06c:	e3a00008 	mov	r0, #8
    f070:	ebffedb5 	bl	a74c <g_malloc0@plt>
    f074:	e1a06000 	mov	r6, r0
    f078:	e1a00005 	mov	r0, r5
    f07c:	e8860030 	stm	r6, {r4, r5}
    f080:	ebffedd8 	bl	a7e8 <LSMessageRef@plt>
    f084:	e1a00005 	mov	r0, r5
    f088:	ebffed46 	bl	a5a8 <LSMessageGetPayload@plt>
    f08c:	e2507000 	subs	r7, r0, #0
    f090:	0a00006d 	beq	f24c <handleLunaProfileAddRequest+0x200>
    f094:	e3014a78 	movw	r4, #6776	@ 0x1a78
    f098:	e3404002 	movt	r4, #2
    f09c:	e5940000 	ldr	r0, [r4]
    f0a0:	e3500000 	cmp	r0, #0
    f0a4:	0a00001d 	beq	f120 <handleLunaProfileAddRequest+0xd4>
    f0a8:	e5901000 	ldr	r1, [r0]
    f0ac:	e3510006 	cmp	r1, #6
    f0b0:	ca00001a 	bgt	f120 <handleLunaProfileAddRequest+0xd4>
    f0b4:	e1a00007 	mov	r0, r7
    f0b8:	ebffed13 	bl	a50c <json_tokener_parse@plt>
    f0bc:	e3700efa 	cmn	r0, #4000	@ 0xfa0
    f0c0:	e1a08000 	mov	r8, r0
    f0c4:	9a000020 	bls	f14c <handleLunaProfileAddRequest+0x100>
    f0c8:	e5940000 	ldr	r0, [r4]
    f0cc:	e3500000 	cmp	r0, #0
    f0d0:	0a000002 	beq	f0e0 <handleLunaProfileAddRequest+0x94>
    f0d4:	e590e000 	ldr	lr, [r0]
    f0d8:	e35e0002 	cmp	lr, #2
    f0dc:	da000004 	ble	f0f4 <handleLunaProfileAddRequest+0xa8>
    f0e0:	e3062dc8 	movw	r2, #28104	@ 0x6dc8
    f0e4:	e3a01003 	mov	r1, #3
    f0e8:	e3402001 	movt	r2, #1
    f0ec:	e59f31b0 	ldr	r3, [pc, #432]	@ f2a4 <handleLunaProfileAddRequest+0x258>
    f0f0:	ebffed2f 	bl	a5b4 <PmLogPrint_@plt>
    f0f4:	e3060dcc 	movw	r0, #28108	@ 0x6dcc
    f0f8:	e3400001 	movt	r0, #1
    f0fc:	eb000e22 	bl	1298c <LOCALIZED>
    f100:	e3a01000 	mov	r1, #0
    f104:	e3e02001 	mvn	r2, #1
    f108:	e1a03000 	mov	r3, r0
    f10c:	e1a00006 	mov	r0, r6
    f110:	ebfff99a 	bl	d780 <handleComplexCmdResponseCb>
    f114:	e3a00001 	mov	r0, #1
    f118:	e28dd00c 	add	sp, sp, #12
    f11c:	e8bd85f0 	pop	{r4, r5, r6, r7, r8, sl, pc}
    f120:	e3a01007 	mov	r1, #7
    f124:	e59f3178 	ldr	r3, [pc, #376]	@ f2a4 <handleLunaProfileAddRequest+0x258>
    f128:	e30721b0 	movw	r2, #29104	@ 0x71b0
    f12c:	e3402001 	movt	r2, #1
    f130:	e58d5000 	str	r5, [sp]
    f134:	ebffed1e 	bl	a5b4 <PmLogPrint_@plt>
    f138:	e1a00007 	mov	r0, r7
    f13c:	ebffecf2 	bl	a50c <json_tokener_parse@plt>
    f140:	e3700efa 	cmn	r0, #4000	@ 0xfa0
    f144:	e1a08000 	mov	r8, r0
    f148:	8affffde 	bhi	f0c8 <handleLunaProfileAddRequest+0x7c>
    f14c:	e3051b34 	movw	r1, #23348	@ 0x5b34
    f150:	e3401001 	movt	r1, #1
    f154:	ebfff959 	bl	d6c0 <extractStringFromJsonObj>
    f158:	e250a000 	subs	sl, r0, #0
    f15c:	0a000026 	beq	f1fc <handleLunaProfileAddRequest+0x1b0>
    f160:	e3a0000c 	mov	r0, #12
    f164:	ebffed5a 	bl	a6d4 <malloc@plt>
    f168:	e2505000 	subs	r5, r0, #0
    f16c:	0a00000e 	beq	f1ac <handleLunaProfileAddRequest+0x160>
    f170:	e5856004 	str	r6, [r5, #4]
    f174:	e1a00007 	mov	r0, r7
    f178:	ebffec5f 	bl	a2fc <g_strdup@plt>
    f17c:	e30f17c0 	movw	r1, #63424	@ 0xf7c0
    f180:	e1a02005 	mov	r2, r5
    f184:	e3401000 	movt	r1, #0
    f188:	e5850008 	str	r0, [r5, #8]
    f18c:	e59a0000 	ldr	r0, [sl]
    f190:	ebfff2f1 	bl	bd5c <profileGetPrvDetails>
    f194:	e1a0000a 	mov	r0, sl
    f198:	e3a01001 	mov	r1, #1
    f19c:	ebffecd4 	bl	a4f4 <g_string_free@plt>
    f1a0:	e1a00008 	mov	r0, r8
    f1a4:	ebffedc2 	bl	a8b4 <json_object_put@plt>
    f1a8:	eaffffd9 	b	f114 <handleLunaProfileAddRequest+0xc8>
    f1ac:	e5940000 	ldr	r0, [r4]
    f1b0:	e3500000 	cmp	r0, #0
    f1b4:	0a000002 	beq	f1c4 <handleLunaProfileAddRequest+0x178>
    f1b8:	e5902000 	ldr	r2, [r0]
    f1bc:	e3520002 	cmp	r2, #2
    f1c0:	da000004 	ble	f1d8 <handleLunaProfileAddRequest+0x18c>
    f1c4:	e307212c 	movw	r2, #28972	@ 0x712c
    f1c8:	e3a01003 	mov	r1, #3
    f1cc:	e3402001 	movt	r2, #1
    f1d0:	e59f30cc 	ldr	r3, [pc, #204]	@ f2a4 <handleLunaProfileAddRequest+0x258>
    f1d4:	ebffecf6 	bl	a5b4 <PmLogPrint_@plt>
    f1d8:	e307014c 	movw	r0, #29004	@ 0x714c
    f1dc:	e3400001 	movt	r0, #1
    f1e0:	eb000de9 	bl	1298c <LOCALIZED>
    f1e4:	e3a01000 	mov	r1, #0
    f1e8:	e3e02001 	mvn	r2, #1
    f1ec:	e1a03000 	mov	r3, r0
    f1f0:	e1a00006 	mov	r0, r6
    f1f4:	ebfff961 	bl	d780 <handleComplexCmdResponseCb>
    f1f8:	eaffffe5 	b	f194 <handleLunaProfileAddRequest+0x148>
    f1fc:	e5940000 	ldr	r0, [r4]
    f200:	e3500000 	cmp	r0, #0
    f204:	0a000002 	beq	f214 <handleLunaProfileAddRequest+0x1c8>
    f208:	e590c000 	ldr	ip, [r0]
    f20c:	e35c0002 	cmp	ip, #2
    f210:	da000004 	ble	f228 <handleLunaProfileAddRequest+0x1dc>
    f214:	e3072168 	movw	r2, #29032	@ 0x7168
    f218:	e3a01003 	mov	r1, #3
    f21c:	e3402001 	movt	r2, #1
    f220:	e59f307c 	ldr	r3, [pc, #124]	@ f2a4 <handleLunaProfileAddRequest+0x258>
    f224:	ebffece2 	bl	a5b4 <PmLogPrint_@plt>
    f228:	e307016c 	movw	r0, #29036	@ 0x716c
    f22c:	e3400001 	movt	r0, #1
    f230:	eb000dd5 	bl	1298c <LOCALIZED>
    f234:	e3a01000 	mov	r1, #0
    f238:	e3e02001 	mvn	r2, #1
    f23c:	e1a03000 	mov	r3, r0
    f240:	e1a00006 	mov	r0, r6
    f244:	ebfff94d 	bl	d780 <handleComplexCmdResponseCb>
    f248:	eaffffd4 	b	f1a0 <handleLunaProfileAddRequest+0x154>
    f24c:	e307019c 	movw	r0, #29084	@ 0x719c
    f250:	e3400001 	movt	r0, #1
    f254:	eb000dcc 	bl	1298c <LOCALIZED>
    f258:	e1a01007 	mov	r1, r7
    f25c:	e3e02001 	mvn	r2, #1
    f260:	e1a03000 	mov	r3, r0
    f264:	e1a00006 	mov	r0, r6
    f268:	ebfff944 	bl	d780 <handleComplexCmdResponseCb>
    f26c:	e3013a78 	movw	r3, #6776	@ 0x1a78
    f270:	e3403002 	movt	r3, #2
    f274:	e5930000 	ldr	r0, [r3]
    f278:	e3500000 	cmp	r0, #0
    f27c:	0a000002 	beq	f28c <handleLunaProfileAddRequest+0x240>
    f280:	e5901000 	ldr	r1, [r0]
    f284:	e3510002 	cmp	r1, #2
    f288:	daffffa1 	ble	f114 <handleLunaProfileAddRequest+0xc8>
    f28c:	e3072188 	movw	r2, #29064	@ 0x7188
    f290:	e3a01003 	mov	r1, #3
    f294:	e3402001 	movt	r2, #1
    f298:	e59f3004 	ldr	r3, [pc, #4]	@ f2a4 <handleLunaProfileAddRequest+0x258>
    f29c:	ebffecc4 	bl	a5b4 <PmLogPrint_@plt>
    f2a0:	eaffff9b 	b	f114 <handleLunaProfileAddRequest+0xc8>
    f2a4:	00016808 	.word	0x00016808

0000f2a8 <handleLunaProfileDeleteRequest>:
    f2a8:	e3013aac 	movw	r3, #6828	@ 0x1aac
    f2ac:	e3403002 	movt	r3, #2
    f2b0:	e92d45f0 	push	{r4, r5, r6, r7, r8, sl, lr}
    f2b4:	e1a04000 	mov	r4, r0
    f2b8:	e24dd00c 	sub	sp, sp, #12
    f2bc:	e5930000 	ldr	r0, [r3]
    f2c0:	e1a05001 	mov	r5, r1
    f2c4:	ebffeca2 	bl	a554 <g_timer_start@plt>
    f2c8:	e3a00008 	mov	r0, #8
    f2cc:	ebffed1e 	bl	a74c <g_malloc0@plt>
    f2d0:	e1a06000 	mov	r6, r0
    f2d4:	e1a00005 	mov	r0, r5
    f2d8:	e8860030 	stm	r6, {r4, r5}
    f2dc:	ebffed41 	bl	a7e8 <LSMessageRef@plt>
    f2e0:	e1a00005 	mov	r0, r5
    f2e4:	ebffecaf 	bl	a5a8 <LSMessageGetPayload@plt>
    f2e8:	e2507000 	subs	r7, r0, #0
    f2ec:	0a000070 	beq	f4b4 <handleLunaProfileDeleteRequest+0x20c>
    f2f0:	e3014a78 	movw	r4, #6776	@ 0x1a78
    f2f4:	e3404002 	movt	r4, #2
    f2f8:	e5940000 	ldr	r0, [r4]
    f2fc:	e3500000 	cmp	r0, #0
    f300:	0a00001d 	beq	f37c <handleLunaProfileDeleteRequest+0xd4>
    f304:	e5901000 	ldr	r1, [r0]
    f308:	e3510006 	cmp	r1, #6
    f30c:	ca00001a 	bgt	f37c <handleLunaProfileDeleteRequest+0xd4>
    f310:	e1a00007 	mov	r0, r7
    f314:	ebffec7c 	bl	a50c <json_tokener_parse@plt>
    f318:	e3700efa 	cmn	r0, #4000	@ 0xfa0
    f31c:	e1a0a000 	mov	sl, r0
    f320:	9a000020 	bls	f3a8 <handleLunaProfileDeleteRequest+0x100>
    f324:	e5940000 	ldr	r0, [r4]
    f328:	e3500000 	cmp	r0, #0
    f32c:	0a000002 	beq	f33c <handleLunaProfileDeleteRequest+0x94>
    f330:	e5903000 	ldr	r3, [r0]
    f334:	e3530002 	cmp	r3, #2
    f338:	da000004 	ble	f350 <handleLunaProfileDeleteRequest+0xa8>
    f33c:	e3062dc8 	movw	r2, #28104	@ 0x6dc8
    f340:	e3a01003 	mov	r1, #3
    f344:	e3402001 	movt	r2, #1
    f348:	e59f320c 	ldr	r3, [pc, #524]	@ f55c <handleLunaProfileDeleteRequest+0x2b4>
    f34c:	ebffec98 	bl	a5b4 <PmLogPrint_@plt>
    f350:	e3060dcc 	movw	r0, #28108	@ 0x6dcc
    f354:	e3400001 	movt	r0, #1
    f358:	eb000d8b 	bl	1298c <LOCALIZED>
    f35c:	e3a01000 	mov	r1, #0
    f360:	e3e02001 	mvn	r2, #1
    f364:	e1a03000 	mov	r3, r0
    f368:	e1a00006 	mov	r0, r6
    f36c:	ebfff903 	bl	d780 <handleComplexCmdResponseCb>
    f370:	e3a00001 	mov	r0, #1
    f374:	e28dd00c 	add	sp, sp, #12
    f378:	e8bd85f0 	pop	{r4, r5, r6, r7, r8, sl, pc}
    f37c:	e3a01007 	mov	r1, #7
    f380:	e59f31d4 	ldr	r3, [pc, #468]	@ f55c <handleLunaProfileDeleteRequest+0x2b4>
    f384:	e30721dc 	movw	r2, #29148	@ 0x71dc
    f388:	e3402001 	movt	r2, #1
    f38c:	e58d5000 	str	r5, [sp]
    f390:	ebffec87 	bl	a5b4 <PmLogPrint_@plt>
    f394:	e1a00007 	mov	r0, r7
    f398:	ebffec5b 	bl	a50c <json_tokener_parse@plt>
    f39c:	e3700efa 	cmn	r0, #4000	@ 0xfa0
    f3a0:	e1a0a000 	mov	sl, r0
    f3a4:	8affffde 	bhi	f324 <handleLunaProfileDeleteRequest+0x7c>
    f3a8:	e3051b34 	movw	r1, #23348	@ 0x5b34
    f3ac:	e3401001 	movt	r1, #1
    f3b0:	ebfff8c2 	bl	d6c0 <extractStringFromJsonObj>
    f3b4:	e2508000 	subs	r8, r0, #0
    f3b8:	0a000029 	beq	f464 <handleLunaProfileDeleteRequest+0x1bc>
    f3bc:	ebfff264 	bl	bd54 <profileGetActiveProfile>
    f3c0:	e3500000 	cmp	r0, #0
    f3c4:	0a000018 	beq	f42c <handleLunaProfileDeleteRequest+0x184>
    f3c8:	ebfff261 	bl	bd54 <profileGetActiveProfile>
    f3cc:	e5981000 	ldr	r1, [r8]
    f3d0:	ebffed43 	bl	a8e4 <g_ascii_strcasecmp@plt>
    f3d4:	e3500000 	cmp	r0, #0
    f3d8:	1a000013 	bne	f42c <handleLunaProfileDeleteRequest+0x184>
    f3dc:	e5940000 	ldr	r0, [r4]
    f3e0:	e3500000 	cmp	r0, #0
    f3e4:	0a000048 	beq	f50c <handleLunaProfileDeleteRequest+0x264>
    f3e8:	e5902000 	ldr	r2, [r0]
    f3ec:	e3520002 	cmp	r2, #2
    f3f0:	ca000045 	bgt	f50c <handleLunaProfileDeleteRequest+0x264>
    f3f4:	e3070244 	movw	r0, #29252	@ 0x7244
    f3f8:	e3400001 	movt	r0, #1
    f3fc:	eb000d62 	bl	1298c <LOCALIZED>
    f400:	e3a01000 	mov	r1, #0
    f404:	e3e02001 	mvn	r2, #1
    f408:	e1a03000 	mov	r3, r0
    f40c:	e1a00006 	mov	r0, r6
    f410:	ebfff8da 	bl	d780 <handleComplexCmdResponseCb>
    f414:	e1a00008 	mov	r0, r8
    f418:	e3a01001 	mov	r1, #1
    f41c:	ebffec34 	bl	a4f4 <g_string_free@plt>
    f420:	e1a0000a 	mov	r0, sl
    f424:	ebffed22 	bl	a8b4 <json_object_put@plt>
    f428:	eaffffd0 	b	f370 <handleLunaProfileDeleteRequest+0xc8>
    f42c:	e3a0000c 	mov	r0, #12
    f430:	ebffeca7 	bl	a6d4 <malloc@plt>
    f434:	e2505000 	subs	r5, r0, #0
    f438:	0a000039 	beq	f524 <handleLunaProfileDeleteRequest+0x27c>
    f43c:	e5856004 	str	r6, [r5, #4]
    f440:	e1a00007 	mov	r0, r7
    f444:	ebffebac 	bl	a2fc <g_strdup@plt>
    f448:	e1a02005 	mov	r2, r5
    f44c:	e30f1ac0 	movw	r1, #64192	@ 0xfac0
    f450:	e3401000 	movt	r1, #0
    f454:	e5850008 	str	r0, [r5, #8]
    f458:	e5980000 	ldr	r0, [r8]
    f45c:	ebfff23e 	bl	bd5c <profileGetPrvDetails>
    f460:	eaffffeb 	b	f414 <handleLunaProfileDeleteRequest+0x16c>
    f464:	e5940000 	ldr	r0, [r4]
    f468:	e3500000 	cmp	r0, #0
    f46c:	0a000002 	beq	f47c <handleLunaProfileDeleteRequest+0x1d4>
    f470:	e590e000 	ldr	lr, [r0]
    f474:	e35e0002 	cmp	lr, #2
    f478:	da000004 	ble	f490 <handleLunaProfileDeleteRequest+0x1e8>
    f47c:	e3072168 	movw	r2, #29032	@ 0x7168
    f480:	e3a01003 	mov	r1, #3
    f484:	e3402001 	movt	r2, #1
    f488:	e59f30cc 	ldr	r3, [pc, #204]	@ f55c <handleLunaProfileDeleteRequest+0x2b4>
    f48c:	ebffec48 	bl	a5b4 <PmLogPrint_@plt>
    f490:	e307016c 	movw	r0, #29036	@ 0x716c
    f494:	e3400001 	movt	r0, #1
    f498:	eb000d3b 	bl	1298c <LOCALIZED>
    f49c:	e3a01000 	mov	r1, #0
    f4a0:	e3e02001 	mvn	r2, #1
    f4a4:	e1a03000 	mov	r3, r0
    f4a8:	e1a00006 	mov	r0, r6
    f4ac:	ebfff8b3 	bl	d780 <handleComplexCmdResponseCb>
    f4b0:	eaffffda 	b	f420 <handleLunaProfileDeleteRequest+0x178>
    f4b4:	e307019c 	movw	r0, #29084	@ 0x719c
    f4b8:	e3400001 	movt	r0, #1
    f4bc:	eb000d32 	bl	1298c <LOCALIZED>
    f4c0:	e1a01007 	mov	r1, r7
    f4c4:	e3e02001 	mvn	r2, #1
    f4c8:	e1a03000 	mov	r3, r0
    f4cc:	e1a00006 	mov	r0, r6
    f4d0:	ebfff8aa 	bl	d780 <handleComplexCmdResponseCb>
    f4d4:	e3011a78 	movw	r1, #6776	@ 0x1a78
    f4d8:	e3401002 	movt	r1, #2
    f4dc:	e5910000 	ldr	r0, [r1]
    f4e0:	e3500000 	cmp	r0, #0
    f4e4:	0a000002 	beq	f4f4 <handleLunaProfileDeleteRequest+0x24c>
    f4e8:	e5902000 	ldr	r2, [r0]
    f4ec:	e3520002 	cmp	r2, #2
    f4f0:	daffff9e 	ble	f370 <handleLunaProfileDeleteRequest+0xc8>
    f4f4:	e3072188 	movw	r2, #29064	@ 0x7188
    f4f8:	e3a01003 	mov	r1, #3
    f4fc:	e3402001 	movt	r2, #1
    f500:	e59f3054 	ldr	r3, [pc, #84]	@ f55c <handleLunaProfileDeleteRequest+0x2b4>
    f504:	ebffec2a 	bl	a5b4 <PmLogPrint_@plt>
    f508:	eaffff98 	b	f370 <handleLunaProfileDeleteRequest+0xc8>
    f50c:	e3072210 	movw	r2, #29200	@ 0x7210
    f510:	e3a01003 	mov	r1, #3
    f514:	e3402001 	movt	r2, #1
    f518:	e59f303c 	ldr	r3, [pc, #60]	@ f55c <handleLunaProfileDeleteRequest+0x2b4>
    f51c:	ebffec24 	bl	a5b4 <PmLogPrint_@plt>
    f520:	eaffffb3 	b	f3f4 <handleLunaProfileDeleteRequest+0x14c>
    f524:	e5940000 	ldr	r0, [r4]
    f528:	e3500000 	cmp	r0, #0
    f52c:	0a000002 	beq	f53c <handleLunaProfileDeleteRequest+0x294>
    f530:	e590c000 	ldr	ip, [r0]
    f534:	e35c0002 	cmp	ip, #2
    f538:	da000004 	ble	f550 <handleLunaProfileDeleteRequest+0x2a8>
    f53c:	e307212c 	movw	r2, #28972	@ 0x712c
    f540:	e3a01003 	mov	r1, #3
    f544:	e3402001 	movt	r2, #1
    f548:	e59f300c 	ldr	r3, [pc, #12]	@ f55c <handleLunaProfileDeleteRequest+0x2b4>
    f54c:	ebffec18 	bl	a5b4 <PmLogPrint_@plt>
    f550:	e307014c 	movw	r0, #29004	@ 0x714c
    f554:	e3400001 	movt	r0, #1
    f558:	eaffffa7 	b	f3fc <handleLunaProfileDeleteRequest+0x154>
    f55c:	00016824 	.word	0x00016824

0000f560 <handleProfileUpdate>:
    f560:	e92d40f0 	push	{r4, r5, r6, r7, lr}
    f564:	e2515000 	subs	r5, r1, #0
    f568:	e24dd00c 	sub	sp, sp, #12
    f56c:	0a000059 	beq	f6d8 <handleProfileUpdate+0x178>
    f570:	e3500000 	cmp	r0, #0
    f574:	0a000066 	beq	f714 <handleProfileUpdate+0x1b4>
    f578:	e5950008 	ldr	r0, [r5, #8]
    f57c:	e3500000 	cmp	r0, #0
    f580:	01a06000 	moveq	r6, r0
    f584:	0a00001f 	beq	f608 <handleProfileUpdate+0xa8>
    f588:	ebffebdf 	bl	a50c <json_tokener_parse@plt>
    f58c:	e3700efa 	cmn	r0, #4000	@ 0xfa0
    f590:	e1a06000 	mov	r6, r0
    f594:	9a00001b 	bls	f608 <handleProfileUpdate+0xa8>
    f598:	e301ea78 	movw	lr, #6776	@ 0x1a78
    f59c:	e340e002 	movt	lr, #2
    f5a0:	e59e0000 	ldr	r0, [lr]
    f5a4:	e3500000 	cmp	r0, #0
    f5a8:	0a000002 	beq	f5b8 <handleProfileUpdate+0x58>
    f5ac:	e590c000 	ldr	ip, [r0]
    f5b0:	e35c0002 	cmp	ip, #2
    f5b4:	da000004 	ble	f5cc <handleProfileUpdate+0x6c>
    f5b8:	e3062dc8 	movw	r2, #28104	@ 0x6dc8
    f5bc:	e3a01003 	mov	r1, #3
    f5c0:	e3402001 	movt	r2, #1
    f5c4:	e59f31f0 	ldr	r3, [pc, #496]	@ f7bc <handleProfileUpdate+0x25c>
    f5c8:	ebffebf9 	bl	a5b4 <PmLogPrint_@plt>
    f5cc:	e5954004 	ldr	r4, [r5, #4]
    f5d0:	e3060dcc 	movw	r0, #28108	@ 0x6dcc
    f5d4:	e3400001 	movt	r0, #1
    f5d8:	eb000ceb 	bl	1298c <LOCALIZED>
    f5dc:	e3a01000 	mov	r1, #0
    f5e0:	e3e02001 	mvn	r2, #1
    f5e4:	e1a03000 	mov	r3, r0
    f5e8:	e1a00004 	mov	r0, r4
    f5ec:	ebfff863 	bl	d780 <handleComplexCmdResponseCb>
    f5f0:	e5950008 	ldr	r0, [r5, #8]
    f5f4:	ebffeb01 	bl	a200 <g_free@plt>
    f5f8:	e1a00005 	mov	r0, r5
    f5fc:	e28dd00c 	add	sp, sp, #12
    f600:	e8bd40f0 	pop	{r4, r5, r6, r7, lr}
    f604:	eaffeba2 	b	a494 <free@plt>
    f608:	e1a00006 	mov	r0, r6
    f60c:	e3051b34 	movw	r1, #23348	@ 0x5b34
    f610:	e3401001 	movt	r1, #1
    f614:	ebfff829 	bl	d6c0 <extractStringFromJsonObj>
    f618:	e2507000 	subs	r7, r0, #0
    f61c:	0a000016 	beq	f67c <handleProfileUpdate+0x11c>
    f620:	e1a00006 	mov	r0, r6
    f624:	e3051b44 	movw	r1, #23364	@ 0x5b44
    f628:	e3401001 	movt	r1, #1
    f62c:	ebfff823 	bl	d6c0 <extractStringFromJsonObj>
    f630:	e2504000 	subs	r4, r0, #0
    f634:	0a000049 	beq	f760 <handleProfileUpdate+0x200>
    f638:	e5950004 	ldr	r0, [r5, #4]
    f63c:	e30dc780 	movw	ip, #55168	@ 0xd780
    f640:	e5971000 	ldr	r1, [r7]
    f644:	e340c000 	movt	ip, #0
    f648:	e5942000 	ldr	r2, [r4]
    f64c:	e5953008 	ldr	r3, [r5, #8]
    f650:	e58dc000 	str	ip, [sp]
    f654:	ebfff249 	bl	bf80 <profileAddOrUpdate>
    f658:	e1a00004 	mov	r0, r4
    f65c:	e3a01001 	mov	r1, #1
    f660:	ebffeba3 	bl	a4f4 <g_string_free@plt>
    f664:	e1a00007 	mov	r0, r7
    f668:	e3a01001 	mov	r1, #1
    f66c:	ebffeba0 	bl	a4f4 <g_string_free@plt>
    f670:	e1a00006 	mov	r0, r6
    f674:	ebffec8e 	bl	a8b4 <json_object_put@plt>
    f678:	eaffffdc 	b	f5f0 <handleProfileUpdate+0x90>
    f67c:	e3012a78 	movw	r2, #6776	@ 0x1a78
    f680:	e3402002 	movt	r2, #2
    f684:	e5920000 	ldr	r0, [r2]
    f688:	e3500000 	cmp	r0, #0
    f68c:	0a000002 	beq	f69c <handleProfileUpdate+0x13c>
    f690:	e5904000 	ldr	r4, [r0]
    f694:	e3540002 	cmp	r4, #2
    f698:	da000004 	ble	f6b0 <handleProfileUpdate+0x150>
    f69c:	e3072168 	movw	r2, #29032	@ 0x7168
    f6a0:	e3a01003 	mov	r1, #3
    f6a4:	e3402001 	movt	r2, #1
    f6a8:	e59f310c 	ldr	r3, [pc, #268]	@ f7bc <handleProfileUpdate+0x25c>
    f6ac:	ebffebc0 	bl	a5b4 <PmLogPrint_@plt>
    f6b0:	e307016c 	movw	r0, #29036	@ 0x716c
    f6b4:	e3400001 	movt	r0, #1
    f6b8:	e5954004 	ldr	r4, [r5, #4]
    f6bc:	eb000cb2 	bl	1298c <LOCALIZED>
    f6c0:	e3a01000 	mov	r1, #0
    f6c4:	e3e02001 	mvn	r2, #1
    f6c8:	e1a03000 	mov	r3, r0
    f6cc:	e1a00004 	mov	r0, r4
    f6d0:	ebfff82a 	bl	d780 <handleComplexCmdResponseCb>
    f6d4:	eaffffe5 	b	f670 <handleProfileUpdate+0x110>
    f6d8:	e3012a78 	movw	r2, #6776	@ 0x1a78
    f6dc:	e3402002 	movt	r2, #2
    f6e0:	e5920000 	ldr	r0, [r2]
    f6e4:	e3500000 	cmp	r0, #0
    f6e8:	0a000002 	beq	f6f8 <handleProfileUpdate+0x198>
    f6ec:	e590c000 	ldr	ip, [r0]
    f6f0:	e35c0002 	cmp	ip, #2
    f6f4:	da000017 	ble	f758 <handleProfileUpdate+0x1f8>
    f6f8:	e30722a4 	movw	r2, #29348	@ 0x72a4
    f6fc:	e3a01003 	mov	r1, #3
    f700:	e3402001 	movt	r2, #1
    f704:	e59f30b0 	ldr	r3, [pc, #176]	@ f7bc <handleProfileUpdate+0x25c>
    f708:	e28dd00c 	add	sp, sp, #12
    f70c:	e8bd40f0 	pop	{r4, r5, r6, r7, lr}
    f710:	eaffeba7 	b	a5b4 <PmLogPrint_@plt>
    f714:	e3013a78 	movw	r3, #6776	@ 0x1a78
    f718:	e3403002 	movt	r3, #2
    f71c:	e5930000 	ldr	r0, [r3]
    f720:	e3500000 	cmp	r0, #0
    f724:	0a000002 	beq	f734 <handleProfileUpdate+0x1d4>
    f728:	e5901000 	ldr	r1, [r0]
    f72c:	e3510002 	cmp	r1, #2
    f730:	da000004 	ble	f748 <handleProfileUpdate+0x1e8>
    f734:	e307228c 	movw	r2, #29324	@ 0x728c
    f738:	e3a01003 	mov	r1, #3
    f73c:	e3402001 	movt	r2, #1
    f740:	e59f3074 	ldr	r3, [pc, #116]	@ f7bc <handleProfileUpdate+0x25c>
    f744:	ebffeb9a 	bl	a5b4 <PmLogPrint_@plt>
    f748:	e3070290 	movw	r0, #29328	@ 0x7290
    f74c:	e5954004 	ldr	r4, [r5, #4]
    f750:	e3400001 	movt	r0, #1
    f754:	eaffff9f 	b	f5d8 <handleProfileUpdate+0x78>
    f758:	e28dd00c 	add	sp, sp, #12
    f75c:	e8bd80f0 	pop	{r4, r5, r6, r7, pc}
    f760:	e3013a78 	movw	r3, #6776	@ 0x1a78
    f764:	e3403002 	movt	r3, #2
    f768:	e5930000 	ldr	r0, [r3]
    f76c:	e3500000 	cmp	r0, #0
    f770:	0a000002 	beq	f780 <handleProfileUpdate+0x220>
    f774:	e5901000 	ldr	r1, [r0]
    f778:	e3510002 	cmp	r1, #2
    f77c:	da000004 	ble	f794 <handleProfileUpdate+0x234>
    f780:	e3072270 	movw	r2, #29296	@ 0x7270
    f784:	e3a01003 	mov	r1, #3
    f788:	e3402001 	movt	r2, #1
    f78c:	e59f3028 	ldr	r3, [pc, #40]	@ f7bc <handleProfileUpdate+0x25c>
    f790:	ebffeb87 	bl	a5b4 <PmLogPrint_@plt>
    f794:	e3070274 	movw	r0, #29300	@ 0x7274
    f798:	e3400001 	movt	r0, #1
    f79c:	e5954004 	ldr	r4, [r5, #4]
    f7a0:	eb000c79 	bl	1298c <LOCALIZED>
    f7a4:	e3a01000 	mov	r1, #0
    f7a8:	e3e02001 	mvn	r2, #1
    f7ac:	e1a03000 	mov	r3, r0
    f7b0:	e1a00004 	mov	r0, r4
    f7b4:	ebfff7f1 	bl	d780 <handleComplexCmdResponseCb>
    f7b8:	eaffffa9 	b	f664 <handleProfileUpdate+0x104>
    f7bc:	00016844 	.word	0x00016844

0000f7c0 <handleProfileAdd>:
    f7c0:	e92d40f0 	push	{r4, r5, r6, r7, lr}
    f7c4:	e2515000 	subs	r5, r1, #0
    f7c8:	e24dd00c 	sub	sp, sp, #12
    f7cc:	0a00001e 	beq	f84c <handleProfileAdd+0x8c>
    f7d0:	e3500000 	cmp	r0, #0
    f7d4:	0a00002b 	beq	f888 <handleProfileAdd+0xc8>
    f7d8:	e3013a78 	movw	r3, #6776	@ 0x1a78
    f7dc:	e3403002 	movt	r3, #2
    f7e0:	e5930000 	ldr	r0, [r3]
    f7e4:	e3500000 	cmp	r0, #0
    f7e8:	0a000011 	beq	f834 <handleProfileAdd+0x74>
    f7ec:	e5901000 	ldr	r1, [r0]
    f7f0:	e3510002 	cmp	r1, #2
    f7f4:	ca00000e 	bgt	f834 <handleProfileAdd+0x74>
    f7f8:	e5954004 	ldr	r4, [r5, #4]
    f7fc:	e30702e4 	movw	r0, #29412	@ 0x72e4
    f800:	e3400001 	movt	r0, #1
    f804:	eb000c60 	bl	1298c <LOCALIZED>
    f808:	e3a01000 	mov	r1, #0
    f80c:	e3e02001 	mvn	r2, #1
    f810:	e1a03000 	mov	r3, r0
    f814:	e1a00004 	mov	r0, r4
    f818:	ebfff7d8 	bl	d780 <handleComplexCmdResponseCb>
    f81c:	e5950008 	ldr	r0, [r5, #8]
    f820:	ebffea76 	bl	a200 <g_free@plt>
    f824:	e1a00005 	mov	r0, r5
    f828:	e28dd00c 	add	sp, sp, #12
    f82c:	e8bd40f0 	pop	{r4, r5, r6, r7, lr}
    f830:	eaffeb17 	b	a494 <free@plt>
    f834:	e30722c8 	movw	r2, #29384	@ 0x72c8
    f838:	e3a01003 	mov	r1, #3
    f83c:	e3402001 	movt	r2, #1
    f840:	e59f31d8 	ldr	r3, [pc, #472]	@ fa20 <handleProfileAdd+0x260>
    f844:	ebffeb5a 	bl	a5b4 <PmLogPrint_@plt>
    f848:	eaffffea 	b	f7f8 <handleProfileAdd+0x38>
    f84c:	e3012a78 	movw	r2, #6776	@ 0x1a78
    f850:	e3402002 	movt	r2, #2
    f854:	e5920000 	ldr	r0, [r2]
    f858:	e3500000 	cmp	r0, #0
    f85c:	0a000002 	beq	f86c <handleProfileAdd+0xac>
    f860:	e590c000 	ldr	ip, [r0]
    f864:	e35c0002 	cmp	ip, #2
    f868:	da00001f 	ble	f8ec <handleProfileAdd+0x12c>
    f86c:	e30722a4 	movw	r2, #29348	@ 0x72a4
    f870:	e3a01003 	mov	r1, #3
    f874:	e3402001 	movt	r2, #1
    f878:	e59f31a0 	ldr	r3, [pc, #416]	@ fa20 <handleProfileAdd+0x260>
    f87c:	e28dd00c 	add	sp, sp, #12
    f880:	e8bd40f0 	pop	{r4, r5, r6, r7, lr}
    f884:	eaffeb4a 	b	a5b4 <PmLogPrint_@plt>
    f888:	e5950008 	ldr	r0, [r5, #8]
    f88c:	e3500000 	cmp	r0, #0
    f890:	01a06000 	moveq	r6, r0
    f894:	0a000016 	beq	f8f4 <handleProfileAdd+0x134>
    f898:	ebffeb1b 	bl	a50c <json_tokener_parse@plt>
    f89c:	e3700efa 	cmn	r0, #4000	@ 0xfa0
    f8a0:	e1a06000 	mov	r6, r0
    f8a4:	9a000012 	bls	f8f4 <handleProfileAdd+0x134>
    f8a8:	e301ea78 	movw	lr, #6776	@ 0x1a78
    f8ac:	e340e002 	movt	lr, #2
    f8b0:	e59e0000 	ldr	r0, [lr]
    f8b4:	e3500000 	cmp	r0, #0
    f8b8:	0a000002 	beq	f8c8 <handleProfileAdd+0x108>
    f8bc:	e590c000 	ldr	ip, [r0]
    f8c0:	e35c0002 	cmp	ip, #2
    f8c4:	da000004 	ble	f8dc <handleProfileAdd+0x11c>
    f8c8:	e3062dc8 	movw	r2, #28104	@ 0x6dc8
    f8cc:	e3a01003 	mov	r1, #3
    f8d0:	e3402001 	movt	r2, #1
    f8d4:	e59f3144 	ldr	r3, [pc, #324]	@ fa20 <handleProfileAdd+0x260>
    f8d8:	ebffeb35 	bl	a5b4 <PmLogPrint_@plt>
    f8dc:	e3060dcc 	movw	r0, #28108	@ 0x6dcc
    f8e0:	e5954004 	ldr	r4, [r5, #4]
    f8e4:	e3400001 	movt	r0, #1
    f8e8:	eaffffc5 	b	f804 <handleProfileAdd+0x44>
    f8ec:	e28dd00c 	add	sp, sp, #12
    f8f0:	e8bd80f0 	pop	{r4, r5, r6, r7, pc}
    f8f4:	e1a00006 	mov	r0, r6
    f8f8:	e3051b34 	movw	r1, #23348	@ 0x5b34
    f8fc:	e3401001 	movt	r1, #1
    f900:	ebfff76e 	bl	d6c0 <extractStringFromJsonObj>
    f904:	e2507000 	subs	r7, r0, #0
    f908:	0a000016 	beq	f968 <handleProfileAdd+0x1a8>
    f90c:	e1a00006 	mov	r0, r6
    f910:	e3051b44 	movw	r1, #23364	@ 0x5b44
    f914:	e3401001 	movt	r1, #1
    f918:	ebfff768 	bl	d6c0 <extractStringFromJsonObj>
    f91c:	e2504000 	subs	r4, r0, #0
    f920:	0a000027 	beq	f9c4 <handleProfileAdd+0x204>
    f924:	e5950004 	ldr	r0, [r5, #4]
    f928:	e30dc780 	movw	ip, #55168	@ 0xd780
    f92c:	e5971000 	ldr	r1, [r7]
    f930:	e340c000 	movt	ip, #0
    f934:	e5942000 	ldr	r2, [r4]
    f938:	e5953008 	ldr	r3, [r5, #8]
    f93c:	e58dc000 	str	ip, [sp]
    f940:	ebfff18e 	bl	bf80 <profileAddOrUpdate>
    f944:	e1a00004 	mov	r0, r4
    f948:	e3a01001 	mov	r1, #1
    f94c:	ebffeae8 	bl	a4f4 <g_string_free@plt>
    f950:	e1a00007 	mov	r0, r7
    f954:	e3a01001 	mov	r1, #1
    f958:	ebffeae5 	bl	a4f4 <g_string_free@plt>
    f95c:	e1a00006 	mov	r0, r6
    f960:	ebffebd3 	bl	a8b4 <json_object_put@plt>
    f964:	eaffffac 	b	f81c <handleProfileAdd+0x5c>
    f968:	e3012a78 	movw	r2, #6776	@ 0x1a78
    f96c:	e3402002 	movt	r2, #2
    f970:	e5920000 	ldr	r0, [r2]
    f974:	e3500000 	cmp	r0, #0
    f978:	0a000002 	beq	f988 <handleProfileAdd+0x1c8>
    f97c:	e5904000 	ldr	r4, [r0]
    f980:	e3540002 	cmp	r4, #2
    f984:	da000004 	ble	f99c <handleProfileAdd+0x1dc>
    f988:	e3072168 	movw	r2, #29032	@ 0x7168
    f98c:	e3a01003 	mov	r1, #3
    f990:	e3402001 	movt	r2, #1
    f994:	e59f3084 	ldr	r3, [pc, #132]	@ fa20 <handleProfileAdd+0x260>
    f998:	ebffeb05 	bl	a5b4 <PmLogPrint_@plt>
    f99c:	e307016c 	movw	r0, #29036	@ 0x716c
    f9a0:	e3400001 	movt	r0, #1
    f9a4:	e5954004 	ldr	r4, [r5, #4]
    f9a8:	eb000bf7 	bl	1298c <LOCALIZED>
    f9ac:	e3a01000 	mov	r1, #0
    f9b0:	e3e02001 	mvn	r2, #1
    f9b4:	e1a03000 	mov	r3, r0
    f9b8:	e1a00004 	mov	r0, r4
    f9bc:	ebfff76f 	bl	d780 <handleComplexCmdResponseCb>
    f9c0:	eaffffe5 	b	f95c <handleProfileAdd+0x19c>
    f9c4:	e3013a78 	movw	r3, #6776	@ 0x1a78
    f9c8:	e3403002 	movt	r3, #2
    f9cc:	e5930000 	ldr	r0, [r3]
    f9d0:	e3500000 	cmp	r0, #0
    f9d4:	0a000002 	beq	f9e4 <handleProfileAdd+0x224>
    f9d8:	e5901000 	ldr	r1, [r0]
    f9dc:	e3510002 	cmp	r1, #2
    f9e0:	da000004 	ble	f9f8 <handleProfileAdd+0x238>
    f9e4:	e3072270 	movw	r2, #29296	@ 0x7270
    f9e8:	e3a01003 	mov	r1, #3
    f9ec:	e3402001 	movt	r2, #1
    f9f0:	e59f3028 	ldr	r3, [pc, #40]	@ fa20 <handleProfileAdd+0x260>
    f9f4:	ebffeaee 	bl	a5b4 <PmLogPrint_@plt>
    f9f8:	e3070274 	movw	r0, #29300	@ 0x7274
    f9fc:	e3400001 	movt	r0, #1
    fa00:	e5954004 	ldr	r4, [r5, #4]
    fa04:	eb000be0 	bl	1298c <LOCALIZED>
    fa08:	e3a01000 	mov	r1, #0
    fa0c:	e3e02001 	mvn	r2, #1
    fa10:	e1a03000 	mov	r3, r0
    fa14:	e1a00004 	mov	r0, r4
    fa18:	ebfff758 	bl	d780 <handleComplexCmdResponseCb>
    fa1c:	eaffffcb 	b	f950 <handleProfileAdd+0x190>
    fa20:	00016858 	.word	0x00016858

0000fa24 <handleDelayedConnectRequest>:
    fa24:	e3013a78 	movw	r3, #6776	@ 0x1a78
    fa28:	e3403002 	movt	r3, #2
    fa2c:	e92d4010 	push	{r4, lr}
    fa30:	e5930000 	ldr	r0, [r3]
    fa34:	e1a04002 	mov	r4, r2
    fa38:	e3500000 	cmp	r0, #0
    fa3c:	0a000013 	beq	fa90 <handleDelayedConnectRequest+0x6c>
    fa40:	e5901000 	ldr	r1, [r0]
    fa44:	e3510006 	cmp	r1, #6
    fa48:	ca000010 	bgt	fa90 <handleDelayedConnectRequest+0x6c>
    fa4c:	e3540000 	cmp	r4, #0
    fa50:	0a000014 	beq	faa8 <handleDelayedConnectRequest+0x84>
    fa54:	e5943000 	ldr	r3, [r4]
    fa58:	e3530000 	cmp	r3, #0
    fa5c:	0a000011 	beq	faa8 <handleDelayedConnectRequest+0x84>
    fa60:	e5941008 	ldr	r1, [r4, #8]
    fa64:	e30e263c 	movw	r2, #58940	@ 0xe63c
    fa68:	e5940004 	ldr	r0, [r4, #4]
    fa6c:	e3402000 	movt	r2, #0
    fa70:	e1a0e00f 	mov	lr, pc
    fa74:	e593f028 	ldr	pc, [r3, #40]	@ 0x28
    fa78:	e5940008 	ldr	r0, [r4, #8]
    fa7c:	ebffe9df 	bl	a200 <g_free@plt>
    fa80:	e1a00004 	mov	r0, r4
    fa84:	ebffea82 	bl	a494 <free@plt>
    fa88:	e3a00001 	mov	r0, #1
    fa8c:	e8bd8010 	pop	{r4, pc}
    fa90:	e30622d4 	movw	r2, #25300	@ 0x62d4
    fa94:	e3a01007 	mov	r1, #7
    fa98:	e3402001 	movt	r2, #1
    fa9c:	e59f3018 	ldr	r3, [pc, #24]	@ fabc <handleDelayedConnectRequest+0x98>
    faa0:	ebffeac3 	bl	a5b4 <PmLogPrint_@plt>
    faa4:	eaffffe8 	b	fa4c <handleDelayedConnectRequest+0x28>
    faa8:	ebfff0a9 	bl	bd54 <profileGetActiveProfile>
    faac:	e3a01001 	mov	r1, #1
    fab0:	ebfff0a8 	bl	bd58 <profileSetActivityState>
    fab4:	e3a00001 	mov	r0, #1
    fab8:	e8bd8010 	pop	{r4, pc}
    fabc:	0001686c 	.word	0x0001686c

0000fac0 <handleProfileDelete>:
    fac0:	e92d4070 	push	{r4, r5, r6, lr}
    fac4:	e2515000 	subs	r5, r1, #0
    fac8:	0a00004c 	beq	fc00 <handleProfileDelete+0x140>
    facc:	e3500000 	cmp	r0, #0
    fad0:	0a000058 	beq	fc38 <handleProfileDelete+0x178>
    fad4:	e5950008 	ldr	r0, [r5, #8]
    fad8:	e3500000 	cmp	r0, #0
    fadc:	01a06000 	moveq	r6, r0
    fae0:	0a00001e 	beq	fb60 <handleProfileDelete+0xa0>
    fae4:	ebffea88 	bl	a50c <json_tokener_parse@plt>
    fae8:	e3700efa 	cmn	r0, #4000	@ 0xfa0
    faec:	e1a06000 	mov	r6, r0
    faf0:	9a00001a 	bls	fb60 <handleProfileDelete+0xa0>
    faf4:	e3012a78 	movw	r2, #6776	@ 0x1a78
    faf8:	e3402002 	movt	r2, #2
    fafc:	e5920000 	ldr	r0, [r2]
    fb00:	e3500000 	cmp	r0, #0
    fb04:	0a000002 	beq	fb14 <handleProfileDelete+0x54>
    fb08:	e5904000 	ldr	r4, [r0]
    fb0c:	e3540002 	cmp	r4, #2
    fb10:	da000004 	ble	fb28 <handleProfileDelete+0x68>
    fb14:	e3062dc8 	movw	r2, #28104	@ 0x6dc8
    fb18:	e3a01003 	mov	r1, #3
    fb1c:	e3402001 	movt	r2, #1
    fb20:	e59f3154 	ldr	r3, [pc, #340]	@ fc7c <handleProfileDelete+0x1bc>
    fb24:	ebffeaa2 	bl	a5b4 <PmLogPrint_@plt>
    fb28:	e5954004 	ldr	r4, [r5, #4]
    fb2c:	e3060dcc 	movw	r0, #28108	@ 0x6dcc
    fb30:	e3400001 	movt	r0, #1
    fb34:	eb000b94 	bl	1298c <LOCALIZED>
    fb38:	e3a01000 	mov	r1, #0
    fb3c:	e3e02001 	mvn	r2, #1
    fb40:	e1a03000 	mov	r3, r0
    fb44:	e1a00004 	mov	r0, r4
    fb48:	ebfff70c 	bl	d780 <handleComplexCmdResponseCb>
    fb4c:	e5950008 	ldr	r0, [r5, #8]
    fb50:	ebffe9aa 	bl	a200 <g_free@plt>
    fb54:	e1a00005 	mov	r0, r5
    fb58:	e8bd4070 	pop	{r4, r5, r6, lr}
    fb5c:	eaffea4c 	b	a494 <free@plt>
    fb60:	e1a00006 	mov	r0, r6
    fb64:	e3051b34 	movw	r1, #23348	@ 0x5b34
    fb68:	e3401001 	movt	r1, #1
    fb6c:	ebfff6d3 	bl	d6c0 <extractStringFromJsonObj>
    fb70:	e2504000 	subs	r4, r0, #0
    fb74:	0a00000a 	beq	fba4 <handleProfileDelete+0xe4>
    fb78:	e5941000 	ldr	r1, [r4]
    fb7c:	e30d2780 	movw	r2, #55168	@ 0xd780
    fb80:	e5950004 	ldr	r0, [r5, #4]
    fb84:	e3402000 	movt	r2, #0
    fb88:	ebfff0db 	bl	befc <profileDelete>
    fb8c:	e1a00004 	mov	r0, r4
    fb90:	e3a01001 	mov	r1, #1
    fb94:	ebffea56 	bl	a4f4 <g_string_free@plt>
    fb98:	e1a00006 	mov	r0, r6
    fb9c:	ebffeb44 	bl	a8b4 <json_object_put@plt>
    fba0:	eaffffe9 	b	fb4c <handleProfileDelete+0x8c>
    fba4:	e3013a78 	movw	r3, #6776	@ 0x1a78
    fba8:	e3403002 	movt	r3, #2
    fbac:	e5930000 	ldr	r0, [r3]
    fbb0:	e3500000 	cmp	r0, #0
    fbb4:	0a000002 	beq	fbc4 <handleProfileDelete+0x104>
    fbb8:	e5901000 	ldr	r1, [r0]
    fbbc:	e3510002 	cmp	r1, #2
    fbc0:	da000004 	ble	fbd8 <handleProfileDelete+0x118>
    fbc4:	e3072168 	movw	r2, #29032	@ 0x7168
    fbc8:	e3a01003 	mov	r1, #3
    fbcc:	e3402001 	movt	r2, #1
    fbd0:	e59f30a4 	ldr	r3, [pc, #164]	@ fc7c <handleProfileDelete+0x1bc>
    fbd4:	ebffea76 	bl	a5b4 <PmLogPrint_@plt>
    fbd8:	e307016c 	movw	r0, #29036	@ 0x716c
    fbdc:	e3400001 	movt	r0, #1
    fbe0:	e5954004 	ldr	r4, [r5, #4]
    fbe4:	eb000b68 	bl	1298c <LOCALIZED>
    fbe8:	e3a01000 	mov	r1, #0
    fbec:	e3e02001 	mvn	r2, #1
    fbf0:	e1a03000 	mov	r3, r0
    fbf4:	e1a00004 	mov	r0, r4
    fbf8:	ebfff6e0 	bl	d780 <handleComplexCmdResponseCb>
    fbfc:	eaffffe5 	b	fb98 <handleProfileDelete+0xd8>
    fc00:	e3013a78 	movw	r3, #6776	@ 0x1a78
    fc04:	e3403002 	movt	r3, #2
    fc08:	e5930000 	ldr	r0, [r3]
    fc0c:	e3500000 	cmp	r0, #0
    fc10:	0a000002 	beq	fc20 <handleProfileDelete+0x160>
    fc14:	e5901000 	ldr	r1, [r0]
    fc18:	e3510002 	cmp	r1, #2
    fc1c:	d8bd8070 	pople	{r4, r5, r6, pc}
    fc20:	e30722a4 	movw	r2, #29348	@ 0x72a4
    fc24:	e3a01003 	mov	r1, #3
    fc28:	e3402001 	movt	r2, #1
    fc2c:	e59f3048 	ldr	r3, [pc, #72]	@ fc7c <handleProfileDelete+0x1bc>
    fc30:	e8bd4070 	pop	{r4, r5, r6, lr}
    fc34:	eaffea5e 	b	a5b4 <PmLogPrint_@plt>
    fc38:	e301ca78 	movw	ip, #6776	@ 0x1a78
    fc3c:	e340c002 	movt	ip, #2
    fc40:	e59c0000 	ldr	r0, [ip]
    fc44:	e3500000 	cmp	r0, #0
    fc48:	0a000002 	beq	fc58 <handleProfileDelete+0x198>
    fc4c:	e590e000 	ldr	lr, [r0]
    fc50:	e35e0002 	cmp	lr, #2
    fc54:	da000004 	ble	fc6c <handleProfileDelete+0x1ac>
    fc58:	e307228c 	movw	r2, #29324	@ 0x728c
    fc5c:	e3a01003 	mov	r1, #3
    fc60:	e3402001 	movt	r2, #1
    fc64:	e59f3010 	ldr	r3, [pc, #16]	@ fc7c <handleProfileDelete+0x1bc>
    fc68:	ebffea51 	bl	a5b4 <PmLogPrint_@plt>
    fc6c:	e3070290 	movw	r0, #29328	@ 0x7290
    fc70:	e5954004 	ldr	r4, [r5, #4]
    fc74:	e3400001 	movt	r0, #1
    fc78:	eaffffad 	b	fb34 <handleProfileDelete+0x74>
    fc7c:	00016888 	.word	0x00016888

0000fc80 <handleLunaProfileGetDetailsRequest>:
    fc80:	e3013aac 	movw	r3, #6828	@ 0x1aac
    fc84:	e3403002 	movt	r3, #2
    fc88:	e92d40f0 	push	{r4, r5, r6, r7, lr}
    fc8c:	e1a04000 	mov	r4, r0
    fc90:	e24dd00c 	sub	sp, sp, #12
    fc94:	e5930000 	ldr	r0, [r3]
    fc98:	e1a05001 	mov	r5, r1
    fc9c:	ebffea2c 	bl	a554 <g_timer_start@plt>
    fca0:	e3a00008 	mov	r0, #8
    fca4:	ebffeaa8 	bl	a74c <g_malloc0@plt>
    fca8:	e1a06000 	mov	r6, r0
    fcac:	e1a00005 	mov	r0, r5
    fcb0:	e8860030 	stm	r6, {r4, r5}
    fcb4:	ebffeacb 	bl	a7e8 <LSMessageRef@plt>
    fcb8:	e1a00005 	mov	r0, r5
    fcbc:	ebffea39 	bl	a5a8 <LSMessageGetPayload@plt>
    fcc0:	e2507000 	subs	r7, r0, #0
    fcc4:	0a000051 	beq	fe10 <handleLunaProfileGetDetailsRequest+0x190>
    fcc8:	e3014a78 	movw	r4, #6776	@ 0x1a78
    fccc:	e3404002 	movt	r4, #2
    fcd0:	e5940000 	ldr	r0, [r4]
    fcd4:	e3500000 	cmp	r0, #0
    fcd8:	0a00001d 	beq	fd54 <handleLunaProfileGetDetailsRequest+0xd4>
    fcdc:	e5901000 	ldr	r1, [r0]
    fce0:	e3510006 	cmp	r1, #6
    fce4:	ca00001a 	bgt	fd54 <handleLunaProfileGetDetailsRequest+0xd4>
    fce8:	e1a00007 	mov	r0, r7
    fcec:	ebffea06 	bl	a50c <json_tokener_parse@plt>
    fcf0:	e3700efa 	cmn	r0, #4000	@ 0xfa0
    fcf4:	e1a07000 	mov	r7, r0
    fcf8:	9a000020 	bls	fd80 <handleLunaProfileGetDetailsRequest+0x100>
    fcfc:	e5940000 	ldr	r0, [r4]
    fd00:	e3500000 	cmp	r0, #0
    fd04:	0a000002 	beq	fd14 <handleLunaProfileGetDetailsRequest+0x94>
    fd08:	e590c000 	ldr	ip, [r0]
    fd0c:	e35c0002 	cmp	ip, #2
    fd10:	da000004 	ble	fd28 <handleLunaProfileGetDetailsRequest+0xa8>
    fd14:	e3062dc8 	movw	r2, #28104	@ 0x6dc8
    fd18:	e3a01003 	mov	r1, #3
    fd1c:	e3402001 	movt	r2, #1
    fd20:	e59f3140 	ldr	r3, [pc, #320]	@ fe68 <handleLunaProfileGetDetailsRequest+0x1e8>
    fd24:	ebffea22 	bl	a5b4 <PmLogPrint_@plt>
    fd28:	e3060dcc 	movw	r0, #28108	@ 0x6dcc
    fd2c:	e3400001 	movt	r0, #1
    fd30:	eb000b15 	bl	1298c <LOCALIZED>
    fd34:	e3a01000 	mov	r1, #0
    fd38:	e3e02001 	mvn	r2, #1
    fd3c:	e1a03000 	mov	r3, r0
    fd40:	e1a00006 	mov	r0, r6
    fd44:	ebfff68d 	bl	d780 <handleComplexCmdResponseCb>
    fd48:	e3a00001 	mov	r0, #1
    fd4c:	e28dd00c 	add	sp, sp, #12
    fd50:	e8bd80f0 	pop	{r4, r5, r6, r7, pc}
    fd54:	e3a01007 	mov	r1, #7
    fd58:	e59f3108 	ldr	r3, [pc, #264]	@ fe68 <handleLunaProfileGetDetailsRequest+0x1e8>
    fd5c:	e307230c 	movw	r2, #29452	@ 0x730c
    fd60:	e3402001 	movt	r2, #1
    fd64:	e58d5000 	str	r5, [sp]
    fd68:	ebffea11 	bl	a5b4 <PmLogPrint_@plt>
    fd6c:	e1a00007 	mov	r0, r7
    fd70:	ebffe9e5 	bl	a50c <json_tokener_parse@plt>
    fd74:	e3700efa 	cmn	r0, #4000	@ 0xfa0
    fd78:	e1a07000 	mov	r7, r0
    fd7c:	8affffde 	bhi	fcfc <handleLunaProfileGetDetailsRequest+0x7c>
    fd80:	e3051b34 	movw	r1, #23348	@ 0x5b34
    fd84:	e3401001 	movt	r1, #1
    fd88:	ebfff64c 	bl	d6c0 <extractStringFromJsonObj>
    fd8c:	e2505000 	subs	r5, r0, #0
    fd90:	0a00000a 	beq	fdc0 <handleLunaProfileGetDetailsRequest+0x140>
    fd94:	e1a00006 	mov	r0, r6
    fd98:	e5951000 	ldr	r1, [r5]
    fd9c:	e30d2780 	movw	r2, #55168	@ 0xd780
    fda0:	e3402000 	movt	r2, #0
    fda4:	ebfff006 	bl	bdc4 <profileGetDetails>
    fda8:	e1a00005 	mov	r0, r5
    fdac:	e3a01001 	mov	r1, #1
    fdb0:	ebffe9cf 	bl	a4f4 <g_string_free@plt>
    fdb4:	e1a00007 	mov	r0, r7
    fdb8:	ebffeabd 	bl	a8b4 <json_object_put@plt>
    fdbc:	eaffffe1 	b	fd48 <handleLunaProfileGetDetailsRequest+0xc8>
    fdc0:	e5940000 	ldr	r0, [r4]
    fdc4:	e3500000 	cmp	r0, #0
