
libVpncAgent.so:     file format elf32-littlearm


Disassembly of section .init:

000017c4 <_init>:
    17c4:	e92d4010 	push	{r4, lr}
    17c8:	eb000107 	bl	1bec <call_gmon_start>
    17cc:	e8bd8010 	pop	{r4, pc}

Disassembly of section .plt:

000017d0 <.plt>:
    17d0:	e52de004 	push	{lr}		@ (str lr, [sp, #-4]!)
    17d4:	e59fe004 	ldr	lr, [pc, #4]	@ 17e0 <.plt+0x10>
    17d8:	e08fe00e 	add	lr, pc, lr
    17dc:	e5bef008 	ldr	pc, [lr, #8]!
    17e0:	00011960 	.word	0x00011960

000017e4 <g_io_channel_read_line_string@plt>:
    17e4:	e28fc600 	add	ip, pc, #0, 12
    17e8:	e28cca11 	add	ip, ip, #69632	@ 0x11000
    17ec:	e5bcf960 	ldr	pc, [ip, #2400]!	@ 0x960

000017f0 <g_free@plt>:
    17f0:	e28fc600 	add	ip, pc, #0, 12
    17f4:	e28cca11 	add	ip, ip, #69632	@ 0x11000
    17f8:	e5bcf958 	ldr	pc, [ip, #2392]!	@ 0x958

000017fc <g_io_channel_shutdown@plt>:
    17fc:	e28fc600 	add	ip, pc, #0, 12
    1800:	e28cca11 	add	ip, ip, #69632	@ 0x11000
    1804:	e5bcf950 	ldr	pc, [ip, #2384]!	@ 0x950

00001808 <json_object_array_length@plt>:
    1808:	e28fc600 	add	ip, pc, #0, 12
    180c:	e28cca11 	add	ip, ip, #69632	@ 0x11000
    1810:	e5bcf948 	ldr	pc, [ip, #2376]!	@ 0x948

00001814 <g_hash_table_destroy@plt>:
    1814:	e28fc600 	add	ip, pc, #0, 12
    1818:	e28cca11 	add	ip, ip, #69632	@ 0x11000
    181c:	e5bcf940 	ldr	pc, [ip, #2368]!	@ 0x940

00001820 <g_main_loop_quit@plt>:
    1820:	e28fc600 	add	ip, pc, #0, 12
    1824:	e28cca11 	add	ip, ip, #69632	@ 0x11000
    1828:	e5bcf938 	ldr	pc, [ip, #2360]!	@ 0x938

0000182c <g_io_channel_unix_new@plt>:
    182c:	e28fc600 	add	ip, pc, #0, 12
    1830:	e28cca11 	add	ip, ip, #69632	@ 0x11000
    1834:	e5bcf930 	ldr	pc, [ip, #2352]!	@ 0x930

00001838 <json_object_get_boolean@plt>:
    1838:	e28fc600 	add	ip, pc, #0, 12
    183c:	e28cca11 	add	ip, ip, #69632	@ 0x11000
    1840:	e5bcf928 	ldr	pc, [ip, #2344]!	@ 0x928

00001844 <cleanupVpnAgent@plt>:
    1844:	e28fc600 	add	ip, pc, #0, 12
    1848:	e28cca11 	add	ip, ip, #69632	@ 0x11000
    184c:	e5bcf920 	ldr	pc, [ip, #2336]!	@ 0x920

00001850 <__gmon_start__@plt>:
    1850:	e28fc600 	add	ip, pc, #0, 12
    1854:	e28cca11 	add	ip, ip, #69632	@ 0x11000
    1858:	e5bcf918 	ldr	pc, [ip, #2328]!	@ 0x918

0000185c <g_source_set_callback@plt>:
    185c:	e28fc600 	add	ip, pc, #0, 12
    1860:	e28cca11 	add	ip, ip, #69632	@ 0x11000
    1864:	e5bcf910 	ldr	pc, [ip, #2320]!	@ 0x910

00001868 <json_object_new_string@plt>:
    1868:	e28fc600 	add	ip, pc, #0, 12
    186c:	e28cca11 	add	ip, ip, #69632	@ 0x11000
    1870:	e5bcf908 	ldr	pc, [ip, #2312]!	@ 0x908

00001874 <g_strrstr@plt>:
    1874:	e28fc600 	add	ip, pc, #0, 12
    1878:	e28cca11 	add	ip, ip, #69632	@ 0x11000
    187c:	e5bcf900 	ldr	pc, [ip, #2304]!	@ 0x900

00001880 <g_strdup@plt>:
    1880:	e28fc600 	add	ip, pc, #0, 12
    1884:	e28cca11 	add	ip, ip, #69632	@ 0x11000
    1888:	e5bcf8f8 	ldr	pc, [ip, #2296]!	@ 0x8f8

0000188c <strncpy@plt>:
    188c:	e28fc600 	add	ip, pc, #0, 12
    1890:	e28cca11 	add	ip, ip, #69632	@ 0x11000
    1894:	e5bcf8f0 	ldr	pc, [ip, #2288]!	@ 0x8f0

00001898 <system@plt>:
    1898:	e28fc600 	add	ip, pc, #0, 12
    189c:	e28cca11 	add	ip, ip, #69632	@ 0x11000
    18a0:	e5bcf8e8 	ldr	pc, [ip, #2280]!	@ 0x8e8

000018a4 <g_hash_table_insert@plt>:
    18a4:	e28fc600 	add	ip, pc, #0, 12
    18a8:	e28cca11 	add	ip, ip, #69632	@ 0x11000
    18ac:	e5bcf8e0 	ldr	pc, [ip, #2272]!	@ 0x8e0

000018b0 <g_io_channel_read_to_end@plt>:
    18b0:	e28fc600 	add	ip, pc, #0, 12
    18b4:	e28cca11 	add	ip, ip, #69632	@ 0x11000
    18b8:	e5bcf8d8 	ldr	pc, [ip, #2264]!	@ 0x8d8

000018bc <calloc@plt>:
    18bc:	e28fc600 	add	ip, pc, #0, 12
    18c0:	e28cca11 	add	ip, ip, #69632	@ 0x11000
    18c4:	e5bcf8d0 	ldr	pc, [ip, #2256]!	@ 0x8d0

000018c8 <json_object_is_type@plt>:
    18c8:	e28fc600 	add	ip, pc, #0, 12
    18cc:	e28cca11 	add	ip, ip, #69632	@ 0x11000
    18d0:	e5bcf8c8 	ldr	pc, [ip, #2248]!	@ 0x8c8

000018d4 <json_object_get_type@plt>:
    18d4:	e28fc600 	add	ip, pc, #0, 12
    18d8:	e28cca11 	add	ip, ip, #69632	@ 0x11000
    18dc:	e5bcf8c0 	ldr	pc, [ip, #2240]!	@ 0x8c0

000018e0 <memset@plt>:
    18e0:	e28fc600 	add	ip, pc, #0, 12
    18e4:	e28cca11 	add	ip, ip, #69632	@ 0x11000
    18e8:	e5bcf8b8 	ldr	pc, [ip, #2232]!	@ 0x8b8

000018ec <g_string_printf@plt>:
    18ec:	e28fc600 	add	ip, pc, #0, 12
    18f0:	e28cca11 	add	ip, ip, #69632	@ 0x11000
    18f4:	e5bcf8b0 	ldr	pc, [ip, #2224]!	@ 0x8b0

000018f8 <json_object_array_get_idx@plt>:
    18f8:	e28fc600 	add	ip, pc, #0, 12
    18fc:	e28cca11 	add	ip, ip, #69632	@ 0x11000
    1900:	e5bcf8a8 	ldr	pc, [ip, #2216]!	@ 0x8a8

00001904 <g_io_channel_new_file@plt>:
    1904:	e28fc600 	add	ip, pc, #0, 12
    1908:	e28cca11 	add	ip, ip, #69632	@ 0x11000
    190c:	e5bcf8a0 	ldr	pc, [ip, #2208]!	@ 0x8a0

00001910 <json_object_get_string@plt>:
    1910:	e28fc600 	add	ip, pc, #0, 12
    1914:	e28cca11 	add	ip, ip, #69632	@ 0x11000
    1918:	e5bcf898 	ldr	pc, [ip, #2200]!	@ 0x898

0000191c <g_string_new@plt>:
    191c:	e28fc600 	add	ip, pc, #0, 12
    1920:	e28cca11 	add	ip, ip, #69632	@ 0x11000
    1924:	e5bcf890 	ldr	pc, [ip, #2192]!	@ 0x890

00001928 <g_spawn_async_with_pipes@plt>:
    1928:	e28fc600 	add	ip, pc, #0, 12
    192c:	e28cca11 	add	ip, ip, #69632	@ 0x11000
    1930:	e5bcf888 	ldr	pc, [ip, #2184]!	@ 0x888

00001934 <g_main_loop_new@plt>:
    1934:	e28fc600 	add	ip, pc, #0, 12
    1938:	e28cca11 	add	ip, ip, #69632	@ 0x11000
    193c:	e5bcf880 	ldr	pc, [ip, #2176]!	@ 0x880

00001940 <g_io_channel_read_line@plt>:
    1940:	e28fc600 	add	ip, pc, #0, 12
    1944:	e28cca11 	add	ip, ip, #69632	@ 0x11000
    1948:	e5bcf878 	ldr	pc, [ip, #2168]!	@ 0x878

0000194c <g_ptr_array_add@plt>:
    194c:	e28fc600 	add	ip, pc, #0, 12
    1950:	e28cca11 	add	ip, ip, #69632	@ 0x11000
    1954:	e5bcf870 	ldr	pc, [ip, #2160]!	@ 0x870

00001958 <g_assertion_message_expr@plt>:
    1958:	e28fc600 	add	ip, pc, #0, 12
    195c:	e28cca11 	add	ip, ip, #69632	@ 0x11000
    1960:	e5bcf868 	ldr	pc, [ip, #2152]!	@ 0x868

00001964 <free@plt>:
    1964:	e28fc600 	add	ip, pc, #0, 12
    1968:	e28cca11 	add	ip, ip, #69632	@ 0x11000
    196c:	e5bcf860 	ldr	pc, [ip, #2144]!	@ 0x860

00001970 <write@plt>:
    1970:	e28fc600 	add	ip, pc, #0, 12
    1974:	e28cca11 	add	ip, ip, #69632	@ 0x11000
    1978:	e5bcf858 	ldr	pc, [ip, #2136]!	@ 0x858

0000197c <gettimeofday@plt>:
    197c:	e28fc600 	add	ip, pc, #0, 12
    1980:	e28cca11 	add	ip, ip, #69632	@ 0x11000
    1984:	e5bcf850 	ldr	pc, [ip, #2128]!	@ 0x850

00001988 <json_object_get_object@plt>:
    1988:	e28fc600 	add	ip, pc, #0, 12
    198c:	e28cca11 	add	ip, ip, #69632	@ 0x11000
    1990:	e5bcf848 	ldr	pc, [ip, #2120]!	@ 0x848

00001994 <g_main_context_new@plt>:
    1994:	e28fc600 	add	ip, pc, #0, 12
    1998:	e28cca11 	add	ip, ip, #69632	@ 0x11000
    199c:	e5bcf840 	ldr	pc, [ip, #2112]!	@ 0x840

000019a0 <g_string_free@plt>:
    19a0:	e28fc600 	add	ip, pc, #0, 12
    19a4:	e28cca11 	add	ip, ip, #69632	@ 0x11000
    19a8:	e5bcf838 	ldr	pc, [ip, #2104]!	@ 0x838

000019ac <g_strstr_len@plt>:
    19ac:	e28fc600 	add	ip, pc, #0, 12
    19b0:	e28cca11 	add	ip, ip, #69632	@ 0x11000
    19b4:	e5bcf830 	ldr	pc, [ip, #2096]!	@ 0x830

000019b8 <json_tokener_parse@plt>:
    19b8:	e28fc600 	add	ip, pc, #0, 12
    19bc:	e28cca11 	add	ip, ip, #69632	@ 0x11000
    19c0:	e5bcf828 	ldr	pc, [ip, #2088]!	@ 0x828

000019c4 <g_ptr_array_free@plt>:
    19c4:	e28fc600 	add	ip, pc, #0, 12
    19c8:	e28cca11 	add	ip, ip, #69632	@ 0x11000
    19cc:	e5bcf820 	ldr	pc, [ip, #2080]!	@ 0x820

000019d0 <g_hash_table_size@plt>:
    19d0:	e28fc600 	add	ip, pc, #0, 12
    19d4:	e28cca11 	add	ip, ip, #69632	@ 0x11000
    19d8:	e5bcf818 	ldr	pc, [ip, #2072]!	@ 0x818

000019dc <g_hash_table_new_full@plt>:
    19dc:	e28fc600 	add	ip, pc, #0, 12
    19e0:	e28cca11 	add	ip, ip, #69632	@ 0x11000
    19e4:	e5bcf810 	ldr	pc, [ip, #2064]!	@ 0x810

000019e8 <strlen@plt>:
    19e8:	e28fc600 	add	ip, pc, #0, 12
    19ec:	e28cca11 	add	ip, ip, #69632	@ 0x11000
    19f0:	e5bcf808 	ldr	pc, [ip, #2056]!	@ 0x808

000019f4 <json_object_get_int@plt>:
    19f4:	e28fc600 	add	ip, pc, #0, 12
    19f8:	e28cca11 	add	ip, ip, #69632	@ 0x11000
    19fc:	e5bcf800 	ldr	pc, [ip, #2048]!	@ 0x800

00001a00 <g_io_add_watch@plt>:
    1a00:	e28fc600 	add	ip, pc, #0, 12
    1a04:	e28cca11 	add	ip, ip, #69632	@ 0x11000
    1a08:	e5bcf7f8 	ldr	pc, [ip, #2040]!	@ 0x7f8

00001a0c <json_object_object_add@plt>:
    1a0c:	e28fc600 	add	ip, pc, #0, 12
    1a10:	e28cca11 	add	ip, ip, #69632	@ 0x11000
    1a14:	e5bcf7f0 	ldr	pc, [ip, #2032]!	@ 0x7f0

00001a18 <g_strdup_vprintf@plt>:
    1a18:	e28fc600 	add	ip, pc, #0, 12
    1a1c:	e28cca11 	add	ip, ip, #69632	@ 0x11000
    1a20:	e5bcf7e8 	ldr	pc, [ip, #2024]!	@ 0x7e8

00001a24 <g_idle_source_new@plt>:
    1a24:	e28fc600 	add	ip, pc, #0, 12
    1a28:	e28cca11 	add	ip, ip, #69632	@ 0x11000
    1a2c:	e5bcf7e0 	ldr	pc, [ip, #2016]!	@ 0x7e0

00001a30 <g_thread_init@plt>:
    1a30:	e28fc600 	add	ip, pc, #0, 12
    1a34:	e28cca11 	add	ip, ip, #69632	@ 0x11000
    1a38:	e5bcf7d8 	ldr	pc, [ip, #2008]!	@ 0x7d8

00001a3c <PmLogPrint_@plt>:
    1a3c:	e28fc600 	add	ip, pc, #0, 12
    1a40:	e28cca11 	add	ip, ip, #69632	@ 0x11000
    1a44:	e5bcf7d0 	ldr	pc, [ip, #2000]!	@ 0x7d0

00001a48 <strtol@plt>:
    1a48:	e28fc600 	add	ip, pc, #0, 12
    1a4c:	e28cca11 	add	ip, ip, #69632	@ 0x11000
    1a50:	e5bcf7c8 	ldr	pc, [ip, #1992]!	@ 0x7c8

00001a54 <g_thread_create_full@plt>:
    1a54:	e28fc600 	add	ip, pc, #0, 12
    1a58:	e28cca11 	add	ip, ip, #69632	@ 0x11000
    1a5c:	e5bcf7c0 	ldr	pc, [ip, #1984]!	@ 0x7c0

00001a60 <g_getenv@plt>:
    1a60:	e28fc600 	add	ip, pc, #0, 12
    1a64:	e28cca11 	add	ip, ip, #69632	@ 0x11000
    1a68:	e5bcf7b8 	ldr	pc, [ip, #1976]!	@ 0x7b8

00001a6c <json_object_new_int@plt>:
    1a6c:	e28fc600 	add	ip, pc, #0, 12
    1a70:	e28cca11 	add	ip, ip, #69632	@ 0x11000
    1a74:	e5bcf7b0 	ldr	pc, [ip, #1968]!	@ 0x7b0

00001a78 <g_string_assign@plt>:
    1a78:	e28fc600 	add	ip, pc, #0, 12
    1a7c:	e28cca11 	add	ip, ip, #69632	@ 0x11000
    1a80:	e5bcf7a8 	ldr	pc, [ip, #1960]!	@ 0x7a8

00001a84 <g_strchomp@plt>:
    1a84:	e28fc600 	add	ip, pc, #0, 12
    1a88:	e28cca11 	add	ip, ip, #69632	@ 0x11000
    1a8c:	e5bcf7a0 	ldr	pc, [ip, #1952]!	@ 0x7a0

00001a90 <close@plt>:
    1a90:	e28fc600 	add	ip, pc, #0, 12
    1a94:	e28cca11 	add	ip, ip, #69632	@ 0x11000
    1a98:	e5bcf798 	ldr	pc, [ip, #1944]!	@ 0x798

00001a9c <json_object_array_add@plt>:
    1a9c:	e28fc600 	add	ip, pc, #0, 12
    1aa0:	e28cca11 	add	ip, ip, #69632	@ 0x11000
    1aa4:	e5bcf790 	ldr	pc, [ip, #1936]!	@ 0x790

00001aa8 <json_object_object_get@plt>:
    1aa8:	e28fc600 	add	ip, pc, #0, 12
    1aac:	e28cca11 	add	ip, ip, #69632	@ 0x11000
    1ab0:	e5bcf788 	ldr	pc, [ip, #1928]!	@ 0x788

00001ab4 <json_object_new_array@plt>:
    1ab4:	e28fc600 	add	ip, pc, #0, 12
    1ab8:	e28cca11 	add	ip, ip, #69632	@ 0x11000
    1abc:	e5bcf780 	ldr	pc, [ip, #1920]!	@ 0x780

00001ac0 <g_strchug@plt>:
    1ac0:	e28fc600 	add	ip, pc, #0, 12
    1ac4:	e28cca11 	add	ip, ip, #69632	@ 0x11000
    1ac8:	e5bcf778 	ldr	pc, [ip, #1912]!	@ 0x778

00001acc <g_strsplit@plt>:
    1acc:	e28fc600 	add	ip, pc, #0, 12
    1ad0:	e28cca11 	add	ip, ip, #69632	@ 0x11000
    1ad4:	e5bcf770 	ldr	pc, [ip, #1904]!	@ 0x770

00001ad8 <g_hash_table_lookup@plt>:
    1ad8:	e28fc600 	add	ip, pc, #0, 12
    1adc:	e28cca11 	add	ip, ip, #69632	@ 0x11000
    1ae0:	e5bcf768 	ldr	pc, [ip, #1896]!	@ 0x768

00001ae4 <g_io_channel_close@plt>:
    1ae4:	e28fc600 	add	ip, pc, #0, 12
    1ae8:	e28cca11 	add	ip, ip, #69632	@ 0x11000
    1aec:	e5bcf760 	ldr	pc, [ip, #1888]!	@ 0x760

00001af0 <getpid@plt>:
    1af0:	e28fc600 	add	ip, pc, #0, 12
    1af4:	e28cca11 	add	ip, ip, #69632	@ 0x11000
    1af8:	e5bcf758 	ldr	pc, [ip, #1880]!	@ 0x758

00001afc <g_string_truncate@plt>:
    1afc:	e28fc600 	add	ip, pc, #0, 12
    1b00:	e28cca11 	add	ip, ip, #69632	@ 0x11000
    1b04:	e5bcf750 	ldr	pc, [ip, #1872]!	@ 0x750

00001b08 <g_source_attach@plt>:
    1b08:	e28fc600 	add	ip, pc, #0, 12
    1b0c:	e28cca11 	add	ip, ip, #69632	@ 0x11000
    1b10:	e5bcf748 	ldr	pc, [ip, #1864]!	@ 0x748

00001b14 <PmLogGetContext@plt>:
    1b14:	e28fc600 	add	ip, pc, #0, 12
    1b18:	e28cca11 	add	ip, ip, #69632	@ 0x11000
    1b1c:	e5bcf740 	ldr	pc, [ip, #1856]!	@ 0x740

00001b20 <g_error_free@plt>:
    1b20:	e28fc600 	add	ip, pc, #0, 12
    1b24:	e28cca11 	add	ip, ip, #69632	@ 0x11000
    1b28:	e5bcf738 	ldr	pc, [ip, #1848]!	@ 0x738

00001b2c <g_strfreev@plt>:
    1b2c:	e28fc600 	add	ip, pc, #0, 12
    1b30:	e28cca11 	add	ip, ip, #69632	@ 0x11000
    1b34:	e5bcf730 	ldr	pc, [ip, #1840]!	@ 0x730

00001b38 <g_ptr_array_new@plt>:
    1b38:	e28fc600 	add	ip, pc, #0, 12
    1b3c:	e28cca11 	add	ip, ip, #69632	@ 0x11000
    1b40:	e5bcf728 	ldr	pc, [ip, #1832]!	@ 0x728

00001b44 <json_object_new_boolean@plt>:
    1b44:	e28fc600 	add	ip, pc, #0, 12
    1b48:	e28cca11 	add	ip, ip, #69632	@ 0x11000
    1b4c:	e5bcf720 	ldr	pc, [ip, #1824]!	@ 0x720

00001b50 <json_object_new_object@plt>:
    1b50:	e28fc600 	add	ip, pc, #0, 12
    1b54:	e28cca11 	add	ip, ip, #69632	@ 0x11000
    1b58:	e5bcf718 	ldr	pc, [ip, #1816]!	@ 0x718

00001b5c <g_main_loop_run@plt>:
    1b5c:	e28fc600 	add	ip, pc, #0, 12
    1b60:	e28cca11 	add	ip, ip, #69632	@ 0x11000
    1b64:	e5bcf710 	ldr	pc, [ip, #1808]!	@ 0x710

00001b68 <syscall@plt>:
    1b68:	e28fc600 	add	ip, pc, #0, 12
    1b6c:	e28cca11 	add	ip, ip, #69632	@ 0x11000
    1b70:	e5bcf708 	ldr	pc, [ip, #1800]!	@ 0x708

00001b74 <g_string_append@plt>:
    1b74:	e28fc600 	add	ip, pc, #0, 12
    1b78:	e28cca11 	add	ip, ip, #69632	@ 0x11000
    1b7c:	e5bcf700 	ldr	pc, [ip, #1792]!	@ 0x700

00001b80 <g_string_append_printf@plt>:
    1b80:	e28fc600 	add	ip, pc, #0, 12
    1b84:	e28cca11 	add	ip, ip, #69632	@ 0x11000
    1b88:	e5bcf6f8 	ldr	pc, [ip, #1784]!	@ 0x6f8

00001b8c <strcmp@plt>:
    1b8c:	e28fc600 	add	ip, pc, #0, 12
    1b90:	e28cca11 	add	ip, ip, #69632	@ 0x11000
    1b94:	e5bcf6f0 	ldr	pc, [ip, #1776]!	@ 0x6f0

00001b98 <g_file_test@plt>:
    1b98:	e28fc600 	add	ip, pc, #0, 12
    1b9c:	e28cca11 	add	ip, ip, #69632	@ 0x11000
    1ba0:	e5bcf6e8 	ldr	pc, [ip, #1768]!	@ 0x6e8

00001ba4 <__errno_location@plt>:
    1ba4:	e28fc600 	add	ip, pc, #0, 12
    1ba8:	e28cca11 	add	ip, ip, #69632	@ 0x11000
    1bac:	e5bcf6e0 	ldr	pc, [ip, #1760]!	@ 0x6e0

00001bb0 <json_object_put@plt>:
    1bb0:	e28fc600 	add	ip, pc, #0, 12
    1bb4:	e28cca11 	add	ip, ip, #69632	@ 0x11000
    1bb8:	e5bcf6d8 	ldr	pc, [ip, #1752]!	@ 0x6d8

00001bbc <__cxa_finalize@plt>:
    1bbc:	e28fc600 	add	ip, pc, #0, 12
    1bc0:	e28cca11 	add	ip, ip, #69632	@ 0x11000
    1bc4:	e5bcf6d0 	ldr	pc, [ip, #1744]!	@ 0x6d0

00001bc8 <g_thread_join@plt>:
    1bc8:	e28fc600 	add	ip, pc, #0, 12
    1bcc:	e28cca11 	add	ip, ip, #69632	@ 0x11000
    1bd0:	e5bcf6c8 	ldr	pc, [ip, #1736]!	@ 0x6c8

00001bd4 <json_object_to_json_string@plt>:
    1bd4:	e28fc600 	add	ip, pc, #0, 12
    1bd8:	e28cca11 	add	ip, ip, #69632	@ 0x11000
    1bdc:	e5bcf6c0 	ldr	pc, [ip, #1728]!	@ 0x6c0

00001be0 <g_ascii_strcasecmp@plt>:
    1be0:	e28fc600 	add	ip, pc, #0, 12
    1be4:	e28cca11 	add	ip, ip, #69632	@ 0x11000
    1be8:	e5bcf6b8 	ldr	pc, [ip, #1720]!	@ 0x6b8

Disassembly of section .text:

00001bec <call_gmon_start>:
    1bec:	e59f3014 	ldr	r3, [pc, #20]	@ 1c08 <call_gmon_start+0x1c>
    1bf0:	e59f2014 	ldr	r2, [pc, #20]	@ 1c0c <call_gmon_start+0x20>
    1bf4:	e08f3003 	add	r3, pc, r3
    1bf8:	e7931002 	ldr	r1, [r3, r2]
    1bfc:	e3510000 	cmp	r1, #0
    1c00:	012fff1e 	bxeq	lr
    1c04:	eaffff11 	b	1850 <__gmon_start__@plt>
    1c08:	00011544 	.word	0x00011544
    1c0c:	00000170 	.word	0x00000170

00001c10 <__do_global_dtors_aux>:
    1c10:	e59f003c 	ldr	r0, [pc, #60]	@ 1c54 <__do_global_dtors_aux+0x44>
    1c14:	e92d4070 	push	{r4, r5, r6, lr}
    1c18:	e59f5038 	ldr	r5, [pc, #56]	@ 1c58 <__do_global_dtors_aux+0x48>
    1c1c:	e08f4000 	add	r4, pc, r0
    1c20:	e7d43005 	ldrb	r3, [r4, r5]
    1c24:	e3530000 	cmp	r3, #0
    1c28:	18bd8070 	popne	{r4, r5, r6, pc}
    1c2c:	e59f1028 	ldr	r1, [pc, #40]	@ 1c5c <__do_global_dtors_aux+0x4c>
    1c30:	e7942001 	ldr	r2, [r4, r1]
    1c34:	e3520000 	cmp	r2, #0
    1c38:	0a000002 	beq	1c48 <__do_global_dtors_aux+0x38>
    1c3c:	e59fc01c 	ldr	ip, [pc, #28]	@ 1c60 <__do_global_dtors_aux+0x50>
    1c40:	e794000c 	ldr	r0, [r4, ip]
    1c44:	ebffffdc 	bl	1bbc <__cxa_finalize@plt>
    1c48:	e3a03001 	mov	r3, #1
    1c4c:	e7c43005 	strb	r3, [r4, r5]
    1c50:	e8bd8070 	pop	{r4, r5, r6, pc}
    1c54:	0001151c 	.word	0x0001151c
    1c58:	00000508 	.word	0x00000508
    1c5c:	000001b0 	.word	0x000001b0
    1c60:	000001b4 	.word	0x000001b4

00001c64 <frame_dummy>:
    1c64:	e59f0030 	ldr	r0, [pc, #48]	@ 1c9c <frame_dummy+0x38>
    1c68:	e59f3030 	ldr	r3, [pc, #48]	@ 1ca0 <frame_dummy+0x3c>
    1c6c:	e08f1000 	add	r1, pc, r0
    1c70:	e92d4010 	push	{r4, lr}
    1c74:	e7912003 	ldr	r2, [r1, r3]
    1c78:	e0810003 	add	r0, r1, r3
    1c7c:	e3520000 	cmp	r2, #0
    1c80:	08bd8010 	popeq	{r4, pc}
    1c84:	e59fc018 	ldr	ip, [pc, #24]	@ 1ca4 <frame_dummy+0x40>
    1c88:	e791300c 	ldr	r3, [r1, ip]
    1c8c:	e3530000 	cmp	r3, #0
    1c90:	08bd8010 	popeq	{r4, pc}
    1c94:	e12fff33 	blx	r3
    1c98:	e8bd8010 	pop	{r4, pc}
    1c9c:	000114cc 	.word	0x000114cc
    1ca0:	fffffed0 	.word	0xfffffed0
    1ca4:	00000174 	.word	0x00000174

00001ca8 <init_vpnc_agent>:
    1ca8:	e59f0038 	ldr	r0, [pc, #56]	@ 1ce8 <init_vpnc_agent+0x40>
    1cac:	e92d4010 	push	{r4, lr}
    1cb0:	e08f4000 	add	r4, pc, r0
    1cb4:	eb00112a 	bl	6164 <vpnc_init_logging>
    1cb8:	eb001500 	bl	70c0 <teardown_vpnc>
    1cbc:	e59f3028 	ldr	r3, [pc, #40]	@ 1cec <init_vpnc_agent+0x44>
    1cc0:	e7942003 	ldr	r2, [r4, r3]
    1cc4:	e5920000 	ldr	r0, [r2]
    1cc8:	e3500000 	cmp	r0, #0
    1ccc:	1a000000 	bne	1cd4 <init_vpnc_agent+0x2c>
    1cd0:	ebffff56 	bl	1a30 <g_thread_init@plt>
    1cd4:	e59fe014 	ldr	lr, [pc, #20]	@ 1cf0 <init_vpnc_agent+0x48>
    1cd8:	e3a0c000 	mov	ip, #0
    1cdc:	e794100e 	ldr	r1, [r4, lr]
    1ce0:	e581c040 	str	ip, [r1, #64]	@ 0x40
    1ce4:	e8bd8010 	pop	{r4, pc}
    1ce8:	00011488 	.word	0x00011488
    1cec:	00000194 	.word	0x00000194
    1cf0:	00000178 	.word	0x00000178

00001cf4 <initVpnAgent>:
    1cf4:	e24dd010 	sub	sp, sp, #16
    1cf8:	e92d4ff0 	push	{r4, r5, r6, r7, r8, r9, sl, fp, lr}
    1cfc:	e24dd00c 	sub	sp, sp, #12
    1d00:	e28d6034 	add	r6, sp, #52	@ 0x34
    1d04:	e1a0b000 	mov	fp, r0
    1d08:	e59f0118 	ldr	r0, [pc, #280]	@ 1e28 <initVpnAgent+0x134>
    1d0c:	e886000e 	stm	r6, {r1, r2, r3}
    1d10:	e59f3114 	ldr	r3, [pc, #276]	@ 1e2c <initVpnAgent+0x138>
    1d14:	e08f9000 	add	r9, pc, r0
    1d18:	e7992003 	ldr	r2, [r9, r3]
    1d1c:	e5925000 	ldr	r5, [r2]
    1d20:	e3550000 	cmp	r5, #0
    1d24:	0a000002 	beq	1d34 <initVpnAgent+0x40>
    1d28:	e5951000 	ldr	r1, [r5]
    1d2c:	e3510006 	cmp	r1, #6
    1d30:	da00000c 	ble	1d68 <initVpnAgent+0x74>
    1d34:	ebffff6d 	bl	1af0 <getpid@plt>
    1d38:	e59f80f0 	ldr	r8, [pc, #240]	@ 1e30 <initVpnAgent+0x13c>
    1d3c:	e59f40f0 	ldr	r4, [pc, #240]	@ 1e34 <initVpnAgent+0x140>
    1d40:	e1a07000 	mov	r7, r0
    1d44:	e3a000e0 	mov	r0, #224	@ 0xe0
    1d48:	ebffff86 	bl	1b68 <syscall@plt>
    1d4c:	e3a01007 	mov	r1, #7
    1d50:	e0892008 	add	r2, r9, r8
    1d54:	e0893004 	add	r3, r9, r4
    1d58:	e58d7000 	str	r7, [sp]
    1d5c:	e58d0004 	str	r0, [sp, #4]
    1d60:	e1a00005 	mov	r0, r5
    1d64:	ebffff34 	bl	1a3c <PmLogPrint_@plt>
    1d68:	e3a01000 	mov	r1, #0
    1d6c:	e3a0203c 	mov	r2, #60	@ 0x3c
    1d70:	e1a0000b 	mov	r0, fp
    1d74:	e59f50bc 	ldr	r5, [pc, #188]	@ 1e38 <initVpnAgent+0x144>
    1d78:	ebfffed8 	bl	18e0 <memset@plt>
    1d7c:	e59f10b8 	ldr	r1, [pc, #184]	@ 1e3c <initVpnAgent+0x148>
    1d80:	e1a0000b 	mov	r0, fp
    1d84:	e3a03001 	mov	r3, #1
    1d88:	e0891001 	add	r1, r9, r1
    1d8c:	e3a02020 	mov	r2, #32
    1d90:	e4803004 	str	r3, [r0], #4
    1d94:	ebfffebc 	bl	188c <strncpy@plt>
    1d98:	e59fa0a0 	ldr	sl, [pc, #160]	@ 1e40 <initVpnAgent+0x14c>
    1d9c:	e59f70a0 	ldr	r7, [pc, #160]	@ 1e44 <initVpnAgent+0x150>
    1da0:	e59f40a0 	ldr	r4, [pc, #160]	@ 1e48 <initVpnAgent+0x154>
    1da4:	e59fc0a0 	ldr	ip, [pc, #160]	@ 1e4c <initVpnAgent+0x158>
    1da8:	e8b6000f 	ldm	r6!, {r0, r1, r2, r3}
    1dac:	e7998005 	ldr	r8, [r9, r5]
    1db0:	e799500a 	ldr	r5, [r9, sl]
    1db4:	e799a007 	ldr	sl, [r9, r7]
    1db8:	e7997004 	ldr	r7, [r9, r4]
    1dbc:	e799400c 	ldr	r4, [r9, ip]
    1dc0:	e58b8028 	str	r8, [fp, #40]	@ 0x28
    1dc4:	e58ba02c 	str	sl, [fp, #44]	@ 0x2c
    1dc8:	e58b4038 	str	r4, [fp, #56]	@ 0x38
    1dcc:	e59f407c 	ldr	r4, [pc, #124]	@ 1e50 <initVpnAgent+0x15c>
    1dd0:	e58b7030 	str	r7, [fp, #48]	@ 0x30
    1dd4:	e089c004 	add	ip, r9, r4
    1dd8:	e1a04005 	mov	r4, r5
    1ddc:	e58bc034 	str	ip, [fp, #52]	@ 0x34
    1de0:	e1a0c006 	mov	ip, r6
    1de4:	e8a4000f 	stmia	r4!, {r0, r1, r2, r3}
    1de8:	e1a05004 	mov	r5, r4
    1dec:	e8bc000f 	ldm	ip!, {r0, r1, r2, r3}
    1df0:	e1a0600c 	mov	r6, ip
    1df4:	e8a5000f 	stmia	r5!, {r0, r1, r2, r3}
    1df8:	e1a04005 	mov	r4, r5
    1dfc:	e8b6000f 	ldm	r6!, {r0, r1, r2, r3}
    1e00:	e8a4000f 	stmia	r4!, {r0, r1, r2, r3}
    1e04:	e8960007 	ldm	r6, {r0, r1, r2}
    1e08:	e8840007 	stm	r4, {r0, r1, r2}
    1e0c:	e28d0064 	add	r0, sp, #100	@ 0x64
    1e10:	eb000f7c 	bl	5c08 <loadLocalizedStrings>
    1e14:	e3a00000 	mov	r0, #0
    1e18:	e28dd00c 	add	sp, sp, #12
    1e1c:	e8bd4ff0 	pop	{r4, r5, r6, r7, r8, r9, sl, fp, lr}
    1e20:	e28dd010 	add	sp, sp, #16
    1e24:	e12fff1e 	bx	lr
    1e28:	00011424 	.word	0x00011424
    1e2c:	00000190 	.word	0x00000190
    1e30:	ffff5b84 	.word	0xffff5b84
    1e34:	ffff5740 	.word	0xffff5740
    1e38:	000001ac 	.word	0x000001ac
    1e3c:	ffff5ba8 	.word	0xffff5ba8
    1e40:	000001a0 	.word	0x000001a0
    1e44:	000001a4 	.word	0x000001a4
    1e48:	00000180 	.word	0x00000180
    1e4c:	0000019c 	.word	0x0000019c
    1e50:	ffff09c4 	.word	0xffff09c4

00001e54 <reloadLocalizedStrings>:
    1e54:	e92d40f0 	push	{r4, r5, r6, r7, lr}
    1e58:	e1a07000 	mov	r7, r0
    1e5c:	e59f007c 	ldr	r0, [pc, #124]	@ 1ee0 <reloadLocalizedStrings+0x8c>
    1e60:	e24dd00c 	sub	sp, sp, #12
    1e64:	e59f3078 	ldr	r3, [pc, #120]	@ 1ee4 <reloadLocalizedStrings+0x90>
    1e68:	e08f5000 	add	r5, pc, r0
    1e6c:	e7952003 	ldr	r2, [r5, r3]
    1e70:	e5926000 	ldr	r6, [r2]
    1e74:	e3560000 	cmp	r6, #0
    1e78:	0a000002 	beq	1e88 <reloadLocalizedStrings+0x34>
    1e7c:	e5961000 	ldr	r1, [r6]
    1e80:	e3510006 	cmp	r1, #6
    1e84:	da00000d 	ble	1ec0 <reloadLocalizedStrings+0x6c>
    1e88:	ebffff18 	bl	1af0 <getpid@plt>
    1e8c:	e1a04000 	mov	r4, r0
    1e90:	e3a000e0 	mov	r0, #224	@ 0xe0
    1e94:	ebffff33 	bl	1b68 <syscall@plt>
    1e98:	e59f3048 	ldr	r3, [pc, #72]	@ 1ee8 <reloadLocalizedStrings+0x94>
    1e9c:	e59f2048 	ldr	r2, [pc, #72]	@ 1eec <reloadLocalizedStrings+0x98>
    1ea0:	e3a01007 	mov	r1, #7
    1ea4:	e085c003 	add	ip, r5, r3
    1ea8:	e58d4000 	str	r4, [sp]
    1eac:	e0852002 	add	r2, r5, r2
    1eb0:	e28c3010 	add	r3, ip, #16
    1eb4:	e58d0004 	str	r0, [sp, #4]
    1eb8:	e1a00006 	mov	r0, r6
    1ebc:	ebfffede 	bl	1a3c <PmLogPrint_@plt>
    1ec0:	eb000f23 	bl	5b54 <unloadLocalizedStrings>
    1ec4:	e1a00007 	mov	r0, r7
    1ec8:	eb000f4e 	bl	5c08 <loadLocalizedStrings>
    1ecc:	e1a00007 	mov	r0, r7
    1ed0:	ebfffe46 	bl	17f0 <g_free@plt>
    1ed4:	e3a00000 	mov	r0, #0
    1ed8:	e28dd00c 	add	sp, sp, #12
    1edc:	e8bd80f0 	pop	{r4, r5, r6, r7, pc}
    1ee0:	000112d0 	.word	0x000112d0
    1ee4:	00000190 	.word	0x00000190
    1ee8:	ffff5740 	.word	0xffff5740
    1eec:	ffff5b84 	.word	0xffff5b84

00001ef0 <vpnc_get_connection_details>:
    1ef0:	e92d4ff0 	push	{r4, r5, r6, r7, r8, r9, sl, fp, lr}
    1ef4:	e1a09000 	mov	r9, r0
    1ef8:	e59f0284 	ldr	r0, [pc, #644]	@ 2184 <vpnc_get_connection_details+0x294>
    1efc:	e24dd01c 	sub	sp, sp, #28
    1f00:	e59fa280 	ldr	sl, [pc, #640]	@ 2188 <vpnc_get_connection_details+0x298>
    1f04:	e1a0b001 	mov	fp, r1
    1f08:	e08f5000 	add	r5, pc, r0
    1f0c:	e795300a 	ldr	r3, [r5, sl]
    1f10:	e5930000 	ldr	r0, [r3]
    1f14:	e3500000 	cmp	r0, #0
    1f18:	0a00002d 	beq	1fd4 <vpnc_get_connection_details+0xe4>
    1f1c:	e5901000 	ldr	r1, [r0]
    1f20:	e3510006 	cmp	r1, #6
    1f24:	ca00002a 	bgt	1fd4 <vpnc_get_connection_details+0xe4>
    1f28:	ebffff08 	bl	1b50 <json_object_new_object@plt>
    1f2c:	e2506000 	subs	r6, r0, #0
    1f30:	0a000031 	beq	1ffc <vpnc_get_connection_details+0x10c>
    1f34:	e59f8250 	ldr	r8, [pc, #592]	@ 218c <vpnc_get_connection_details+0x29c>
    1f38:	e7957008 	ldr	r7, [r5, r8]
    1f3c:	e597000c 	ldr	r0, [r7, #12]
    1f40:	e3500001 	cmp	r0, #1
    1f44:	0a000043 	beq	2058 <vpnc_get_connection_details+0x168>
    1f48:	e3a00000 	mov	r0, #0
    1f4c:	eb001189 	bl	6578 <get_connection_state_str>
    1f50:	ebfffe44 	bl	1868 <json_object_new_string@plt>
    1f54:	e59fc234 	ldr	ip, [pc, #564]	@ 2190 <vpnc_get_connection_details+0x2a0>
    1f58:	e085100c 	add	r1, r5, ip
    1f5c:	e1a02000 	mov	r2, r0
    1f60:	e1a00006 	mov	r0, r6
    1f64:	ebfffea8 	bl	1a0c <json_object_object_add@plt>
    1f68:	e1a00006 	mov	r0, r6
    1f6c:	ebffff18 	bl	1bd4 <json_object_to_json_string@plt>
    1f70:	e795200a 	ldr	r2, [r5, sl]
    1f74:	e1a04000 	mov	r4, r0
    1f78:	e5920000 	ldr	r0, [r2]
    1f7c:	e3500000 	cmp	r0, #0
    1f80:	0a000002 	beq	1f90 <vpnc_get_connection_details+0xa0>
    1f84:	e5903000 	ldr	r3, [r0]
    1f88:	e3530006 	cmp	r3, #6
    1f8c:	da000007 	ble	1fb0 <vpnc_get_connection_details+0xc0>
    1f90:	e59f21fc 	ldr	r2, [pc, #508]	@ 2194 <vpnc_get_connection_details+0x2a4>
    1f94:	e3a01007 	mov	r1, #7
    1f98:	e59fc1f8 	ldr	ip, [pc, #504]	@ 2198 <vpnc_get_connection_details+0x2a8>
    1f9c:	e085e002 	add	lr, r5, r2
    1fa0:	e58d4000 	str	r4, [sp]
    1fa4:	e085200c 	add	r2, r5, ip
    1fa8:	e28e3028 	add	r3, lr, #40	@ 0x28
    1fac:	ebfffea2 	bl	1a3c <PmLogPrint_@plt>
    1fb0:	e3a02000 	mov	r2, #0
    1fb4:	e1a00009 	mov	r0, r9
    1fb8:	e1a01004 	mov	r1, r4
    1fbc:	e1a03002 	mov	r3, r2
    1fc0:	e12fff3b 	blx	fp
    1fc4:	e1a00006 	mov	r0, r6
    1fc8:	ebfffef8 	bl	1bb0 <json_object_put@plt>
    1fcc:	e28dd01c 	add	sp, sp, #28
    1fd0:	e8bd8ff0 	pop	{r4, r5, r6, r7, r8, r9, sl, fp, pc}
    1fd4:	e59fc1b8 	ldr	ip, [pc, #440]	@ 2194 <vpnc_get_connection_details+0x2a4>
    1fd8:	e3a01007 	mov	r1, #7
    1fdc:	e59f21b8 	ldr	r2, [pc, #440]	@ 219c <vpnc_get_connection_details+0x2ac>
    1fe0:	e085600c 	add	r6, r5, ip
    1fe4:	e2863028 	add	r3, r6, #40	@ 0x28
    1fe8:	e0852002 	add	r2, r5, r2
    1fec:	ebfffe92 	bl	1a3c <PmLogPrint_@plt>
    1ff0:	ebfffed6 	bl	1b50 <json_object_new_object@plt>
    1ff4:	e2506000 	subs	r6, r0, #0
    1ff8:	1affffcd 	bne	1f34 <vpnc_get_connection_details+0x44>
    1ffc:	e795100a 	ldr	r1, [r5, sl]
    2000:	e5910000 	ldr	r0, [r1]
    2004:	e3500000 	cmp	r0, #0
    2008:	0a000002 	beq	2018 <vpnc_get_connection_details+0x128>
    200c:	e5903000 	ldr	r3, [r0]
    2010:	e3530002 	cmp	r3, #2
    2014:	da000006 	ble	2034 <vpnc_get_connection_details+0x144>
    2018:	e59f2174 	ldr	r2, [pc, #372]	@ 2194 <vpnc_get_connection_details+0x2a4>
    201c:	e3a01003 	mov	r1, #3
    2020:	e59fc178 	ldr	ip, [pc, #376]	@ 21a0 <vpnc_get_connection_details+0x2b0>
    2024:	e085e002 	add	lr, r5, r2
    2028:	e28e3028 	add	r3, lr, #40	@ 0x28
    202c:	e085200c 	add	r2, r5, ip
    2030:	ebfffe81 	bl	1a3c <PmLogPrint_@plt>
    2034:	e59f0168 	ldr	r0, [pc, #360]	@ 21a4 <vpnc_get_connection_details+0x2b4>
    2038:	e0850000 	add	r0, r5, r0
    203c:	eb000ec3 	bl	5b50 <LOCALIZED>
    2040:	e3a01000 	mov	r1, #0
    2044:	e3e02000 	mvn	r2, #0
    2048:	e1a03000 	mov	r3, r0
    204c:	e1a00009 	mov	r0, r9
    2050:	e12fff3b 	blx	fp
    2054:	eaffffdc 	b	1fcc <vpnc_get_connection_details+0xdc>
    2058:	e28d4008 	add	r4, sp, #8
    205c:	e3a0e000 	mov	lr, #0
    2060:	e2842004 	add	r2, r4, #4
    2064:	e58de008 	str	lr, [sp, #8]
    2068:	e2823004 	add	r3, r2, #4
    206c:	e58de00c 	str	lr, [sp, #12]
    2070:	e582e004 	str	lr, [r2, #4]
    2074:	e583e004 	str	lr, [r3, #4]
    2078:	eb00113e 	bl	6578 <get_connection_state_str>
    207c:	ebfffdf9 	bl	1868 <json_object_new_string@plt>
    2080:	e59fc108 	ldr	ip, [pc, #264]	@ 2190 <vpnc_get_connection_details+0x2a0>
    2084:	e085100c 	add	r1, r5, ip
    2088:	e1a02000 	mov	r2, r0
    208c:	e1a00006 	mov	r0, r6
    2090:	ebfffe5d 	bl	1a0c <json_object_object_add@plt>
    2094:	e1a01004 	mov	r1, r4
    2098:	e5970018 	ldr	r0, [r7, #24]
    209c:	eb00105e 	bl	621c <get_interface_stats>
    20a0:	e59d0008 	ldr	r0, [sp, #8]
    20a4:	ebfffdef 	bl	1868 <json_object_new_string@plt>
    20a8:	e59f10f8 	ldr	r1, [pc, #248]	@ 21a8 <vpnc_get_connection_details+0x2b8>
    20ac:	e0851001 	add	r1, r5, r1
    20b0:	e1a02000 	mov	r2, r0
    20b4:	e1a00006 	mov	r0, r6
    20b8:	ebfffe53 	bl	1a0c <json_object_object_add@plt>
    20bc:	e59d000c 	ldr	r0, [sp, #12]
    20c0:	ebfffde8 	bl	1868 <json_object_new_string@plt>
    20c4:	e59f30e0 	ldr	r3, [pc, #224]	@ 21ac <vpnc_get_connection_details+0x2bc>
    20c8:	e0851003 	add	r1, r5, r3
    20cc:	e1a02000 	mov	r2, r0
    20d0:	e1a00006 	mov	r0, r6
    20d4:	ebfffe4c 	bl	1a0c <json_object_object_add@plt>
    20d8:	e894000f 	ldm	r4, {r0, r1, r2, r3}
    20dc:	eb000eb8 	bl	5bc4 <free_interface_stats>
    20e0:	e597001c 	ldr	r0, [r7, #28]
    20e4:	e3500000 	cmp	r0, #0
    20e8:	0a000005 	beq	2104 <vpnc_get_connection_details+0x214>
    20ec:	ebfffddd 	bl	1868 <json_object_new_string@plt>
    20f0:	e59f40b8 	ldr	r4, [pc, #184]	@ 21b0 <vpnc_get_connection_details+0x2c0>
    20f4:	e0851004 	add	r1, r5, r4
    20f8:	e1a02000 	mov	r2, r0
    20fc:	e1a00006 	mov	r0, r6
    2100:	ebfffe41 	bl	1a0c <json_object_object_add@plt>
    2104:	e7951008 	ldr	r1, [r5, r8]
    2108:	e5910020 	ldr	r0, [r1, #32]
    210c:	e3500000 	cmp	r0, #0
    2110:	0a000018 	beq	2178 <vpnc_get_connection_details+0x288>
    2114:	ebfffdd3 	bl	1868 <json_object_new_string@plt>
    2118:	e59f3094 	ldr	r3, [pc, #148]	@ 21b4 <vpnc_get_connection_details+0x2c4>
    211c:	e0851003 	add	r1, r5, r3
    2120:	e1a02000 	mov	r2, r0
    2124:	e1a00006 	mov	r0, r6
    2128:	ebfffe37 	bl	1a0c <json_object_object_add@plt>
    212c:	e795c008 	ldr	ip, [r5, r8]
    2130:	e59c0024 	ldr	r0, [ip, #36]	@ 0x24
    2134:	e3500000 	cmp	r0, #0
    2138:	0a000005 	beq	2154 <vpnc_get_connection_details+0x264>
    213c:	ebfffdc9 	bl	1868 <json_object_new_string@plt>
    2140:	e59f4070 	ldr	r4, [pc, #112]	@ 21b8 <vpnc_get_connection_details+0x2c8>
    2144:	e0851004 	add	r1, r5, r4
    2148:	e1a02000 	mov	r2, r0
    214c:	e1a00006 	mov	r0, r6
    2150:	ebfffe2d 	bl	1a0c <json_object_object_add@plt>
    2154:	e59fe060 	ldr	lr, [pc, #96]	@ 21bc <vpnc_get_connection_details+0x2cc>
    2158:	e085000e 	add	r0, r5, lr
    215c:	ebfffdc1 	bl	1868 <json_object_new_string@plt>
    2160:	e59f1058 	ldr	r1, [pc, #88]	@ 21c0 <vpnc_get_connection_details+0x2d0>
    2164:	e0851001 	add	r1, r5, r1
    2168:	e1a02000 	mov	r2, r0
    216c:	e1a00006 	mov	r0, r6
    2170:	ebfffe25 	bl	1a0c <json_object_object_add@plt>
    2174:	eaffff7b 	b	1f68 <vpnc_get_connection_details+0x78>
    2178:	e59f0044 	ldr	r0, [pc, #68]	@ 21c4 <vpnc_get_connection_details+0x2d4>
    217c:	e0850000 	add	r0, r5, r0
    2180:	eaffffe3 	b	2114 <vpnc_get_connection_details+0x224>
    2184:	00011230 	.word	0x00011230
    2188:	00000190 	.word	0x00000190
    218c:	00000178 	.word	0x00000178
    2190:	ffff5ee0 	.word	0xffff5ee0
    2194:	ffff5740 	.word	0xffff5740
    2198:	ffff5c2c 	.word	0xffff5c2c
    219c:	ffff5bb8 	.word	0xffff5bb8
    21a0:	ffff5c48 	.word	0xffff5c48
    21a4:	ffff5c6c 	.word	0xffff5c6c
    21a8:	ffff5bd8 	.word	0xffff5bd8
    21ac:	ffff5be0 	.word	0xffff5be0
    21b0:	ffff5be8 	.word	0xffff5be8
    21b4:	ffff5bf8 	.word	0xffff5bf8
    21b8:	ffff5c08 	.word	0xffff5c08
    21bc:	ffff5c18 	.word	0xffff5c18
    21c0:	ffff5c20 	.word	0xffff5c20
    21c4:	ffff6fdc 	.word	0xffff6fdc

000021c8 <notify_banner_response_received>:
    21c8:	e59f311c 	ldr	r3, [pc, #284]	@ 22ec <notify_banner_response_received+0x124>
    21cc:	e92d4070 	push	{r4, r5, r6, lr}
    21d0:	e24dd008 	sub	sp, sp, #8
    21d4:	e08f4003 	add	r4, pc, r3
    21d8:	e1a06000 	mov	r6, r0
    21dc:	ebfffe5b 	bl	1b50 <json_object_new_object@plt>
    21e0:	e2505000 	subs	r5, r0, #0
    21e4:	0a00002d 	beq	22a0 <notify_banner_response_received+0xd8>
    21e8:	e59fe100 	ldr	lr, [pc, #256]	@ 22f0 <notify_banner_response_received+0x128>
    21ec:	e084000e 	add	r0, r4, lr
    21f0:	ebfffd9c 	bl	1868 <json_object_new_string@plt>
    21f4:	e59fc0f8 	ldr	ip, [pc, #248]	@ 22f4 <notify_banner_response_received+0x12c>
    21f8:	e084100c 	add	r1, r4, ip
    21fc:	e1a02000 	mov	r2, r0
    2200:	e1a00005 	mov	r0, r5
    2204:	ebfffe00 	bl	1a0c <json_object_object_add@plt>
    2208:	e1a00006 	mov	r0, r6
    220c:	ebfffd95 	bl	1868 <json_object_new_string@plt>
    2210:	e59f10e0 	ldr	r1, [pc, #224]	@ 22f8 <notify_banner_response_received+0x130>
    2214:	e0841001 	add	r1, r4, r1
    2218:	e1a02000 	mov	r2, r0
    221c:	e1a00005 	mov	r0, r5
    2220:	ebfffdf9 	bl	1a0c <json_object_object_add@plt>
    2224:	e1a00005 	mov	r0, r5
    2228:	ebfffe69 	bl	1bd4 <json_object_to_json_string@plt>
    222c:	e1a06000 	mov	r6, r0
    2230:	e59f00c4 	ldr	r0, [pc, #196]	@ 22fc <notify_banner_response_received+0x134>
    2234:	e7942000 	ldr	r2, [r4, r0]
    2238:	e5920000 	ldr	r0, [r2]
    223c:	e3500000 	cmp	r0, #0
    2240:	0a00000d 	beq	227c <notify_banner_response_received+0xb4>
    2244:	e5903000 	ldr	r3, [r0]
    2248:	e3530006 	cmp	r3, #6
    224c:	ca00000a 	bgt	227c <notify_banner_response_received+0xb4>
    2250:	e59f10a8 	ldr	r1, [pc, #168]	@ 2300 <notify_banner_response_received+0x138>
    2254:	e7940001 	ldr	r0, [r4, r1]
    2258:	e5901004 	ldr	r1, [r0, #4]
    225c:	e3510000 	cmp	r1, #0
    2260:	0a000001 	beq	226c <notify_banner_response_received+0xa4>
    2264:	e1a00006 	mov	r0, r6
    2268:	e12fff31 	blx	r1
    226c:	e1a00005 	mov	r0, r5
    2270:	e28dd008 	add	sp, sp, #8
    2274:	e8bd4070 	pop	{r4, r5, r6, lr}
    2278:	eafffe4c 	b	1bb0 <json_object_put@plt>
    227c:	e59fe080 	ldr	lr, [pc, #128]	@ 2304 <notify_banner_response_received+0x13c>
    2280:	e3a01007 	mov	r1, #7
    2284:	e59f207c 	ldr	r2, [pc, #124]	@ 2308 <notify_banner_response_received+0x140>
    2288:	e084c00e 	add	ip, r4, lr
    228c:	e58d6000 	str	r6, [sp]
    2290:	e0842002 	add	r2, r4, r2
    2294:	e28c3044 	add	r3, ip, #68	@ 0x44
    2298:	ebfffde7 	bl	1a3c <PmLogPrint_@plt>
    229c:	eaffffeb 	b	2250 <notify_banner_response_received+0x88>
    22a0:	e59f3054 	ldr	r3, [pc, #84]	@ 22fc <notify_banner_response_received+0x134>
    22a4:	e794c003 	ldr	ip, [r4, r3]
    22a8:	e59c0000 	ldr	r0, [ip]
    22ac:	e3500000 	cmp	r0, #0
    22b0:	0a000002 	beq	22c0 <notify_banner_response_received+0xf8>
    22b4:	e5902000 	ldr	r2, [r0]
    22b8:	e3520002 	cmp	r2, #2
    22bc:	da000008 	ble	22e4 <notify_banner_response_received+0x11c>
    22c0:	e59f303c 	ldr	r3, [pc, #60]	@ 2304 <notify_banner_response_received+0x13c>
    22c4:	e3a01003 	mov	r1, #3
    22c8:	e59fc03c 	ldr	ip, [pc, #60]	@ 230c <notify_banner_response_received+0x144>
    22cc:	e084e003 	add	lr, r4, r3
    22d0:	e084200c 	add	r2, r4, ip
    22d4:	e28e3044 	add	r3, lr, #68	@ 0x44
    22d8:	e28dd008 	add	sp, sp, #8
    22dc:	e8bd4070 	pop	{r4, r5, r6, lr}
    22e0:	eafffdd5 	b	1a3c <PmLogPrint_@plt>
    22e4:	e28dd008 	add	sp, sp, #8
    22e8:	e8bd8070 	pop	{r4, r5, r6, pc}
    22ec:	00010f64 	.word	0x00010f64
    22f0:	ffff5ba8 	.word	0xffff5ba8
    22f4:	ffff5c8c 	.word	0xffff5c8c
    22f8:	ffff5c9c 	.word	0xffff5c9c
    22fc:	00000190 	.word	0x00000190
    2300:	000001a0 	.word	0x000001a0
    2304:	ffff5740 	.word	0xffff5740
    2308:	ffff5cb4 	.word	0xffff5cb4
    230c:	ffff5cbc 	.word	0xffff5cbc

00002310 <notify_banner>:
    2310:	e59f312c 	ldr	r3, [pc, #300]	@ 2444 <notify_banner+0x134>
    2314:	e92d4070 	push	{r4, r5, r6, lr}
    2318:	e24dd008 	sub	sp, sp, #8
    231c:	e08f4003 	add	r4, pc, r3
    2320:	e1a06000 	mov	r6, r0
    2324:	ebfffe09 	bl	1b50 <json_object_new_object@plt>
    2328:	e2505000 	subs	r5, r0, #0
    232c:	0a000031 	beq	23f8 <notify_banner+0xe8>
    2330:	e59fe110 	ldr	lr, [pc, #272]	@ 2448 <notify_banner+0x138>
    2334:	e084000e 	add	r0, r4, lr
    2338:	ebfffd4a 	bl	1868 <json_object_new_string@plt>
    233c:	e59fc108 	ldr	ip, [pc, #264]	@ 244c <notify_banner+0x13c>
    2340:	e084100c 	add	r1, r4, ip
    2344:	e1a02000 	mov	r2, r0
    2348:	e1a00005 	mov	r0, r5
    234c:	ebfffdae 	bl	1a0c <json_object_object_add@plt>
    2350:	e1a00006 	mov	r0, r6
    2354:	ebfffd43 	bl	1868 <json_object_new_string@plt>
    2358:	e59f10f0 	ldr	r1, [pc, #240]	@ 2450 <notify_banner+0x140>
    235c:	e0841001 	add	r1, r4, r1
    2360:	e1a02000 	mov	r2, r0
    2364:	e1a00005 	mov	r0, r5
    2368:	ebfffda7 	bl	1a0c <json_object_object_add@plt>
    236c:	e1a00005 	mov	r0, r5
    2370:	ebfffe17 	bl	1bd4 <json_object_to_json_string@plt>
    2374:	e1a06000 	mov	r6, r0
    2378:	e59f00d4 	ldr	r0, [pc, #212]	@ 2454 <notify_banner+0x144>
    237c:	e7942000 	ldr	r2, [r4, r0]
    2380:	e5920000 	ldr	r0, [r2]
    2384:	e3500000 	cmp	r0, #0
    2388:	0a000011 	beq	23d4 <notify_banner+0xc4>
    238c:	e5903000 	ldr	r3, [r0]
    2390:	e3530006 	cmp	r3, #6
    2394:	ca00000e 	bgt	23d4 <notify_banner+0xc4>
    2398:	e59f10b8 	ldr	r1, [pc, #184]	@ 2458 <notify_banner+0x148>
    239c:	e7940001 	ldr	r0, [r4, r1]
    23a0:	e5902000 	ldr	r2, [r0]
    23a4:	e3520000 	cmp	r2, #0
    23a8:	0a000005 	beq	23c4 <notify_banner+0xb4>
    23ac:	e1a00006 	mov	r0, r6
    23b0:	e12fff32 	blx	r2
    23b4:	e59f20a0 	ldr	r2, [pc, #160]	@ 245c <notify_banner+0x14c>
    23b8:	e3a03001 	mov	r3, #1
    23bc:	e794c002 	ldr	ip, [r4, r2]
    23c0:	e5cc3000 	strb	r3, [ip]
    23c4:	e1a00005 	mov	r0, r5
    23c8:	e28dd008 	add	sp, sp, #8
    23cc:	e8bd4070 	pop	{r4, r5, r6, lr}
    23d0:	eafffdf6 	b	1bb0 <json_object_put@plt>
    23d4:	e59fe084 	ldr	lr, [pc, #132]	@ 2460 <notify_banner+0x150>
    23d8:	e3a01007 	mov	r1, #7
    23dc:	e59f2080 	ldr	r2, [pc, #128]	@ 2464 <notify_banner+0x154>
    23e0:	e084c00e 	add	ip, r4, lr
    23e4:	e58d6000 	str	r6, [sp]
    23e8:	e0842002 	add	r2, r4, r2
    23ec:	e28c3064 	add	r3, ip, #100	@ 0x64
    23f0:	ebfffd91 	bl	1a3c <PmLogPrint_@plt>
    23f4:	eaffffe7 	b	2398 <notify_banner+0x88>
    23f8:	e59f0054 	ldr	r0, [pc, #84]	@ 2454 <notify_banner+0x144>
    23fc:	e794e000 	ldr	lr, [r4, r0]
    2400:	e59e0000 	ldr	r0, [lr]
    2404:	e3500000 	cmp	r0, #0
    2408:	0a000002 	beq	2418 <notify_banner+0x108>
    240c:	e5901000 	ldr	r1, [r0]
    2410:	e3510002 	cmp	r1, #2
    2414:	da000008 	ble	243c <notify_banner+0x12c>
    2418:	e59f3040 	ldr	r3, [pc, #64]	@ 2460 <notify_banner+0x150>
    241c:	e3a01003 	mov	r1, #3
    2420:	e59f2040 	ldr	r2, [pc, #64]	@ 2468 <notify_banner+0x158>
    2424:	e084c003 	add	ip, r4, r3
    2428:	e0842002 	add	r2, r4, r2
    242c:	e28c3064 	add	r3, ip, #100	@ 0x64
    2430:	e28dd008 	add	sp, sp, #8
    2434:	e8bd4070 	pop	{r4, r5, r6, lr}
    2438:	eafffd7f 	b	1a3c <PmLogPrint_@plt>
    243c:	e28dd008 	add	sp, sp, #8
    2440:	e8bd8070 	pop	{r4, r5, r6, pc}
    2444:	00010e1c 	.word	0x00010e1c
    2448:	ffff5ba8 	.word	0xffff5ba8
    244c:	ffff5c8c 	.word	0xffff5c8c
    2450:	ffff5cec 	.word	0xffff5cec
    2454:	00000190 	.word	0x00000190
    2458:	000001a0 	.word	0x000001a0
    245c:	0000016c 	.word	0x0000016c
    2460:	ffff5740 	.word	0xffff5740
    2464:	ffff5cb4 	.word	0xffff5cb4
    2468:	ffff5cf4 	.word	0xffff5cf4

0000246c <vpnc_disconnect>:
    246c:	e92d41f0 	push	{r4, r5, r6, r7, r8, lr}
    2470:	e1a08000 	mov	r8, r0
    2474:	e59f00f8 	ldr	r0, [pc, #248]	@ 2574 <vpnc_disconnect+0x108>
    2478:	e24dd008 	sub	sp, sp, #8
    247c:	e59f30f4 	ldr	r3, [pc, #244]	@ 2578 <vpnc_disconnect+0x10c>
    2480:	e1a07001 	mov	r7, r1
    2484:	e08f5000 	add	r5, pc, r0
    2488:	e7952003 	ldr	r2, [r5, r3]
    248c:	e5926000 	ldr	r6, [r2]
    2490:	e3560000 	cmp	r6, #0
    2494:	0a00001b 	beq	2508 <vpnc_disconnect+0x9c>
    2498:	e5961000 	ldr	r1, [r6]
    249c:	e3510006 	cmp	r1, #6
    24a0:	ca000018 	bgt	2508 <vpnc_disconnect+0x9c>
    24a4:	e59fe0d0 	ldr	lr, [pc, #208]	@ 257c <vpnc_disconnect+0x110>
    24a8:	e795600e 	ldr	r6, [r5, lr]
    24ac:	e1a00006 	mov	r0, r6
    24b0:	eb00102a 	bl	6560 <get_active_profile_name>
    24b4:	e3500000 	cmp	r0, #0
    24b8:	0a000002 	beq	24c8 <vpnc_disconnect+0x5c>
    24bc:	e5d03000 	ldrb	r3, [r0]
    24c0:	e3530000 	cmp	r3, #0
    24c4:	1a00001e 	bne	2544 <vpnc_disconnect+0xd8>
    24c8:	e59f40b0 	ldr	r4, [pc, #176]	@ 2580 <vpnc_disconnect+0x114>
    24cc:	e3e0c000 	mvn	ip, #0
    24d0:	e7951004 	ldr	r1, [r5, r4]
    24d4:	e2710001 	rsbs	r0, r1, #1
    24d8:	33a00000 	movcc	r0, #0
    24dc:	e3570000 	cmp	r7, #0
    24e0:	03a00000 	moveq	r0, #0
    24e4:	e3500000 	cmp	r0, #0
    24e8:	0a000004 	beq	2500 <vpnc_disconnect+0x94>
    24ec:	e3a01000 	mov	r1, #0
    24f0:	e1a00008 	mov	r0, r8
    24f4:	e1a0200c 	mov	r2, ip
    24f8:	e1a03001 	mov	r3, r1
    24fc:	e12fff37 	blx	r7
    2500:	e28dd008 	add	sp, sp, #8
    2504:	e8bd81f0 	pop	{r4, r5, r6, r7, r8, pc}
    2508:	ebfffd78 	bl	1af0 <getpid@plt>
    250c:	e1a04000 	mov	r4, r0
    2510:	e3a000e0 	mov	r0, #224	@ 0xe0
    2514:	ebfffd93 	bl	1b68 <syscall@plt>
    2518:	e59f2064 	ldr	r2, [pc, #100]	@ 2584 <vpnc_disconnect+0x118>
    251c:	e58d4000 	str	r4, [sp]
    2520:	e3a01007 	mov	r1, #7
    2524:	e59f405c 	ldr	r4, [pc, #92]	@ 2588 <vpnc_disconnect+0x11c>
    2528:	e085c002 	add	ip, r5, r2
    252c:	e28c3074 	add	r3, ip, #116	@ 0x74
    2530:	e0852004 	add	r2, r5, r4
    2534:	e58d0004 	str	r0, [sp, #4]
    2538:	e1a00006 	mov	r0, r6
    253c:	ebfffd3e 	bl	1a3c <PmLogPrint_@plt>
    2540:	eaffffd7 	b	24a4 <vpnc_disconnect+0x38>
    2544:	e1a00008 	mov	r0, r8
    2548:	e1a01007 	mov	r1, r7
    254c:	e3a02000 	mov	r2, #0
    2550:	e59f4028 	ldr	r4, [pc, #40]	@ 2580 <vpnc_disconnect+0x114>
    2554:	eb000ec7 	bl	6078 <cmd_request_init>
    2558:	e3500000 	cmp	r0, #0
    255c:	e7850004 	str	r0, [r5, r4]
    2560:	0affffd9 	beq	24cc <vpnc_disconnect+0x60>
    2564:	e1a00006 	mov	r0, r6
    2568:	eb00122c 	bl	6e20 <disconnect_vpn>
    256c:	e1a0c000 	mov	ip, r0
    2570:	eaffffd6 	b	24d0 <vpnc_disconnect+0x64>
    2574:	00010cb4 	.word	0x00010cb4
    2578:	00000190 	.word	0x00000190
    257c:	00000178 	.word	0x00000178
    2580:	0000050c 	.word	0x0000050c
    2584:	ffff5740 	.word	0xffff5740
    2588:	ffff5b84 	.word	0xffff5b84

0000258c <vpnc_connect>:
    258c:	e92d45f0 	push	{r4, r5, r6, r7, r8, sl, lr}
    2590:	e1a08000 	mov	r8, r0
    2594:	e59f0160 	ldr	r0, [pc, #352]	@ 26fc <vpnc_connect+0x170>
    2598:	e1a0c001 	mov	ip, r1
    259c:	e59fa15c 	ldr	sl, [pc, #348]	@ 2700 <vpnc_connect+0x174>
    25a0:	e1a07002 	mov	r7, r2
    25a4:	e08f4000 	add	r4, pc, r0
    25a8:	e59f3154 	ldr	r3, [pc, #340]	@ 2704 <vpnc_connect+0x178>
    25ac:	e084500a 	add	r5, r4, sl
    25b0:	e3a00000 	mov	r0, #0
    25b4:	e24dd00c 	sub	sp, sp, #12
    25b8:	e5951004 	ldr	r1, [r5, #4]
    25bc:	e7942003 	ldr	r2, [r4, r3]
    25c0:	e1510000 	cmp	r1, r0
    25c4:	e5c20000 	strb	r0, [r2]
    25c8:	0a000026 	beq	2668 <vpnc_connect+0xdc>
    25cc:	e59fc134 	ldr	ip, [pc, #308]	@ 2708 <vpnc_connect+0x17c>
    25d0:	e1a06000 	mov	r6, r0
    25d4:	e084500c 	add	r5, r4, ip
    25d8:	e59f012c 	ldr	r0, [pc, #300]	@ 270c <vpnc_connect+0x180>
    25dc:	e794e000 	ldr	lr, [r4, r0]
    25e0:	e59e0000 	ldr	r0, [lr]
    25e4:	e3500000 	cmp	r0, #0
    25e8:	0a000002 	beq	25f8 <vpnc_connect+0x6c>
    25ec:	e5902000 	ldr	r2, [r0]
    25f0:	e3520002 	cmp	r2, #2
    25f4:	da000007 	ble	2618 <vpnc_connect+0x8c>
    25f8:	e59f3110 	ldr	r3, [pc, #272]	@ 2710 <vpnc_connect+0x184>
    25fc:	e3a01003 	mov	r1, #3
    2600:	e59fe10c 	ldr	lr, [pc, #268]	@ 2714 <vpnc_connect+0x188>
    2604:	e084c003 	add	ip, r4, r3
    2608:	e58d5000 	str	r5, [sp]
    260c:	e084200e 	add	r2, r4, lr
    2610:	e28c3084 	add	r3, ip, #132	@ 0x84
    2614:	ebfffd08 	bl	1a3c <PmLogPrint_@plt>
    2618:	e084000a 	add	r0, r4, sl
    261c:	e5901004 	ldr	r1, [r0, #4]
    2620:	e3510000 	cmp	r1, #0
    2624:	0a00000a 	beq	2654 <vpnc_connect+0xc8>
    2628:	e2800004 	add	r0, r0, #4
    262c:	eb000e82 	bl	603c <cmd_request_destroy>
    2630:	e1a00005 	mov	r0, r5
    2634:	eb000d45 	bl	5b50 <LOCALIZED>
    2638:	e3a01000 	mov	r1, #0
    263c:	e3e02000 	mvn	r2, #0
    2640:	e1a03000 	mov	r3, r0
    2644:	e1a00008 	mov	r0, r8
    2648:	e12fff37 	blx	r7
    264c:	e28dd00c 	add	sp, sp, #12
    2650:	e8bd85f0 	pop	{r4, r5, r6, r7, r8, sl, pc}
    2654:	e3560000 	cmp	r6, #0
    2658:	0afffff4 	beq	2630 <vpnc_connect+0xa4>
    265c:	e1a00006 	mov	r0, r6
    2660:	ebfffd52 	bl	1bb0 <json_object_put@plt>
    2664:	eafffff1 	b	2630 <vpnc_connect+0xa4>
    2668:	e1a0000c 	mov	r0, ip
    266c:	ebfffcd1 	bl	19b8 <json_tokener_parse@plt>
    2670:	e3700efa 	cmn	r0, #4000	@ 0xfa0
    2674:	e1a06000 	mov	r6, r0
    2678:	859fe098 	ldrhi	lr, [pc, #152]	@ 2718 <vpnc_connect+0x18c>
    267c:	8084500e 	addhi	r5, r4, lr
    2680:	8affffd4 	bhi	25d8 <vpnc_connect+0x4c>
    2684:	e1a00008 	mov	r0, r8
    2688:	e1a01007 	mov	r1, r7
    268c:	e1a02006 	mov	r2, r6
    2690:	eb000e78 	bl	6078 <cmd_request_init>
    2694:	e3500000 	cmp	r0, #0
    2698:	e5850004 	str	r0, [r5, #4]
    269c:	0a00000e 	beq	26dc <vpnc_connect+0x150>
    26a0:	e59f1074 	ldr	r1, [pc, #116]	@ 271c <vpnc_connect+0x190>
    26a4:	e7945001 	ldr	r5, [r4, r1]
    26a8:	e5950000 	ldr	r0, [r5]
    26ac:	e3500000 	cmp	r0, #0
    26b0:	0a00000c 	beq	26e8 <vpnc_connect+0x15c>
    26b4:	e59fc064 	ldr	ip, [pc, #100]	@ 2720 <vpnc_connect+0x194>
    26b8:	e3a02000 	mov	r2, #0
    26bc:	e1a03002 	mov	r3, r2
    26c0:	e084100c 	add	r1, r4, ip
    26c4:	eb000b98 	bl	552c <vpnc_workq_add>
    26c8:	e3500000 	cmp	r0, #0
    26cc:	caffffde 	bgt	264c <vpnc_connect+0xc0>
    26d0:	e59f304c 	ldr	r3, [pc, #76]	@ 2724 <vpnc_connect+0x198>
    26d4:	e0845003 	add	r5, r4, r3
    26d8:	eaffffbe 	b	25d8 <vpnc_connect+0x4c>
    26dc:	e59f2044 	ldr	r2, [pc, #68]	@ 2728 <vpnc_connect+0x19c>
    26e0:	e0845002 	add	r5, r4, r2
    26e4:	eaffffbb 	b	25d8 <vpnc_connect+0x4c>
    26e8:	eb000bdf 	bl	566c <vpnc_workq_create>
    26ec:	e3500000 	cmp	r0, #0
    26f0:	e5850000 	str	r0, [r5]
    26f4:	0afffff5 	beq	26d0 <vpnc_connect+0x144>
    26f8:	eaffffed 	b	26b4 <vpnc_connect+0x128>
    26fc:	00010b94 	.word	0x00010b94
    2700:	0000050c 	.word	0x0000050c
    2704:	0000016c 	.word	0x0000016c
    2708:	ffff5d10 	.word	0xffff5d10
    270c:	00000190 	.word	0x00000190
    2710:	ffff5740 	.word	0xffff5740
    2714:	ffff5cb4 	.word	0xffff5cb4
    2718:	ffff5d34 	.word	0xffff5d34
    271c:	0000017c 	.word	0x0000017c
    2720:	ffff10cc 	.word	0xffff10cc
    2724:	ffff5d80 	.word	0xffff5d80
    2728:	ffff5d54 	.word	0xffff5d54

0000272c <write_vpnc_config>:
    272c:	e92d000e 	push	{r1, r2, r3}
    2730:	e92d4070 	push	{r4, r5, r6, lr}
    2734:	e24dd00c 	sub	sp, sp, #12
    2738:	e28d3020 	add	r3, sp, #32
    273c:	e1a06000 	mov	r6, r0
    2740:	e59d001c 	ldr	r0, [sp, #28]
    2744:	e1a01003 	mov	r1, r3
    2748:	e58d3004 	str	r3, [sp, #4]
    274c:	ebfffcb1 	bl	1a18 <g_strdup_vprintf@plt>
    2750:	e59f4044 	ldr	r4, [pc, #68]	@ 279c <write_vpnc_config+0x70>
    2754:	e08f4004 	add	r4, pc, r4
    2758:	e1a05000 	mov	r5, r0
    275c:	ebfffca1 	bl	19e8 <strlen@plt>
    2760:	e1a01005 	mov	r1, r5
    2764:	e1a02000 	mov	r2, r0
    2768:	e1a00006 	mov	r0, r6
    276c:	ebfffc7f 	bl	1970 <write@plt>
    2770:	e59f1028 	ldr	r1, [pc, #40]	@ 27a0 <write_vpnc_config+0x74>
    2774:	e1a00006 	mov	r0, r6
    2778:	e3a02001 	mov	r2, #1
    277c:	e0841001 	add	r1, r4, r1
    2780:	ebfffc7a 	bl	1970 <write@plt>
    2784:	e1a00005 	mov	r0, r5
    2788:	ebfffc18 	bl	17f0 <g_free@plt>
    278c:	e28dd00c 	add	sp, sp, #12
    2790:	e8bd4070 	pop	{r4, r5, r6, lr}
    2794:	e28dd00c 	add	sp, sp, #12
    2798:	e12fff1e 	bx	lr
    279c:	000109e4 	.word	0x000109e4
    27a0:	ffff6f5c 	.word	0xffff6f5c

000027a4 <getValueFromProfileDetails>:
    27a4:	e59f30bc 	ldr	r3, [pc, #188]	@ 2868 <getValueFromProfileDetails+0xc4>
    27a8:	e92d47f0 	push	{r4, r5, r6, r7, r8, r9, sl, lr}
    27ac:	e1a06001 	mov	r6, r1
    27b0:	e59f10b4 	ldr	r1, [pc, #180]	@ 286c <getValueFromProfileDetails+0xc8>
    27b4:	e08f4003 	add	r4, pc, r3
    27b8:	e0841001 	add	r1, r4, r1
    27bc:	ebfffcb9 	bl	1aa8 <json_object_object_get@plt>
    27c0:	e3500000 	cmp	r0, #0
    27c4:	0a000004 	beq	27dc <getValueFromProfileDetails+0x38>
    27c8:	e59f20a0 	ldr	r2, [pc, #160]	@ 2870 <getValueFromProfileDetails+0xcc>
    27cc:	e0841002 	add	r1, r4, r2
    27d0:	ebfffcb4 	bl	1aa8 <json_object_object_get@plt>
    27d4:	e2505000 	subs	r5, r0, #0
    27d8:	1a000001 	bne	27e4 <getValueFromProfileDetails+0x40>
    27dc:	e3a00000 	mov	r0, #0
    27e0:	e8bd87f0 	pop	{r4, r5, r6, r7, r8, r9, sl, pc}
    27e4:	e3a01005 	mov	r1, #5
    27e8:	ebfffc36 	bl	18c8 <json_object_is_type@plt>
    27ec:	e3500000 	cmp	r0, #0
    27f0:	0afffff9 	beq	27dc <getValueFromProfileDetails+0x38>
    27f4:	e59f0078 	ldr	r0, [pc, #120]	@ 2874 <getValueFromProfileDetails+0xd0>
    27f8:	e3a07000 	mov	r7, #0
    27fc:	e084a000 	add	sl, r4, r0
    2800:	e1a00005 	mov	r0, r5
    2804:	ebfffbff 	bl	1808 <json_object_array_length@plt>
    2808:	e1a01007 	mov	r1, r7
    280c:	e1570000 	cmp	r7, r0
    2810:	e1a00005 	mov	r0, r5
    2814:	e2877001 	add	r7, r7, #1
    2818:	aaffffef 	bge	27dc <getValueFromProfileDetails+0x38>
    281c:	ebfffc35 	bl	18f8 <json_object_array_get_idx@plt>
    2820:	e1a0100a 	mov	r1, sl
    2824:	e1a08000 	mov	r8, r0
    2828:	ebfffc9e 	bl	1aa8 <json_object_object_get@plt>
    282c:	e3500000 	cmp	r0, #0
    2830:	0afffff2 	beq	2800 <getValueFromProfileDetails+0x5c>
    2834:	ebfffc35 	bl	1910 <json_object_get_string@plt>
    2838:	e1a01006 	mov	r1, r6
    283c:	ebfffce7 	bl	1be0 <g_ascii_strcasecmp@plt>
    2840:	e3500000 	cmp	r0, #0
    2844:	1affffed 	bne	2800 <getValueFromProfileDetails+0x5c>
    2848:	e59fc028 	ldr	ip, [pc, #40]	@ 2878 <getValueFromProfileDetails+0xd4>
    284c:	e1a00008 	mov	r0, r8
    2850:	e084100c 	add	r1, r4, ip
    2854:	ebfffc93 	bl	1aa8 <json_object_object_get@plt>
    2858:	e3500000 	cmp	r0, #0
    285c:	0affffde 	beq	27dc <getValueFromProfileDetails+0x38>
    2860:	e8bd47f0 	pop	{r4, r5, r6, r7, r8, r9, sl, lr}
    2864:	eafffc29 	b	1910 <json_object_get_string@plt>
    2868:	00010984 	.word	0x00010984
    286c:	ffff5da0 	.word	0xffff5da0
    2870:	ffff5dac 	.word	0xffff5dac
    2874:	ffff5dbc 	.word	0xffff5dbc
    2878:	ffff5dc0 	.word	0xffff5dc0

0000287c <send_vpnd_disconnect_cmd_response>:
    287c:	e92d41f0 	push	{r4, r5, r6, r7, r8, lr}
    2880:	e1a07000 	mov	r7, r0
    2884:	e59f00f0 	ldr	r0, [pc, #240]	@ 297c <send_vpnd_disconnect_cmd_response+0x100>
    2888:	e24dd008 	sub	sp, sp, #8
    288c:	e59f80ec 	ldr	r8, [pc, #236]	@ 2980 <send_vpnd_disconnect_cmd_response+0x104>
    2890:	e1a05001 	mov	r5, r1
    2894:	e08f4000 	add	r4, pc, r0
    2898:	e7943008 	ldr	r3, [r4, r8]
    289c:	e5930000 	ldr	r0, [r3]
    28a0:	e3500000 	cmp	r0, #0
    28a4:	0a00000e 	beq	28e4 <send_vpnd_disconnect_cmd_response+0x68>
    28a8:	e5901000 	ldr	r1, [r0]
    28ac:	e3510006 	cmp	r1, #6
    28b0:	ca00000b 	bgt	28e4 <send_vpnd_disconnect_cmd_response+0x68>
    28b4:	e59f30c8 	ldr	r3, [pc, #200]	@ 2984 <send_vpnd_disconnect_cmd_response+0x108>
    28b8:	e0846003 	add	r6, r4, r3
    28bc:	e7940003 	ldr	r0, [r4, r3]
    28c0:	e3500000 	cmp	r0, #0
    28c4:	0a000017 	beq	2928 <send_vpnd_disconnect_cmd_response+0xac>
    28c8:	e1a01007 	mov	r1, r7
    28cc:	e1a02005 	mov	r2, r5
    28d0:	eb000c0a 	bl	5900 <cmd_request_send_response>
    28d4:	e1a00006 	mov	r0, r6
    28d8:	e28dd008 	add	sp, sp, #8
    28dc:	e8bd41f0 	pop	{r4, r5, r6, r7, r8, lr}
    28e0:	ea000dd5 	b	603c <cmd_request_destroy>
    28e4:	e3550000 	cmp	r5, #0
    28e8:	11a02005 	movne	r2, r5
    28ec:	0a00001f 	beq	2970 <send_vpnd_disconnect_cmd_response+0xf4>
    28f0:	e59fe090 	ldr	lr, [pc, #144]	@ 2988 <send_vpnd_disconnect_cmd_response+0x10c>
    28f4:	e3a01007 	mov	r1, #7
    28f8:	e58d2004 	str	r2, [sp, #4]
    28fc:	e59f2088 	ldr	r2, [pc, #136]	@ 298c <send_vpnd_disconnect_cmd_response+0x110>
    2900:	e084c00e 	add	ip, r4, lr
    2904:	e28c3094 	add	r3, ip, #148	@ 0x94
    2908:	e58d7000 	str	r7, [sp]
    290c:	e0842002 	add	r2, r4, r2
    2910:	ebfffc49 	bl	1a3c <PmLogPrint_@plt>
    2914:	e59f3068 	ldr	r3, [pc, #104]	@ 2984 <send_vpnd_disconnect_cmd_response+0x108>
    2918:	e0846003 	add	r6, r4, r3
    291c:	e7940003 	ldr	r0, [r4, r3]
    2920:	e3500000 	cmp	r0, #0
    2924:	1affffe7 	bne	28c8 <send_vpnd_disconnect_cmd_response+0x4c>
    2928:	e7941008 	ldr	r1, [r4, r8]
    292c:	e5910000 	ldr	r0, [r1]
    2930:	e3500000 	cmp	r0, #0
    2934:	0a000002 	beq	2944 <send_vpnd_disconnect_cmd_response+0xc8>
    2938:	e590c000 	ldr	ip, [r0]
    293c:	e35c0002 	cmp	ip, #2
    2940:	da000008 	ble	2968 <send_vpnd_disconnect_cmd_response+0xec>
    2944:	e59fc03c 	ldr	ip, [pc, #60]	@ 2988 <send_vpnd_disconnect_cmd_response+0x10c>
    2948:	e3a01003 	mov	r1, #3
    294c:	e59f203c 	ldr	r2, [pc, #60]	@ 2990 <send_vpnd_disconnect_cmd_response+0x114>
    2950:	e084300c 	add	r3, r4, ip
    2954:	e0842002 	add	r2, r4, r2
    2958:	e2833094 	add	r3, r3, #148	@ 0x94
    295c:	e28dd008 	add	sp, sp, #8
    2960:	e8bd41f0 	pop	{r4, r5, r6, r7, r8, lr}
    2964:	eafffc34 	b	1a3c <PmLogPrint_@plt>
    2968:	e28dd008 	add	sp, sp, #8
    296c:	e8bd81f0 	pop	{r4, r5, r6, r7, r8, pc}
    2970:	e59f601c 	ldr	r6, [pc, #28]	@ 2994 <send_vpnd_disconnect_cmd_response+0x118>
    2974:	e0842006 	add	r2, r4, r6
    2978:	eaffffdc 	b	28f0 <send_vpnd_disconnect_cmd_response+0x74>
    297c:	000108a4 	.word	0x000108a4
    2980:	00000190 	.word	0x00000190
    2984:	0000050c 	.word	0x0000050c
    2988:	ffff5740 	.word	0xffff5740
    298c:	ffff5ddc 	.word	0xffff5ddc
    2990:	ffff5df4 	.word	0xffff5df4
    2994:	ffff5dc8 	.word	0xffff5dc8

00002998 <send_vpnd_connect_cmd_response>:
    2998:	e92d41f0 	push	{r4, r5, r6, r7, r8, lr}
    299c:	e1a07000 	mov	r7, r0
    29a0:	e59f00f0 	ldr	r0, [pc, #240]	@ 2a98 <send_vpnd_connect_cmd_response+0x100>
    29a4:	e24dd008 	sub	sp, sp, #8
    29a8:	e59f80ec 	ldr	r8, [pc, #236]	@ 2a9c <send_vpnd_connect_cmd_response+0x104>
    29ac:	e1a05001 	mov	r5, r1
    29b0:	e08f4000 	add	r4, pc, r0
    29b4:	e7943008 	ldr	r3, [r4, r8]
    29b8:	e5930000 	ldr	r0, [r3]
    29bc:	e3500000 	cmp	r0, #0
    29c0:	0a00000e 	beq	2a00 <send_vpnd_connect_cmd_response+0x68>
    29c4:	e5901000 	ldr	r1, [r0]
    29c8:	e3510006 	cmp	r1, #6
    29cc:	ca00000b 	bgt	2a00 <send_vpnd_connect_cmd_response+0x68>
    29d0:	e59f30c8 	ldr	r3, [pc, #200]	@ 2aa0 <send_vpnd_connect_cmd_response+0x108>
    29d4:	e0846003 	add	r6, r4, r3
    29d8:	e5960004 	ldr	r0, [r6, #4]
    29dc:	e3500000 	cmp	r0, #0
    29e0:	0a000017 	beq	2a44 <send_vpnd_connect_cmd_response+0xac>
    29e4:	e1a01007 	mov	r1, r7
    29e8:	e1a02005 	mov	r2, r5
    29ec:	eb000bc3 	bl	5900 <cmd_request_send_response>
    29f0:	e2860004 	add	r0, r6, #4
    29f4:	e28dd008 	add	sp, sp, #8
    29f8:	e8bd41f0 	pop	{r4, r5, r6, r7, r8, lr}
    29fc:	ea000d8e 	b	603c <cmd_request_destroy>
    2a00:	e3550000 	cmp	r5, #0
    2a04:	11a02005 	movne	r2, r5
    2a08:	0a00001f 	beq	2a8c <send_vpnd_connect_cmd_response+0xf4>
    2a0c:	e59fe090 	ldr	lr, [pc, #144]	@ 2aa4 <send_vpnd_connect_cmd_response+0x10c>
    2a10:	e3a01007 	mov	r1, #7
    2a14:	e58d2004 	str	r2, [sp, #4]
    2a18:	e59f2088 	ldr	r2, [pc, #136]	@ 2aa8 <send_vpnd_connect_cmd_response+0x110>
    2a1c:	e084c00e 	add	ip, r4, lr
    2a20:	e28c30b8 	add	r3, ip, #184	@ 0xb8
    2a24:	e58d7000 	str	r7, [sp]
    2a28:	e0842002 	add	r2, r4, r2
    2a2c:	ebfffc02 	bl	1a3c <PmLogPrint_@plt>
    2a30:	e59f3068 	ldr	r3, [pc, #104]	@ 2aa0 <send_vpnd_connect_cmd_response+0x108>
    2a34:	e0846003 	add	r6, r4, r3
    2a38:	e5960004 	ldr	r0, [r6, #4]
    2a3c:	e3500000 	cmp	r0, #0
    2a40:	1affffe7 	bne	29e4 <send_vpnd_connect_cmd_response+0x4c>
    2a44:	e7941008 	ldr	r1, [r4, r8]
    2a48:	e5910000 	ldr	r0, [r1]
    2a4c:	e3500000 	cmp	r0, #0
    2a50:	0a000002 	beq	2a60 <send_vpnd_connect_cmd_response+0xc8>
    2a54:	e590c000 	ldr	ip, [r0]
    2a58:	e35c0002 	cmp	ip, #2
    2a5c:	da000008 	ble	2a84 <send_vpnd_connect_cmd_response+0xec>
    2a60:	e59fc03c 	ldr	ip, [pc, #60]	@ 2aa4 <send_vpnd_connect_cmd_response+0x10c>
    2a64:	e3a01003 	mov	r1, #3
    2a68:	e59f203c 	ldr	r2, [pc, #60]	@ 2aac <send_vpnd_connect_cmd_response+0x114>
    2a6c:	e084300c 	add	r3, r4, ip
    2a70:	e0842002 	add	r2, r4, r2
    2a74:	e28330b8 	add	r3, r3, #184	@ 0xb8
    2a78:	e28dd008 	add	sp, sp, #8
    2a7c:	e8bd41f0 	pop	{r4, r5, r6, r7, r8, lr}
    2a80:	eafffbed 	b	1a3c <PmLogPrint_@plt>
    2a84:	e28dd008 	add	sp, sp, #8
    2a88:	e8bd81f0 	pop	{r4, r5, r6, r7, r8, pc}
    2a8c:	e59f601c 	ldr	r6, [pc, #28]	@ 2ab0 <send_vpnd_connect_cmd_response+0x118>
    2a90:	e0842006 	add	r2, r4, r6
    2a94:	eaffffdc 	b	2a0c <send_vpnd_connect_cmd_response+0x74>
    2a98:	00010788 	.word	0x00010788
    2a9c:	00000190 	.word	0x00000190
    2aa0:	0000050c 	.word	0x0000050c
    2aa4:	ffff5740 	.word	0xffff5740
    2aa8:	ffff5ddc 	.word	0xffff5ddc
    2aac:	ffff5e28 	.word	0xffff5e28
    2ab0:	ffff5dc8 	.word	0xffff5dc8

00002ab4 <notify_connection_state>:
    2ab4:	e92d45f0 	push	{r4, r5, r6, r7, r8, sl, lr}
    2ab8:	e1a05000 	mov	r5, r0
    2abc:	e59f02a4 	ldr	r0, [pc, #676]	@ 2d68 <notify_connection_state+0x2b4>
    2ac0:	e24dd00c 	sub	sp, sp, #12
    2ac4:	e59f72a0 	ldr	r7, [pc, #672]	@ 2d6c <notify_connection_state+0x2b8>
    2ac8:	e08f4000 	add	r4, pc, r0
    2acc:	ebfffc1f 	bl	1b50 <json_object_new_object@plt>
    2ad0:	e7943007 	ldr	r3, [r4, r7]
    2ad4:	e1a06000 	mov	r6, r0
    2ad8:	e5930000 	ldr	r0, [r3]
    2adc:	e3500000 	cmp	r0, #0
    2ae0:	0a000022 	beq	2b70 <notify_connection_state+0xbc>
    2ae4:	e5901000 	ldr	r1, [r0]
    2ae8:	e3510006 	cmp	r1, #6
    2aec:	ca00001f 	bgt	2b70 <notify_connection_state+0xbc>
    2af0:	e256a000 	subs	sl, r6, #0
    2af4:	13a0a001 	movne	sl, #1
    2af8:	e3550000 	cmp	r5, #0
    2afc:	13560000 	cmpne	r6, #0
    2b00:	1a000026 	bne	2ba0 <notify_connection_state+0xec>
    2b04:	e7941007 	ldr	r1, [r4, r7]
    2b08:	e5910000 	ldr	r0, [r1]
    2b0c:	e3500000 	cmp	r0, #0
    2b10:	0a000067 	beq	2cb4 <notify_connection_state+0x200>
    2b14:	e590c000 	ldr	ip, [r0]
    2b18:	e35c0002 	cmp	ip, #2
    2b1c:	ca000064 	bgt	2cb4 <notify_connection_state+0x200>
    2b20:	e35a0000 	cmp	sl, #0
    2b24:	0a000001 	beq	2b30 <notify_connection_state+0x7c>
    2b28:	e1a00006 	mov	r0, r6
    2b2c:	ebfffc1f 	bl	1bb0 <json_object_put@plt>
    2b30:	e7941007 	ldr	r1, [r4, r7]
    2b34:	e5910000 	ldr	r0, [r1]
    2b38:	e3500000 	cmp	r0, #0
    2b3c:	0a000002 	beq	2b4c <notify_connection_state+0x98>
    2b40:	e590c000 	ldr	ip, [r0]
    2b44:	e35c0006 	cmp	ip, #6
    2b48:	da000061 	ble	2cd4 <notify_connection_state+0x220>
    2b4c:	e59f321c 	ldr	r3, [pc, #540]	@ 2d70 <notify_connection_state+0x2bc>
    2b50:	e3a01007 	mov	r1, #7
    2b54:	e59f2218 	ldr	r2, [pc, #536]	@ 2d74 <notify_connection_state+0x2c0>
    2b58:	e084e003 	add	lr, r4, r3
    2b5c:	e0842002 	add	r2, r4, r2
    2b60:	e28e30d8 	add	r3, lr, #216	@ 0xd8
    2b64:	e28dd00c 	add	sp, sp, #12
    2b68:	e8bd45f0 	pop	{r4, r5, r6, r7, r8, sl, lr}
    2b6c:	eafffbb2 	b	1a3c <PmLogPrint_@plt>
    2b70:	e59fc1f8 	ldr	ip, [pc, #504]	@ 2d70 <notify_connection_state+0x2bc>
    2b74:	e3a01007 	mov	r1, #7
    2b78:	e59f21f8 	ldr	r2, [pc, #504]	@ 2d78 <notify_connection_state+0x2c4>
    2b7c:	e084a00c 	add	sl, r4, ip
    2b80:	e28a30d8 	add	r3, sl, #216	@ 0xd8
    2b84:	e0842002 	add	r2, r4, r2
    2b88:	ebfffbab 	bl	1a3c <PmLogPrint_@plt>
    2b8c:	e256a000 	subs	sl, r6, #0
    2b90:	13a0a001 	movne	sl, #1
    2b94:	e3550000 	cmp	r5, #0
    2b98:	13560000 	cmpne	r6, #0
    2b9c:	0affffd8 	beq	2b04 <notify_connection_state+0x50>
    2ba0:	e59fe1d4 	ldr	lr, [pc, #468]	@ 2d7c <notify_connection_state+0x2c8>
    2ba4:	e59f81d4 	ldr	r8, [pc, #468]	@ 2d80 <notify_connection_state+0x2cc>
    2ba8:	e084000e 	add	r0, r4, lr
    2bac:	ebfffb2d 	bl	1868 <json_object_new_string@plt>
    2bb0:	e59f31cc 	ldr	r3, [pc, #460]	@ 2d84 <notify_connection_state+0x2d0>
    2bb4:	e0841003 	add	r1, r4, r3
    2bb8:	e1a02000 	mov	r2, r0
    2bbc:	e1a00006 	mov	r0, r6
    2bc0:	ebfffb91 	bl	1a0c <json_object_object_add@plt>
    2bc4:	e595000c 	ldr	r0, [r5, #12]
    2bc8:	eb000e6a 	bl	6578 <get_connection_state_str>
    2bcc:	ebfffb25 	bl	1868 <json_object_new_string@plt>
    2bd0:	e0841008 	add	r1, r4, r8
    2bd4:	e1a02000 	mov	r2, r0
    2bd8:	e1a00006 	mov	r0, r6
    2bdc:	ebfffb8a 	bl	1a0c <json_object_object_add@plt>
    2be0:	e595000c 	ldr	r0, [r5, #12]
    2be4:	e3500001 	cmp	r0, #1
    2be8:	0a00004c 	beq	2d20 <notify_connection_state+0x26c>
    2bec:	e3500000 	cmp	r0, #0
    2bf0:	1a00000d 	bne	2c2c <notify_connection_state+0x178>
    2bf4:	e7943007 	ldr	r3, [r4, r7]
    2bf8:	e5930000 	ldr	r0, [r3]
    2bfc:	e3500000 	cmp	r0, #0
    2c00:	0a00003e 	beq	2d00 <notify_connection_state+0x24c>
    2c04:	e590e000 	ldr	lr, [r0]
    2c08:	e35e0006 	cmp	lr, #6
    2c0c:	ca00003b 	bgt	2d00 <notify_connection_state+0x24c>
    2c10:	e59f1170 	ldr	r1, [pc, #368]	@ 2d88 <notify_connection_state+0x2d4>
    2c14:	e7940001 	ldr	r0, [r4, r1]
    2c18:	e3500000 	cmp	r0, #0
    2c1c:	0a000002 	beq	2c2c <notify_connection_state+0x178>
    2c20:	e3a00000 	mov	r0, #0
    2c24:	e1a01000 	mov	r1, r0
    2c28:	ebffff13 	bl	287c <send_vpnd_disconnect_cmd_response>
    2c2c:	e1a00006 	mov	r0, r6
    2c30:	ebfffbe7 	bl	1bd4 <json_object_to_json_string@plt>
    2c34:	e7948007 	ldr	r8, [r4, r7]
    2c38:	e1a05000 	mov	r5, r0
    2c3c:	e5980000 	ldr	r0, [r8]
    2c40:	e3500000 	cmp	r0, #0
    2c44:	0a000024 	beq	2cdc <notify_connection_state+0x228>
    2c48:	e5903000 	ldr	r3, [r0]
    2c4c:	e3530006 	cmp	r3, #6
    2c50:	ca000021 	bgt	2cdc <notify_connection_state+0x228>
    2c54:	e59f8130 	ldr	r8, [pc, #304]	@ 2d8c <notify_connection_state+0x2d8>
    2c58:	e7940008 	ldr	r0, [r4, r8]
    2c5c:	e5902004 	ldr	r2, [r0, #4]
    2c60:	e3520000 	cmp	r2, #0
    2c64:	0affffad 	beq	2b20 <notify_connection_state+0x6c>
    2c68:	e7941007 	ldr	r1, [r4, r7]
    2c6c:	e5910000 	ldr	r0, [r1]
    2c70:	e3500000 	cmp	r0, #0
    2c74:	0a000002 	beq	2c84 <notify_connection_state+0x1d0>
    2c78:	e5903000 	ldr	r3, [r0]
    2c7c:	e3530006 	cmp	r3, #6
    2c80:	da000008 	ble	2ca8 <notify_connection_state+0x1f4>
    2c84:	e59f30e4 	ldr	r3, [pc, #228]	@ 2d70 <notify_connection_state+0x2bc>
    2c88:	e3a01007 	mov	r1, #7
    2c8c:	e59f20fc 	ldr	r2, [pc, #252]	@ 2d90 <notify_connection_state+0x2dc>
    2c90:	e084e003 	add	lr, r4, r3
    2c94:	e0842002 	add	r2, r4, r2
    2c98:	e28e30d8 	add	r3, lr, #216	@ 0xd8
    2c9c:	ebfffb66 	bl	1a3c <PmLogPrint_@plt>
    2ca0:	e794c008 	ldr	ip, [r4, r8]
    2ca4:	e59c2004 	ldr	r2, [ip, #4]
    2ca8:	e1a00005 	mov	r0, r5
    2cac:	e12fff32 	blx	r2
    2cb0:	eaffff9a 	b	2b20 <notify_connection_state+0x6c>
    2cb4:	e59f30b4 	ldr	r3, [pc, #180]	@ 2d70 <notify_connection_state+0x2bc>
    2cb8:	e3a01003 	mov	r1, #3
    2cbc:	e59f20d0 	ldr	r2, [pc, #208]	@ 2d94 <notify_connection_state+0x2e0>
    2cc0:	e084e003 	add	lr, r4, r3
    2cc4:	e0842002 	add	r2, r4, r2
    2cc8:	e28e30d8 	add	r3, lr, #216	@ 0xd8
    2ccc:	ebfffb5a 	bl	1a3c <PmLogPrint_@plt>
    2cd0:	eaffff92 	b	2b20 <notify_connection_state+0x6c>
    2cd4:	e28dd00c 	add	sp, sp, #12
    2cd8:	e8bd85f0 	pop	{r4, r5, r6, r7, r8, sl, pc}
    2cdc:	e59f208c 	ldr	r2, [pc, #140]	@ 2d70 <notify_connection_state+0x2bc>
    2ce0:	e3a01007 	mov	r1, #7
    2ce4:	e59fc0ac 	ldr	ip, [pc, #172]	@ 2d98 <notify_connection_state+0x2e4>
    2ce8:	e084e002 	add	lr, r4, r2
    2cec:	e58d5000 	str	r5, [sp]
    2cf0:	e084200c 	add	r2, r4, ip
    2cf4:	e28e30d8 	add	r3, lr, #216	@ 0xd8
    2cf8:	ebfffb4f 	bl	1a3c <PmLogPrint_@plt>
    2cfc:	eaffffd4 	b	2c54 <notify_connection_state+0x1a0>
    2d00:	e59f2068 	ldr	r2, [pc, #104]	@ 2d70 <notify_connection_state+0x2bc>
    2d04:	e3a01007 	mov	r1, #7
    2d08:	e59fc08c 	ldr	ip, [pc, #140]	@ 2d9c <notify_connection_state+0x2e8>
    2d0c:	e0845002 	add	r5, r4, r2
    2d10:	e28530d8 	add	r3, r5, #216	@ 0xd8
    2d14:	e084200c 	add	r2, r4, ip
    2d18:	ebfffb47 	bl	1a3c <PmLogPrint_@plt>
    2d1c:	eaffffbb 	b	2c10 <notify_connection_state+0x15c>
    2d20:	e7945007 	ldr	r5, [r4, r7]
    2d24:	e5950000 	ldr	r0, [r5]
    2d28:	e3500000 	cmp	r0, #0
    2d2c:	0a000002 	beq	2d3c <notify_connection_state+0x288>
    2d30:	e5901000 	ldr	r1, [r0]
    2d34:	e3510006 	cmp	r1, #6
    2d38:	da000006 	ble	2d58 <notify_connection_state+0x2a4>
    2d3c:	e59f802c 	ldr	r8, [pc, #44]	@ 2d70 <notify_connection_state+0x2bc>
    2d40:	e3a01007 	mov	r1, #7
    2d44:	e59f2054 	ldr	r2, [pc, #84]	@ 2da0 <notify_connection_state+0x2ec>
    2d48:	e084c008 	add	ip, r4, r8
    2d4c:	e0842002 	add	r2, r4, r2
    2d50:	e28c30d8 	add	r3, ip, #216	@ 0xd8
    2d54:	ebfffb38 	bl	1a3c <PmLogPrint_@plt>
    2d58:	e3a00000 	mov	r0, #0
    2d5c:	e1a01000 	mov	r1, r0
    2d60:	ebffff0c 	bl	2998 <send_vpnd_connect_cmd_response>
    2d64:	eaffffb0 	b	2c2c <notify_connection_state+0x178>
    2d68:	00010670 	.word	0x00010670
    2d6c:	00000190 	.word	0x00000190
    2d70:	ffff5740 	.word	0xffff5740
    2d74:	ffff5ee8 	.word	0xffff5ee8
    2d78:	ffff5e58 	.word	0xffff5e58
    2d7c:	ffff5ba8 	.word	0xffff5ba8
    2d80:	ffff5ee0 	.word	0xffff5ee0
    2d84:	ffff5c8c 	.word	0xffff5c8c
    2d88:	0000050c 	.word	0x0000050c
    2d8c:	000001a0 	.word	0x000001a0
    2d90:	ffff5e94 	.word	0xffff5e94
    2d94:	ffff5ec0 	.word	0xffff5ec0
    2d98:	ffff5cb4 	.word	0xffff5cb4
    2d9c:	ffff5e7c 	.word	0xffff5e7c
    2da0:	ffff5e64 	.word	0xffff5e64

00002da4 <cleanupVpnAgent>:
    2da4:	e59f0104 	ldr	r0, [pc, #260]	@ 2eb0 <cleanupVpnAgent+0x10c>
    2da8:	e59f3104 	ldr	r3, [pc, #260]	@ 2eb4 <cleanupVpnAgent+0x110>
    2dac:	e92d4070 	push	{r4, r5, r6, lr}
    2db0:	e08f5000 	add	r5, pc, r0
    2db4:	e24dd008 	sub	sp, sp, #8
    2db8:	e7952003 	ldr	r2, [r5, r3]
    2dbc:	e5926000 	ldr	r6, [r2]
    2dc0:	e3560000 	cmp	r6, #0
    2dc4:	0a000019 	beq	2e30 <cleanupVpnAgent+0x8c>
    2dc8:	e5961000 	ldr	r1, [r6]
    2dcc:	e3510006 	cmp	r1, #6
    2dd0:	ca000016 	bgt	2e30 <cleanupVpnAgent+0x8c>
    2dd4:	e59f60dc 	ldr	r6, [pc, #220]	@ 2eb8 <cleanupVpnAgent+0x114>
    2dd8:	e3a0e001 	mov	lr, #1
    2ddc:	e7954006 	ldr	r4, [r5, r6]
    2de0:	e594200c 	ldr	r2, [r4, #12]
    2de4:	e584e040 	str	lr, [r4, #64]	@ 0x40
    2de8:	e152000e 	cmp	r2, lr
    2dec:	0a000024 	beq	2e84 <cleanupVpnAgent+0xe0>
    2df0:	e3520000 	cmp	r2, #0
    2df4:	1a000027 	bne	2e98 <cleanupVpnAgent+0xf4>
    2df8:	e7954006 	ldr	r4, [r5, r6]
    2dfc:	e1a00004 	mov	r0, r4
    2e00:	eb000f1d 	bl	6a7c <destroy_connection>
    2e04:	e594003c 	ldr	r0, [r4, #60]	@ 0x3c
    2e08:	e3500000 	cmp	r0, #0
    2e0c:	0a000000 	beq	2e14 <cleanupVpnAgent+0x70>
    2e10:	eb0010aa 	bl	70c0 <teardown_vpnc>
    2e14:	e59fc0a0 	ldr	ip, [pc, #160]	@ 2ebc <cleanupVpnAgent+0x118>
    2e18:	e795000c 	ldr	r0, [r5, ip]
    2e1c:	eb0009d1 	bl	5568 <vpnc_workq_destroy>
    2e20:	eb000b4b 	bl	5b54 <unloadLocalizedStrings>
    2e24:	e3a00000 	mov	r0, #0
    2e28:	e28dd008 	add	sp, sp, #8
    2e2c:	e8bd8070 	pop	{r4, r5, r6, pc}
    2e30:	ebfffb2e 	bl	1af0 <getpid@plt>
    2e34:	e1a04000 	mov	r4, r0
    2e38:	e3a000e0 	mov	r0, #224	@ 0xe0
    2e3c:	ebfffb49 	bl	1b68 <syscall@plt>
    2e40:	e59f2078 	ldr	r2, [pc, #120]	@ 2ec0 <cleanupVpnAgent+0x11c>
    2e44:	e58d4000 	str	r4, [sp]
    2e48:	e3a01007 	mov	r1, #7
    2e4c:	e59f4070 	ldr	r4, [pc, #112]	@ 2ec4 <cleanupVpnAgent+0x120>
    2e50:	e085c002 	add	ip, r5, r2
    2e54:	e28c30f0 	add	r3, ip, #240	@ 0xf0
    2e58:	e0852004 	add	r2, r5, r4
    2e5c:	e58d0004 	str	r0, [sp, #4]
    2e60:	e1a00006 	mov	r0, r6
    2e64:	e59f604c 	ldr	r6, [pc, #76]	@ 2eb8 <cleanupVpnAgent+0x114>
    2e68:	ebfffaf3 	bl	1a3c <PmLogPrint_@plt>
    2e6c:	e3a0e001 	mov	lr, #1
    2e70:	e7954006 	ldr	r4, [r5, r6]
    2e74:	e594200c 	ldr	r2, [r4, #12]
    2e78:	e584e040 	str	lr, [r4, #64]	@ 0x40
    2e7c:	e152000e 	cmp	r2, lr
    2e80:	1affffda 	bne	2df0 <cleanupVpnAgent+0x4c>
    2e84:	e1a00004 	mov	r0, r4
    2e88:	eb000dd9 	bl	65f4 <removeTunnelInterface>
    2e8c:	e594200c 	ldr	r2, [r4, #12]
    2e90:	e3520000 	cmp	r2, #0
    2e94:	0affffd7 	beq	2df8 <cleanupVpnAgent+0x54>
    2e98:	e7951006 	ldr	r1, [r5, r6]
    2e9c:	e3a03000 	mov	r3, #0
    2ea0:	e1a00001 	mov	r0, r1
    2ea4:	e581300c 	str	r3, [r1, #12]
    2ea8:	ebffff01 	bl	2ab4 <notify_connection_state>
    2eac:	eaffffd1 	b	2df8 <cleanupVpnAgent+0x54>
    2eb0:	00010388 	.word	0x00010388
    2eb4:	00000190 	.word	0x00000190
    2eb8:	00000178 	.word	0x00000178
    2ebc:	0000017c 	.word	0x0000017c
    2ec0:	ffff5740 	.word	0xffff5740
    2ec4:	ffff5b84 	.word	0xffff5b84

00002ec8 <destroy_vpnc_agent>:
    2ec8:	e59f0098 	ldr	r0, [pc, #152]	@ 2f68 <destroy_vpnc_agent+0xa0>
    2ecc:	e92d4070 	push	{r4, r5, r6, lr}
    2ed0:	e59f5094 	ldr	r5, [pc, #148]	@ 2f6c <destroy_vpnc_agent+0xa4>
    2ed4:	e08f4000 	add	r4, pc, r0
    2ed8:	e7943005 	ldr	r3, [r4, r5]
    2edc:	e5930000 	ldr	r0, [r3]
    2ee0:	e3500000 	cmp	r0, #0
    2ee4:	0a000017 	beq	2f48 <destroy_vpnc_agent+0x80>
    2ee8:	e5901000 	ldr	r1, [r0]
    2eec:	e3510006 	cmp	r1, #6
    2ef0:	ca000014 	bgt	2f48 <destroy_vpnc_agent+0x80>
    2ef4:	e59f1074 	ldr	r1, [pc, #116]	@ 2f70 <destroy_vpnc_agent+0xa8>
    2ef8:	e7940001 	ldr	r0, [r4, r1]
    2efc:	e5903040 	ldr	r3, [r0, #64]	@ 0x40
    2f00:	e3530001 	cmp	r3, #1
    2f04:	0a000000 	beq	2f0c <destroy_vpnc_agent+0x44>
    2f08:	ebfffa4d 	bl	1844 <cleanupVpnAgent@plt>
    2f0c:	e794c005 	ldr	ip, [r4, r5]
    2f10:	e59c0000 	ldr	r0, [ip]
    2f14:	e3500000 	cmp	r0, #0
    2f18:	0a000002 	beq	2f28 <destroy_vpnc_agent+0x60>
    2f1c:	e5902000 	ldr	r2, [r0]
    2f20:	e3520006 	cmp	r2, #6
    2f24:	d8bd8070 	pople	{r4, r5, r6, pc}
    2f28:	e59f2044 	ldr	r2, [pc, #68]	@ 2f74 <destroy_vpnc_agent+0xac>
    2f2c:	e3a01007 	mov	r1, #7
    2f30:	e59fc040 	ldr	ip, [pc, #64]	@ 2f78 <destroy_vpnc_agent+0xb0>
    2f34:	e0843002 	add	r3, r4, r2
    2f38:	e2833c01 	add	r3, r3, #256	@ 0x100
    2f3c:	e084200c 	add	r2, r4, ip
    2f40:	e8bd4070 	pop	{r4, r5, r6, lr}
    2f44:	eafffabc 	b	1a3c <PmLogPrint_@plt>
    2f48:	e59fe024 	ldr	lr, [pc, #36]	@ 2f74 <destroy_vpnc_agent+0xac>
    2f4c:	e3a01007 	mov	r1, #7
    2f50:	e59f2024 	ldr	r2, [pc, #36]	@ 2f7c <destroy_vpnc_agent+0xb4>
    2f54:	e084c00e 	add	ip, r4, lr
    2f58:	e0842002 	add	r2, r4, r2
    2f5c:	e28c3c01 	add	r3, ip, #256	@ 0x100
    2f60:	ebfffab5 	bl	1a3c <PmLogPrint_@plt>
    2f64:	eaffffe2 	b	2ef4 <destroy_vpnc_agent+0x2c>
    2f68:	00010264 	.word	0x00010264
    2f6c:	00000190 	.word	0x00000190
    2f70:	00000178 	.word	0x00000178
    2f74:	ffff5740 	.word	0xffff5740
    2f78:	ffff5f10 	.word	0xffff5f10
    2f7c:	ffff5ef4 	.word	0xffff5ef4

00002f80 <notify_notice_message>:
    2f80:	e92d47f0 	push	{r4, r5, r6, r7, r8, r9, sl, lr}
    2f84:	e1a07000 	mov	r7, r0
    2f88:	e59f02a4 	ldr	r0, [pc, #676]	@ 3234 <notify_notice_message+0x2b4>
    2f8c:	e24dd008 	sub	sp, sp, #8
    2f90:	e1a06001 	mov	r6, r1
    2f94:	e59f829c 	ldr	r8, [pc, #668]	@ 3238 <notify_notice_message+0x2b8>
    2f98:	e08f4000 	add	r4, pc, r0
    2f9c:	ebfffaeb 	bl	1b50 <json_object_new_object@plt>
    2fa0:	e7943008 	ldr	r3, [r4, r8]
    2fa4:	e1a05000 	mov	r5, r0
    2fa8:	e5930000 	ldr	r0, [r3]
    2fac:	e3500000 	cmp	r0, #0
    2fb0:	0a000022 	beq	3040 <notify_notice_message+0xc0>
    2fb4:	e5901000 	ldr	r1, [r0]
    2fb8:	e3510006 	cmp	r1, #6
    2fbc:	ca00001f 	bgt	3040 <notify_notice_message+0xc0>
    2fc0:	e2559000 	subs	r9, r5, #0
    2fc4:	13a09001 	movne	r9, #1
    2fc8:	e3560000 	cmp	r6, #0
    2fcc:	13550000 	cmpne	r5, #0
    2fd0:	1a000026 	bne	3070 <notify_notice_message+0xf0>
    2fd4:	e7941008 	ldr	r1, [r4, r8]
    2fd8:	e5910000 	ldr	r0, [r1]
    2fdc:	e3500000 	cmp	r0, #0
    2fe0:	0a000038 	beq	30c8 <notify_notice_message+0x148>
    2fe4:	e590c000 	ldr	ip, [r0]
    2fe8:	e35c0002 	cmp	ip, #2
    2fec:	ca000035 	bgt	30c8 <notify_notice_message+0x148>
    2ff0:	e3590000 	cmp	r9, #0
    2ff4:	0a000001 	beq	3000 <notify_notice_message+0x80>
    2ff8:	e1a00005 	mov	r0, r5
    2ffc:	ebfffaeb 	bl	1bb0 <json_object_put@plt>
    3000:	e7941008 	ldr	r1, [r4, r8]
    3004:	e5910000 	ldr	r0, [r1]
    3008:	e3500000 	cmp	r0, #0
    300c:	0a000002 	beq	301c <notify_notice_message+0x9c>
    3010:	e590c000 	ldr	ip, [r0]
    3014:	e35c0006 	cmp	ip, #6
    3018:	da000032 	ble	30e8 <notify_notice_message+0x168>
    301c:	e59f3218 	ldr	r3, [pc, #536]	@ 323c <notify_notice_message+0x2bc>
    3020:	e3a01007 	mov	r1, #7
    3024:	e59f2214 	ldr	r2, [pc, #532]	@ 3240 <notify_notice_message+0x2c0>
    3028:	e084e003 	add	lr, r4, r3
    302c:	e0842002 	add	r2, r4, r2
    3030:	e28e3f45 	add	r3, lr, #276	@ 0x114
    3034:	e28dd008 	add	sp, sp, #8
    3038:	e8bd47f0 	pop	{r4, r5, r6, r7, r8, r9, sl, lr}
    303c:	eafffa7e 	b	1a3c <PmLogPrint_@plt>
    3040:	e59fc1f4 	ldr	ip, [pc, #500]	@ 323c <notify_notice_message+0x2bc>
    3044:	e3a01007 	mov	r1, #7
    3048:	e59f21f4 	ldr	r2, [pc, #500]	@ 3244 <notify_notice_message+0x2c4>
    304c:	e084900c 	add	r9, r4, ip
    3050:	e2893f45 	add	r3, r9, #276	@ 0x114
    3054:	e0842002 	add	r2, r4, r2
    3058:	ebfffa77 	bl	1a3c <PmLogPrint_@plt>
    305c:	e2559000 	subs	r9, r5, #0
    3060:	13a09001 	movne	r9, #1
    3064:	e3560000 	cmp	r6, #0
    3068:	13550000 	cmpne	r5, #0
    306c:	0affffd8 	beq	2fd4 <notify_notice_message+0x54>
    3070:	e59fe1d0 	ldr	lr, [pc, #464]	@ 3248 <notify_notice_message+0x2c8>
    3074:	e59fa1d0 	ldr	sl, [pc, #464]	@ 324c <notify_notice_message+0x2cc>
    3078:	e084000e 	add	r0, r4, lr
    307c:	ebfff9f9 	bl	1868 <json_object_new_string@plt>
    3080:	e59f31c8 	ldr	r3, [pc, #456]	@ 3250 <notify_notice_message+0x2d0>
    3084:	e0841003 	add	r1, r4, r3
    3088:	e1a02000 	mov	r2, r0
    308c:	e1a00005 	mov	r0, r5
    3090:	ebfffa5d 	bl	1a0c <json_object_object_add@plt>
    3094:	e1a00006 	mov	r0, r6
    3098:	ebfff9f2 	bl	1868 <json_object_new_string@plt>
    309c:	e084100a 	add	r1, r4, sl
    30a0:	e1a02000 	mov	r2, r0
    30a4:	e1a00005 	mov	r0, r5
    30a8:	ebfffa57 	bl	1a0c <json_object_object_add@plt>
    30ac:	e3570003 	cmp	r7, #3
    30b0:	908ff107 	addls	pc, pc, r7, lsl #2
    30b4:	ea00001a 	b	3124 <notify_notice_message+0x1a4>
    30b8:	ea000053 	b	320c <notify_notice_message+0x28c>
    30bc:	ea00004f 	b	3200 <notify_notice_message+0x280>
    30c0:	ea000044 	b	31d8 <notify_notice_message+0x258>
    30c4:	ea000009 	b	30f0 <notify_notice_message+0x170>
    30c8:	e59f316c 	ldr	r3, [pc, #364]	@ 323c <notify_notice_message+0x2bc>
    30cc:	e3a01003 	mov	r1, #3
    30d0:	e59f217c 	ldr	r2, [pc, #380]	@ 3254 <notify_notice_message+0x2d4>
    30d4:	e084e003 	add	lr, r4, r3
    30d8:	e0842002 	add	r2, r4, r2
    30dc:	e28e3f45 	add	r3, lr, #276	@ 0x114
    30e0:	ebfffa55 	bl	1a3c <PmLogPrint_@plt>
    30e4:	eaffffc1 	b	2ff0 <notify_notice_message+0x70>
    30e8:	e28dd008 	add	sp, sp, #8
    30ec:	e8bd87f0 	pop	{r4, r5, r6, r7, r8, r9, sl, pc}
    30f0:	e59fa160 	ldr	sl, [pc, #352]	@ 3258 <notify_notice_message+0x2d8>
    30f4:	e084000a 	add	r0, r4, sl
    30f8:	ebfff9da 	bl	1868 <json_object_new_string@plt>
    30fc:	e59fc158 	ldr	ip, [pc, #344]	@ 325c <notify_notice_message+0x2dc>
    3100:	e084100c 	add	r1, r4, ip
    3104:	e1a02000 	mov	r2, r0
    3108:	e1a00005 	mov	r0, r5
    310c:	ebfffa3e 	bl	1a0c <json_object_object_add@plt>
    3110:	e59f2148 	ldr	r2, [pc, #328]	@ 3260 <notify_notice_message+0x2e0>
    3114:	e0841002 	add	r1, r4, r2
    3118:	e5910004 	ldr	r0, [r1, #4]
    311c:	e3500000 	cmp	r0, #0
    3120:	1a00003c 	bne	3218 <notify_notice_message+0x298>
    3124:	e3a06001 	mov	r6, #1
    3128:	e1a00005 	mov	r0, r5
    312c:	ebfffaa8 	bl	1bd4 <json_object_to_json_string@plt>
    3130:	e7943008 	ldr	r3, [r4, r8]
    3134:	e1a0a000 	mov	sl, r0
    3138:	e5930000 	ldr	r0, [r3]
    313c:	e3500000 	cmp	r0, #0
    3140:	0a000002 	beq	3150 <notify_notice_message+0x1d0>
    3144:	e590e000 	ldr	lr, [r0]
    3148:	e35e0006 	cmp	lr, #6
    314c:	da000007 	ble	3170 <notify_notice_message+0x1f0>
    3150:	e59fc0e4 	ldr	ip, [pc, #228]	@ 323c <notify_notice_message+0x2bc>
    3154:	e3a01007 	mov	r1, #7
    3158:	e59f2104 	ldr	r2, [pc, #260]	@ 3264 <notify_notice_message+0x2e4>
    315c:	e084700c 	add	r7, r4, ip
    3160:	e58da000 	str	sl, [sp]
    3164:	e0842002 	add	r2, r4, r2
    3168:	e2873f45 	add	r3, r7, #276	@ 0x114
    316c:	ebfffa32 	bl	1a3c <PmLogPrint_@plt>
    3170:	e59f70f0 	ldr	r7, [pc, #240]	@ 3268 <notify_notice_message+0x2e8>
    3174:	e7940007 	ldr	r0, [r4, r7]
    3178:	e5902004 	ldr	r2, [r0, #4]
    317c:	e3520000 	cmp	r2, #0
    3180:	0affff9a 	beq	2ff0 <notify_notice_message+0x70>
    3184:	e3560000 	cmp	r6, #0
    3188:	0affff98 	beq	2ff0 <notify_notice_message+0x70>
    318c:	e7941008 	ldr	r1, [r4, r8]
    3190:	e5910000 	ldr	r0, [r1]
    3194:	e3500000 	cmp	r0, #0
    3198:	0a000002 	beq	31a8 <notify_notice_message+0x228>
    319c:	e5903000 	ldr	r3, [r0]
    31a0:	e3530006 	cmp	r3, #6
    31a4:	da000008 	ble	31cc <notify_notice_message+0x24c>
    31a8:	e59f308c 	ldr	r3, [pc, #140]	@ 323c <notify_notice_message+0x2bc>
    31ac:	e3a01007 	mov	r1, #7
    31b0:	e59f20b4 	ldr	r2, [pc, #180]	@ 326c <notify_notice_message+0x2ec>
    31b4:	e084e003 	add	lr, r4, r3
    31b8:	e0842002 	add	r2, r4, r2
    31bc:	e28e3f45 	add	r3, lr, #276	@ 0x114
    31c0:	ebfffa1d 	bl	1a3c <PmLogPrint_@plt>
    31c4:	e794c007 	ldr	ip, [r4, r7]
    31c8:	e59c2004 	ldr	r2, [ip, #4]
    31cc:	e1a0000a 	mov	r0, sl
    31d0:	e12fff32 	blx	r2
    31d4:	eaffff85 	b	2ff0 <notify_notice_message+0x70>
    31d8:	e59f0090 	ldr	r0, [pc, #144]	@ 3270 <notify_notice_message+0x2f0>
    31dc:	e3a06001 	mov	r6, #1
    31e0:	e0840000 	add	r0, r4, r0
    31e4:	e59f7070 	ldr	r7, [pc, #112]	@ 325c <notify_notice_message+0x2dc>
    31e8:	ebfff99e 	bl	1868 <json_object_new_string@plt>
    31ec:	e0841007 	add	r1, r4, r7
    31f0:	e1a02000 	mov	r2, r0
    31f4:	e1a00005 	mov	r0, r5
    31f8:	ebfffa03 	bl	1a0c <json_object_object_add@plt>
    31fc:	eaffffc9 	b	3128 <notify_notice_message+0x1a8>
    3200:	e3a06001 	mov	r6, #1
    3204:	e59f0068 	ldr	r0, [pc, #104]	@ 3274 <notify_notice_message+0x2f4>
    3208:	eafffff4 	b	31e0 <notify_notice_message+0x260>
    320c:	e3a06001 	mov	r6, #1
    3210:	e59f0060 	ldr	r0, [pc, #96]	@ 3278 <notify_notice_message+0x2f8>
    3214:	eafffff1 	b	31e0 <notify_notice_message+0x260>
    3218:	e1a00006 	mov	r0, r6
    321c:	e3a06000 	mov	r6, #0
    3220:	eb000a4a 	bl	5b50 <LOCALIZED>
    3224:	e1a01000 	mov	r1, r0
    3228:	e3e00000 	mvn	r0, #0
    322c:	ebfffdd9 	bl	2998 <send_vpnd_connect_cmd_response>
    3230:	eaffffbc 	b	3128 <notify_notice_message+0x1a8>
    3234:	000101a0 	.word	0x000101a0
    3238:	00000190 	.word	0x00000190
    323c:	ffff5740 	.word	0xffff5740
    3240:	ffff5ee8 	.word	0xffff5ee8
    3244:	ffff5e58 	.word	0xffff5e58
    3248:	ffff5ba8 	.word	0xffff5ba8
    324c:	ffff5f2c 	.word	0xffff5f2c
    3250:	ffff5c8c 	.word	0xffff5c8c
    3254:	ffff5f84 	.word	0xffff5f84
    3258:	ffff5f78 	.word	0xffff5f78
    325c:	ffff5f44 	.word	0xffff5f44
    3260:	0000050c 	.word	0x0000050c
    3264:	ffff5cb4 	.word	0xffff5cb4
    3268:	000001a0 	.word	0x000001a0
    326c:	ffff5e94 	.word	0xffff5e94
    3270:	ffff5f68 	.word	0xffff5f68
    3274:	ffff5f54 	.word	0xffff5f54
    3278:	ffff5f34 	.word	0xffff5f34

0000327c <build_ui_credentials_json>:
    327c:	e92d4ff0 	push	{r4, r5, r6, r7, r8, r9, sl, fp, lr}
    3280:	e59f46d8 	ldr	r4, [pc, #1752]	@ 3960 <build_ui_credentials_json+0x6e4>
    3284:	e59f26d8 	ldr	r2, [pc, #1752]	@ 3964 <build_ui_credentials_json+0x6e8>
    3288:	e24dd02c 	sub	sp, sp, #44	@ 0x2c
    328c:	e08f7004 	add	r7, pc, r4
    3290:	e1a06000 	mov	r6, r0
    3294:	e0870002 	add	r0, r7, r2
    3298:	e1a0a001 	mov	sl, r1
    329c:	ebfff971 	bl	1868 <json_object_new_string@plt>
    32a0:	e59f36c0 	ldr	r3, [pc, #1728]	@ 3968 <build_ui_credentials_json+0x6ec>
    32a4:	e59f86c0 	ldr	r8, [pc, #1728]	@ 396c <build_ui_credentials_json+0x6f0>
    32a8:	e0871003 	add	r1, r7, r3
    32ac:	e1a02000 	mov	r2, r0
    32b0:	e1a00006 	mov	r0, r6
    32b4:	ebfff9d4 	bl	1a0c <json_object_object_add@plt>
    32b8:	e59f06b0 	ldr	r0, [pc, #1712]	@ 3970 <build_ui_credentials_json+0x6f4>
    32bc:	e0870000 	add	r0, r7, r0
    32c0:	ebfff968 	bl	1868 <json_object_new_string@plt>
    32c4:	e59f16a8 	ldr	r1, [pc, #1704]	@ 3974 <build_ui_credentials_json+0x6f8>
    32c8:	e0871001 	add	r1, r7, r1
    32cc:	e1a02000 	mov	r2, r0
    32d0:	e1a00006 	mov	r0, r6
    32d4:	ebfff9cc 	bl	1a0c <json_object_object_add@plt>
    32d8:	e7974008 	ldr	r4, [r7, r8]
    32dc:	e1a00004 	mov	r0, r4
    32e0:	eb000c9e 	bl	6560 <get_active_profile_name>
    32e4:	e3500000 	cmp	r0, #0
    32e8:	0a00001c 	beq	3360 <build_ui_credentials_json+0xe4>
    32ec:	e1a00004 	mov	r0, r4
    32f0:	eb000c96 	bl	6550 <get_profile>
    32f4:	e1a05000 	mov	r5, r0
    32f8:	e1a00004 	mov	r0, r4
    32fc:	eb000c97 	bl	6560 <get_active_profile_name>
    3300:	ebfff958 	bl	1868 <json_object_new_string@plt>
    3304:	e59fc66c 	ldr	ip, [pc, #1644]	@ 3978 <build_ui_credentials_json+0x6fc>
    3308:	e087100c 	add	r1, r7, ip
    330c:	e1a02000 	mov	r2, r0
    3310:	e1a00006 	mov	r0, r6
    3314:	ebfff9bc 	bl	1a0c <json_object_object_add@plt>
    3318:	e3550000 	cmp	r5, #0
    331c:	0a00000f 	beq	3360 <build_ui_credentials_json+0xe4>
    3320:	e1a00005 	mov	r0, r5
    3324:	ebfff9a3 	bl	19b8 <json_tokener_parse@plt>
    3328:	e3700efa 	cmn	r0, #4000	@ 0xfa0
    332c:	e58d0020 	str	r0, [sp, #32]
    3330:	9a00000c 	bls	3368 <build_ui_credentials_json+0xec>
    3334:	e59f1640 	ldr	r1, [pc, #1600]	@ 397c <build_ui_credentials_json+0x700>
    3338:	e797e001 	ldr	lr, [r7, r1]
    333c:	e59e0000 	ldr	r0, [lr]
    3340:	e3500000 	cmp	r0, #0
    3344:	0a00011b 	beq	37b8 <build_ui_credentials_json+0x53c>
    3348:	e5903000 	ldr	r3, [r0]
    334c:	e3530002 	cmp	r3, #2
    3350:	ca000118 	bgt	37b8 <build_ui_credentials_json+0x53c>
    3354:	e3e00000 	mvn	r0, #0
    3358:	e28dd02c 	add	sp, sp, #44	@ 0x2c
    335c:	e8bd8ff0 	pop	{r4, r5, r6, r7, r8, r9, sl, fp, pc}
    3360:	e3a09000 	mov	r9, #0
    3364:	e58d9020 	str	r9, [sp, #32]
    3368:	e7974008 	ldr	r4, [r7, r8]
    336c:	e1a00004 	mov	r0, r4
    3370:	eb000c78 	bl	6558 <get_host_name>
    3374:	e3500000 	cmp	r0, #0
    3378:	0a000007 	beq	339c <build_ui_credentials_json+0x120>
    337c:	e1a00004 	mov	r0, r4
    3380:	e59fb5f8 	ldr	fp, [pc, #1528]	@ 3980 <build_ui_credentials_json+0x704>
    3384:	eb000c73 	bl	6558 <get_host_name>
    3388:	ebfff936 	bl	1868 <json_object_new_string@plt>
    338c:	e087100b 	add	r1, r7, fp
    3390:	e1a02000 	mov	r2, r0
    3394:	e1a00006 	mov	r0, r6
    3398:	ebfff99b 	bl	1a0c <json_object_object_add@plt>
    339c:	ebfff9c4 	bl	1ab4 <json_object_new_array@plt>
    33a0:	e2503000 	subs	r3, r0, #0
    33a4:	e58d3024 	str	r3, [sp, #36]	@ 0x24
    33a8:	0a000142 	beq	38b8 <build_ui_credentials_json+0x63c>
    33ac:	e1a00006 	mov	r0, r6
    33b0:	e59f65cc 	ldr	r6, [pc, #1484]	@ 3984 <build_ui_credentials_json+0x708>
    33b4:	e1a02003 	mov	r2, r3
    33b8:	e0871006 	add	r1, r7, r6
    33bc:	ebfff992 	bl	1a0c <json_object_object_add@plt>
    33c0:	e35a0000 	cmp	sl, #0
    33c4:	0a000002 	beq	33d4 <build_ui_credentials_json+0x158>
    33c8:	e1a0100a 	mov	r1, sl
    33cc:	e3a00003 	mov	r0, #3
    33d0:	ebfffeea 	bl	2f80 <notify_notice_message>
    33d4:	e59f05ac 	ldr	r0, [pc, #1452]	@ 3988 <build_ui_credentials_json+0x70c>
    33d8:	e3a09000 	mov	r9, #0
    33dc:	e59fc5a8 	ldr	ip, [pc, #1448]	@ 398c <build_ui_credentials_json+0x710>
    33e0:	e59f65a8 	ldr	r6, [pc, #1448]	@ 3990 <build_ui_credentials_json+0x714>
    33e4:	e797e000 	ldr	lr, [r7, r0]
    33e8:	e59f25a4 	ldr	r2, [pc, #1444]	@ 3994 <build_ui_credentials_json+0x718>
    33ec:	e087b006 	add	fp, r7, r6
    33f0:	e59f35a0 	ldr	r3, [pc, #1440]	@ 3998 <build_ui_credentials_json+0x71c>
    33f4:	e28e6010 	add	r6, lr, #16
    33f8:	e59f459c 	ldr	r4, [pc, #1436]	@ 399c <build_ui_credentials_json+0x720>
    33fc:	e58d001c 	str	r0, [sp, #28]
    3400:	e0871003 	add	r1, r7, r3
    3404:	e58db018 	str	fp, [sp, #24]
    3408:	e0870004 	add	r0, r7, r4
    340c:	e087b002 	add	fp, r7, r2
    3410:	e58dc00c 	str	ip, [sp, #12]
    3414:	e58d1014 	str	r1, [sp, #20]
    3418:	e58d0010 	str	r0, [sp, #16]
    341c:	ea00008e 	b	365c <build_ui_credentials_json+0x3e0>
    3420:	e59de01c 	ldr	lr, [sp, #28]
    3424:	e089c209 	add	ip, r9, r9, lsl #4
    3428:	e797100e 	ldr	r1, [r7, lr]
    342c:	e081510c 	add	r5, r1, ip, lsl #2
    3430:	e5953014 	ldr	r3, [r5, #20]
    3434:	e3530000 	cmp	r3, #0
    3438:	0a000083 	beq	364c <build_ui_credentials_json+0x3d0>
    343c:	e5d32000 	ldrb	r2, [r3]
    3440:	e3520000 	cmp	r2, #0
    3444:	0a000080 	beq	364c <build_ui_credentials_json+0x3d0>
    3448:	ebfff999 	bl	1ab4 <json_object_new_array@plt>
    344c:	e2508000 	subs	r8, r0, #0
    3450:	0a000122 	beq	38e0 <build_ui_credentials_json+0x664>
    3454:	e1a00004 	mov	r0, r4
    3458:	e59f4540 	ldr	r4, [pc, #1344]	@ 39a0 <build_ui_credentials_json+0x724>
    345c:	e1a02008 	mov	r2, r8
    3460:	e0871004 	add	r1, r7, r4
    3464:	ebfff968 	bl	1a0c <json_object_object_add@plt>
    3468:	ebfff9b8 	bl	1b50 <json_object_new_object@plt>
    346c:	e2504000 	subs	r4, r0, #0
    3470:	0a0000fd 	beq	386c <build_ui_credentials_json+0x5f0>
    3474:	e1a01004 	mov	r1, r4
    3478:	e1a00008 	mov	r0, r8
    347c:	ebfff986 	bl	1a9c <json_object_array_add@plt>
    3480:	e5950014 	ldr	r0, [r5, #20]
    3484:	eb0009b1 	bl	5b50 <LOCALIZED>
    3488:	ebfff8f6 	bl	1868 <json_object_new_string@plt>
    348c:	e1a0100b 	mov	r1, fp
    3490:	e1a02000 	mov	r2, r0
    3494:	e1a00004 	mov	r0, r4
    3498:	ebfff95b 	bl	1a0c <json_object_object_add@plt>
    349c:	e5950014 	ldr	r0, [r5, #20]
    34a0:	ebfff8f0 	bl	1868 <json_object_new_string@plt>
    34a4:	e1a0100a 	mov	r1, sl
    34a8:	e1a02000 	mov	r2, r0
    34ac:	e1a00004 	mov	r0, r4
    34b0:	ebfff955 	bl	1a0c <json_object_object_add@plt>
    34b4:	e5963008 	ldr	r3, [r6, #8]
    34b8:	e3530000 	cmp	r3, #0
    34bc:	0a000062 	beq	364c <build_ui_credentials_json+0x3d0>
    34c0:	e5d33000 	ldrb	r3, [r3]
    34c4:	e3530000 	cmp	r3, #0
    34c8:	0a00005f 	beq	364c <build_ui_credentials_json+0x3d0>
    34cc:	ebfff99f 	bl	1b50 <json_object_new_object@plt>
    34d0:	e2504000 	subs	r4, r0, #0
    34d4:	0a0000e4 	beq	386c <build_ui_credentials_json+0x5f0>
    34d8:	e1a01004 	mov	r1, r4
    34dc:	e1a00008 	mov	r0, r8
    34e0:	ebfff96d 	bl	1a9c <json_object_array_add@plt>
    34e4:	e5960008 	ldr	r0, [r6, #8]
    34e8:	eb000998 	bl	5b50 <LOCALIZED>
    34ec:	ebfff8dd 	bl	1868 <json_object_new_string@plt>
    34f0:	e1a0100b 	mov	r1, fp
    34f4:	e1a02000 	mov	r2, r0
    34f8:	e1a00004 	mov	r0, r4
    34fc:	ebfff942 	bl	1a0c <json_object_object_add@plt>
    3500:	e5960008 	ldr	r0, [r6, #8]
    3504:	ebfff8d7 	bl	1868 <json_object_new_string@plt>
    3508:	e1a0100a 	mov	r1, sl
    350c:	e1a02000 	mov	r2, r0
    3510:	e1a00004 	mov	r0, r4
    3514:	ebfff93c 	bl	1a0c <json_object_object_add@plt>
    3518:	e596300c 	ldr	r3, [r6, #12]
    351c:	e3530000 	cmp	r3, #0
    3520:	0a000049 	beq	364c <build_ui_credentials_json+0x3d0>
    3524:	e5d31000 	ldrb	r1, [r3]
    3528:	e3510000 	cmp	r1, #0
    352c:	0a000046 	beq	364c <build_ui_credentials_json+0x3d0>
    3530:	ebfff986 	bl	1b50 <json_object_new_object@plt>
    3534:	e2504000 	subs	r4, r0, #0
    3538:	0a0000cb 	beq	386c <build_ui_credentials_json+0x5f0>
    353c:	e1a01004 	mov	r1, r4
    3540:	e1a00008 	mov	r0, r8
    3544:	ebfff954 	bl	1a9c <json_object_array_add@plt>
    3548:	e596000c 	ldr	r0, [r6, #12]
    354c:	eb00097f 	bl	5b50 <LOCALIZED>
    3550:	e59dc00c 	ldr	ip, [sp, #12]
    3554:	e087500c 	add	r5, r7, ip
    3558:	ebfff8c2 	bl	1868 <json_object_new_string@plt>
    355c:	e1a0100b 	mov	r1, fp
    3560:	e1a02000 	mov	r2, r0
    3564:	e1a00004 	mov	r0, r4
    3568:	ebfff927 	bl	1a0c <json_object_object_add@plt>
    356c:	e596000c 	ldr	r0, [r6, #12]
    3570:	ebfff8bc 	bl	1868 <json_object_new_string@plt>
    3574:	e1a01005 	mov	r1, r5
    3578:	e1a02000 	mov	r2, r0
    357c:	e1a00004 	mov	r0, r4
    3580:	ebfff921 	bl	1a0c <json_object_object_add@plt>
    3584:	e5963010 	ldr	r3, [r6, #16]
    3588:	e3530000 	cmp	r3, #0
    358c:	0a00002e 	beq	364c <build_ui_credentials_json+0x3d0>
    3590:	e5d3e000 	ldrb	lr, [r3]
    3594:	e35e0000 	cmp	lr, #0
    3598:	0a00002b 	beq	364c <build_ui_credentials_json+0x3d0>
    359c:	ebfff96b 	bl	1b50 <json_object_new_object@plt>
    35a0:	e2504000 	subs	r4, r0, #0
    35a4:	0a0000b0 	beq	386c <build_ui_credentials_json+0x5f0>
    35a8:	e1a01004 	mov	r1, r4
    35ac:	e1a00008 	mov	r0, r8
    35b0:	ebfff939 	bl	1a9c <json_object_array_add@plt>
    35b4:	e5960010 	ldr	r0, [r6, #16]
    35b8:	eb000964 	bl	5b50 <LOCALIZED>
    35bc:	ebfff8a9 	bl	1868 <json_object_new_string@plt>
    35c0:	e1a0100b 	mov	r1, fp
    35c4:	e1a02000 	mov	r2, r0
    35c8:	e1a00004 	mov	r0, r4
    35cc:	ebfff90e 	bl	1a0c <json_object_object_add@plt>
    35d0:	e5960010 	ldr	r0, [r6, #16]
    35d4:	ebfff8a3 	bl	1868 <json_object_new_string@plt>
    35d8:	e1a01005 	mov	r1, r5
    35dc:	e1a02000 	mov	r2, r0
    35e0:	e1a00004 	mov	r0, r4
    35e4:	ebfff908 	bl	1a0c <json_object_object_add@plt>
    35e8:	e5963014 	ldr	r3, [r6, #20]
    35ec:	e3530000 	cmp	r3, #0
    35f0:	0a000015 	beq	364c <build_ui_credentials_json+0x3d0>
    35f4:	e5d32000 	ldrb	r2, [r3]
    35f8:	e3520000 	cmp	r2, #0
    35fc:	0a000012 	beq	364c <build_ui_credentials_json+0x3d0>
    3600:	ebfff952 	bl	1b50 <json_object_new_object@plt>
    3604:	e2504000 	subs	r4, r0, #0
    3608:	0a000097 	beq	386c <build_ui_credentials_json+0x5f0>
    360c:	e1a01004 	mov	r1, r4
    3610:	e1a00008 	mov	r0, r8
    3614:	ebfff920 	bl	1a9c <json_object_array_add@plt>
    3618:	e5960014 	ldr	r0, [r6, #20]
    361c:	eb00094b 	bl	5b50 <LOCALIZED>
    3620:	ebfff890 	bl	1868 <json_object_new_string@plt>
    3624:	e1a0100b 	mov	r1, fp
    3628:	e1a02000 	mov	r2, r0
    362c:	e1a00004 	mov	r0, r4
    3630:	ebfff8f5 	bl	1a0c <json_object_object_add@plt>
    3634:	e5960014 	ldr	r0, [r6, #20]
    3638:	ebfff88a 	bl	1868 <json_object_new_string@plt>
    363c:	e1a01005 	mov	r1, r5
    3640:	e1a02000 	mov	r2, r0
    3644:	e1a00004 	mov	r0, r4
    3648:	ebfff8ef 	bl	1a0c <json_object_object_add@plt>
    364c:	e2899001 	add	r9, r9, #1
    3650:	e2866044 	add	r6, r6, #68	@ 0x44
    3654:	e3590008 	cmp	r9, #8
    3658:	0a00004e 	beq	3798 <build_ui_credentials_json+0x51c>
    365c:	ebfff93b 	bl	1b50 <json_object_new_object@plt>
    3660:	e2504000 	subs	r4, r0, #0
    3664:	0a0000ad 	beq	3920 <build_ui_credentials_json+0x6a4>
    3668:	e1a01004 	mov	r1, r4
    366c:	e59d0024 	ldr	r0, [sp, #36]	@ 0x24
    3670:	ebfff909 	bl	1a9c <json_object_array_add@plt>
    3674:	e5160010 	ldr	r0, [r6, #-16]
    3678:	ebfff87a 	bl	1868 <json_object_new_string@plt>
    367c:	e59d1018 	ldr	r1, [sp, #24]
    3680:	e1a02000 	mov	r2, r0
    3684:	e1a00004 	mov	r0, r4
    3688:	ebfff8df 	bl	1a0c <json_object_object_add@plt>
    368c:	e516000c 	ldr	r0, [r6, #-12]
    3690:	eb00092e 	bl	5b50 <LOCALIZED>
    3694:	ebfff873 	bl	1868 <json_object_new_string@plt>
    3698:	e1a0100b 	mov	r1, fp
    369c:	e1a02000 	mov	r2, r0
    36a0:	e1a00004 	mov	r0, r4
    36a4:	ebfff8d8 	bl	1a0c <json_object_object_add@plt>
    36a8:	e5560008 	ldrb	r0, [r6, #-8]
    36ac:	ebfff924 	bl	1b44 <json_object_new_boolean@plt>
    36b0:	e59d1014 	ldr	r1, [sp, #20]
    36b4:	e1a02000 	mov	r2, r0
    36b8:	e1a00004 	mov	r0, r4
    36bc:	ebfff8d2 	bl	1a0c <json_object_object_add@plt>
    36c0:	e5160004 	ldr	r0, [r6, #-4]
    36c4:	ebfff867 	bl	1868 <json_object_new_string@plt>
    36c8:	e59d1010 	ldr	r1, [sp, #16]
    36cc:	e1a02000 	mov	r2, r0
    36d0:	e1a00004 	mov	r0, r4
    36d4:	ebfff8cc 	bl	1a0c <json_object_object_add@plt>
    36d8:	e59d3020 	ldr	r3, [sp, #32]
    36dc:	e3530000 	cmp	r3, #0
    36e0:	0a00005f 	beq	3864 <build_ui_credentials_json+0x5e8>
    36e4:	e1a00003 	mov	r0, r3
    36e8:	e5161010 	ldr	r1, [r6, #-16]
    36ec:	ebfffc2c 	bl	27a4 <getValueFromProfileDetails>
    36f0:	e3500000 	cmp	r0, #0
    36f4:	0a00005a 	beq	3864 <build_ui_credentials_json+0x5e8>
    36f8:	e59d500c 	ldr	r5, [sp, #12]
    36fc:	ebfff859 	bl	1868 <json_object_new_string@plt>
    3700:	e087a005 	add	sl, r7, r5
    3704:	e1a0100a 	mov	r1, sl
    3708:	e1a02000 	mov	r2, r0
    370c:	e1a00004 	mov	r0, r4
    3710:	ebfff8bd 	bl	1a0c <json_object_object_add@plt>
    3714:	e5165004 	ldr	r5, [r6, #-4]
    3718:	e59f0284 	ldr	r0, [pc, #644]	@ 39a4 <build_ui_credentials_json+0x728>
    371c:	e0871000 	add	r1, r7, r0
    3720:	e1a00005 	mov	r0, r5
    3724:	ebfff918 	bl	1b8c <strcmp@plt>
    3728:	e3500000 	cmp	r0, #0
    372c:	0affff3b 	beq	3420 <build_ui_credentials_json+0x1a4>
    3730:	e59f1270 	ldr	r1, [pc, #624]	@ 39a8 <build_ui_credentials_json+0x72c>
    3734:	e1a00005 	mov	r0, r5
    3738:	e0871001 	add	r1, r7, r1
    373c:	ebfff912 	bl	1b8c <strcmp@plt>
    3740:	e3500000 	cmp	r0, #0
    3744:	1a000024 	bne	37dc <build_ui_credentials_json+0x560>
    3748:	e59fe25c 	ldr	lr, [pc, #604]	@ 39ac <build_ui_credentials_json+0x730>
    374c:	e2899001 	add	r9, r9, #1
    3750:	e2866044 	add	r6, r6, #68	@ 0x44
    3754:	e087000e 	add	r0, r7, lr
    3758:	ebfff842 	bl	1868 <json_object_new_string@plt>
    375c:	e59fc24c 	ldr	ip, [pc, #588]	@ 39b0 <build_ui_credentials_json+0x734>
    3760:	e087100c 	add	r1, r7, ip
    3764:	e1a02000 	mov	r2, r0
    3768:	e1a00004 	mov	r0, r4
    376c:	ebfff8a6 	bl	1a0c <json_object_object_add@plt>
    3770:	e59f023c 	ldr	r0, [pc, #572]	@ 39b4 <build_ui_credentials_json+0x738>
    3774:	e0870000 	add	r0, r7, r0
    3778:	ebfff83a 	bl	1868 <json_object_new_string@plt>
    377c:	e59f3234 	ldr	r3, [pc, #564]	@ 39b8 <build_ui_credentials_json+0x73c>
    3780:	e0871003 	add	r1, r7, r3
    3784:	e1a02000 	mov	r2, r0
    3788:	e1a00004 	mov	r0, r4
    378c:	ebfff89e 	bl	1a0c <json_object_object_add@plt>
    3790:	e3590008 	cmp	r9, #8
    3794:	1affffb0 	bne	365c <build_ui_credentials_json+0x3e0>
    3798:	e59d1020 	ldr	r1, [sp, #32]
    379c:	e3510000 	cmp	r1, #0
    37a0:	01a00001 	moveq	r0, r1
    37a4:	0afffeeb 	beq	3358 <build_ui_credentials_json+0xdc>
    37a8:	e59d0020 	ldr	r0, [sp, #32]
    37ac:	ebfff8ff 	bl	1bb0 <json_object_put@plt>
    37b0:	e3a00000 	mov	r0, #0
    37b4:	eafffee7 	b	3358 <build_ui_credentials_json+0xdc>
    37b8:	e59fe1fc 	ldr	lr, [pc, #508]	@ 39bc <build_ui_credentials_json+0x740>
    37bc:	e3a01003 	mov	r1, #3
    37c0:	e59f21f8 	ldr	r2, [pc, #504]	@ 39c0 <build_ui_credentials_json+0x744>
    37c4:	e087c00e 	add	ip, r7, lr
    37c8:	e0872002 	add	r2, r7, r2
    37cc:	e28c3f4b 	add	r3, ip, #300	@ 0x12c
    37d0:	ebfff899 	bl	1a3c <PmLogPrint_@plt>
    37d4:	e3e00000 	mvn	r0, #0
    37d8:	eafffede 	b	3358 <build_ui_credentials_json+0xdc>
    37dc:	e59f21e0 	ldr	r2, [pc, #480]	@ 39c4 <build_ui_credentials_json+0x748>
    37e0:	e1a00005 	mov	r0, r5
    37e4:	e0871002 	add	r1, r7, r2
    37e8:	ebfff8e7 	bl	1b8c <strcmp@plt>
    37ec:	e3500000 	cmp	r0, #0
    37f0:	0affff95 	beq	364c <build_ui_credentials_json+0x3d0>
    37f4:	e59f11cc 	ldr	r1, [pc, #460]	@ 39c8 <build_ui_credentials_json+0x74c>
    37f8:	e1a00005 	mov	r0, r5
    37fc:	e0871001 	add	r1, r7, r1
    3800:	ebfff8e1 	bl	1b8c <strcmp@plt>
    3804:	e3500000 	cmp	r0, #0
    3808:	0affff8f 	beq	364c <build_ui_credentials_json+0x3d0>
    380c:	e59f3168 	ldr	r3, [pc, #360]	@ 397c <build_ui_credentials_json+0x700>
    3810:	e797c003 	ldr	ip, [r7, r3]
    3814:	e59c0000 	ldr	r0, [ip]
    3818:	e3500000 	cmp	r0, #0
    381c:	0a000002 	beq	382c <build_ui_credentials_json+0x5b0>
    3820:	e590e000 	ldr	lr, [r0]
    3824:	e35e0002 	cmp	lr, #2
    3828:	da000006 	ble	3848 <build_ui_credentials_json+0x5cc>
    382c:	e59f3188 	ldr	r3, [pc, #392]	@ 39bc <build_ui_credentials_json+0x740>
    3830:	e3a01003 	mov	r1, #3
    3834:	e59f2190 	ldr	r2, [pc, #400]	@ 39cc <build_ui_credentials_json+0x750>
    3838:	e087c003 	add	ip, r7, r3
    383c:	e0872002 	add	r2, r7, r2
    3840:	e28c3f4b 	add	r3, ip, #300	@ 0x12c
    3844:	ebfff87c 	bl	1a3c <PmLogPrint_@plt>
    3848:	e59d3020 	ldr	r3, [sp, #32]
    384c:	e3530000 	cmp	r3, #0
    3850:	0afffebf 	beq	3354 <build_ui_credentials_json+0xd8>
    3854:	e1a00003 	mov	r0, r3
    3858:	ebfff8d4 	bl	1bb0 <json_object_put@plt>
    385c:	e3e00000 	mvn	r0, #0
    3860:	eafffebc 	b	3358 <build_ui_credentials_json+0xdc>
    3864:	e5960000 	ldr	r0, [r6]
    3868:	eaffffa2 	b	36f8 <build_ui_credentials_json+0x47c>
    386c:	e59f0108 	ldr	r0, [pc, #264]	@ 397c <build_ui_credentials_json+0x700>
    3870:	e7971000 	ldr	r1, [r7, r0]
    3874:	e5910000 	ldr	r0, [r1]
    3878:	e3500000 	cmp	r0, #0
    387c:	0a000002 	beq	388c <build_ui_credentials_json+0x610>
    3880:	e5903000 	ldr	r3, [r0]
    3884:	e3530002 	cmp	r3, #2
    3888:	daffffee 	ble	3848 <build_ui_credentials_json+0x5cc>
    388c:	e59f2128 	ldr	r2, [pc, #296]	@ 39bc <build_ui_credentials_json+0x740>
    3890:	e3a01003 	mov	r1, #3
    3894:	e59fe134 	ldr	lr, [pc, #308]	@ 39d0 <build_ui_credentials_json+0x754>
    3898:	e087c002 	add	ip, r7, r2
    389c:	e28c3f4b 	add	r3, ip, #300	@ 0x12c
    38a0:	e087200e 	add	r2, r7, lr
    38a4:	ebfff864 	bl	1a3c <PmLogPrint_@plt>
    38a8:	e59d3020 	ldr	r3, [sp, #32]
    38ac:	e3530000 	cmp	r3, #0
    38b0:	0afffea7 	beq	3354 <build_ui_credentials_json+0xd8>
    38b4:	eaffffe6 	b	3854 <build_ui_credentials_json+0x5d8>
    38b8:	e59f60fc 	ldr	r6, [pc, #252]	@ 39bc <build_ui_credentials_json+0x740>
    38bc:	e300214e 	movw	r2, #334	@ 0x14e
    38c0:	e59fb10c 	ldr	fp, [pc, #268]	@ 39d4 <build_ui_credentials_json+0x758>
    38c4:	e0879006 	add	r9, r7, r6
    38c8:	e59fa108 	ldr	sl, [pc, #264]	@ 39d8 <build_ui_credentials_json+0x75c>
    38cc:	e087100b 	add	r1, r7, fp
    38d0:	e2893f52 	add	r3, r9, #328	@ 0x148
    38d4:	e087800a 	add	r8, r7, sl
    38d8:	e58d8000 	str	r8, [sp]
    38dc:	ebfff81d 	bl	1958 <g_assertion_message_expr@plt>
    38e0:	e59f0094 	ldr	r0, [pc, #148]	@ 397c <build_ui_credentials_json+0x700>
    38e4:	e7971000 	ldr	r1, [r7, r0]
    38e8:	e5910000 	ldr	r0, [r1]
    38ec:	e3500000 	cmp	r0, #0
    38f0:	0a000002 	beq	3900 <build_ui_credentials_json+0x684>
    38f4:	e5903000 	ldr	r3, [r0]
    38f8:	e3530002 	cmp	r3, #2
    38fc:	daffffd1 	ble	3848 <build_ui_credentials_json+0x5cc>
    3900:	e59f20b4 	ldr	r2, [pc, #180]	@ 39bc <build_ui_credentials_json+0x740>
    3904:	e3a01003 	mov	r1, #3
    3908:	e59fe0cc 	ldr	lr, [pc, #204]	@ 39dc <build_ui_credentials_json+0x760>
    390c:	e087c002 	add	ip, r7, r2
    3910:	e28c3f4b 	add	r3, ip, #300	@ 0x12c
    3914:	e087200e 	add	r2, r7, lr
    3918:	ebfff847 	bl	1a3c <PmLogPrint_@plt>
    391c:	eaffffc9 	b	3848 <build_ui_credentials_json+0x5cc>
    3920:	e59f3054 	ldr	r3, [pc, #84]	@ 397c <build_ui_credentials_json+0x700>
    3924:	e7971003 	ldr	r1, [r7, r3]
    3928:	e5910000 	ldr	r0, [r1]
    392c:	e3500000 	cmp	r0, #0
    3930:	0a000002 	beq	3940 <build_ui_credentials_json+0x6c4>
    3934:	e590c000 	ldr	ip, [r0]
    3938:	e35c0002 	cmp	ip, #2
    393c:	daffffc1 	ble	3848 <build_ui_credentials_json+0x5cc>
    3940:	e59f3074 	ldr	r3, [pc, #116]	@ 39bc <build_ui_credentials_json+0x740>
    3944:	e3a01003 	mov	r1, #3
    3948:	e59f2090 	ldr	r2, [pc, #144]	@ 39e0 <build_ui_credentials_json+0x764>
    394c:	e087e003 	add	lr, r7, r3
    3950:	e0872002 	add	r2, r7, r2
    3954:	e28e3f4b 	add	r3, lr, #300	@ 0x12c
    3958:	ebfff837 	bl	1a3c <PmLogPrint_@plt>
    395c:	eaffffb9 	b	3848 <build_ui_credentials_json+0x5cc>
    3960:	0000feac 	.word	0x0000feac
    3964:	ffff5ba8 	.word	0xffff5ba8
    3968:	ffff5c8c 	.word	0xffff5c8c
    396c:	00000178 	.word	0x00000178
    3970:	ffff5fa8 	.word	0xffff5fa8
    3974:	ffff5fb4 	.word	0xffff5fb4
    3978:	ffff5fc0 	.word	0xffff5fc0
    397c:	00000190 	.word	0x00000190
    3980:	ffff5ff8 	.word	0xffff5ff8
    3984:	ffff5dac 	.word	0xffff5dac
    3988:	00000188 	.word	0x00000188
    398c:	ffff5dc0 	.word	0xffff5dc0
    3990:	ffff5dbc 	.word	0xffff5dbc
    3994:	ffff602c 	.word	0xffff602c
    3998:	ffff6034 	.word	0xffff6034
    399c:	ffff6120 	.word	0xffff6120
    39a0:	ffff604c 	.word	0xffff604c
    39a4:	ffff603c 	.word	0xffff603c
    39a8:	ffff60c4 	.word	0xffff60c4
    39ac:	ffff60d0 	.word	0xffff60d0
    39b0:	ffff60d8 	.word	0xffff60d8
    39b4:	ffff60e4 	.word	0xffff60e4
    39b8:	ffff60ec 	.word	0xffff60ec
    39bc:	ffff5740 	.word	0xffff5740
    39c0:	ffff5fd0 	.word	0xffff5fd0
    39c4:	ffff60f8 	.word	0xffff60f8
    39c8:	ffff6104 	.word	0xffff6104
    39cc:	ffff6114 	.word	0xffff6114
    39d0:	ffff608c 	.word	0xffff608c
    39d4:	ffff6128 	.word	0xffff6128
    39d8:	ffff6138 	.word	0xffff6138
    39dc:	ffff6054 	.word	0xffff6054
    39e0:	ffff6000 	.word	0xffff6000

000039e4 <promptUserForCredentials>:
    39e4:	e59f30b8 	ldr	r3, [pc, #184]	@ 3aa4 <promptUserForCredentials+0xc0>
    39e8:	e92d4070 	push	{r4, r5, r6, lr}
    39ec:	e24dd008 	sub	sp, sp, #8
    39f0:	e08f4003 	add	r4, pc, r3
    39f4:	e1a05000 	mov	r5, r0
    39f8:	ebfff854 	bl	1b50 <json_object_new_object@plt>
    39fc:	e2506000 	subs	r6, r0, #0
    3a00:	0a00001d 	beq	3a7c <promptUserForCredentials+0x98>
    3a04:	e1a01005 	mov	r1, r5
    3a08:	ebfffe1b 	bl	327c <build_ui_credentials_json>
    3a0c:	e3500000 	cmp	r0, #0
    3a10:	0a000012 	beq	3a60 <promptUserForCredentials+0x7c>
    3a14:	e59f008c 	ldr	r0, [pc, #140]	@ 3aa8 <promptUserForCredentials+0xc4>
    3a18:	e794c000 	ldr	ip, [r4, r0]
    3a1c:	e59c0000 	ldr	r0, [ip]
    3a20:	e3500000 	cmp	r0, #0
    3a24:	0a000002 	beq	3a34 <promptUserForCredentials+0x50>
    3a28:	e590e000 	ldr	lr, [r0]
    3a2c:	e35e0002 	cmp	lr, #2
    3a30:	da000006 	ble	3a50 <promptUserForCredentials+0x6c>
    3a34:	e59fc070 	ldr	ip, [pc, #112]	@ 3aac <promptUserForCredentials+0xc8>
    3a38:	e3a01003 	mov	r1, #3
    3a3c:	e59f206c 	ldr	r2, [pc, #108]	@ 3ab0 <promptUserForCredentials+0xcc>
    3a40:	e084300c 	add	r3, r4, ip
    3a44:	e0842002 	add	r2, r4, r2
    3a48:	e2833f59 	add	r3, r3, #356	@ 0x164
    3a4c:	ebfff7fa 	bl	1a3c <PmLogPrint_@plt>
    3a50:	e1a00006 	mov	r0, r6
    3a54:	e28dd008 	add	sp, sp, #8
    3a58:	e8bd4070 	pop	{r4, r5, r6, lr}
    3a5c:	eafff853 	b	1bb0 <json_object_put@plt>
    3a60:	e1a00006 	mov	r0, r6
    3a64:	ebfff85a 	bl	1bd4 <json_object_to_json_string@plt>
    3a68:	e59f1044 	ldr	r1, [pc, #68]	@ 3ab4 <promptUserForCredentials+0xd0>
    3a6c:	e7942001 	ldr	r2, [r4, r1]
    3a70:	e1a0e00f 	mov	lr, pc
    3a74:	e592f000 	ldr	pc, [r2]
    3a78:	eafffff4 	b	3a50 <promptUserForCredentials+0x6c>
    3a7c:	e59f3028 	ldr	r3, [pc, #40]	@ 3aac <promptUserForCredentials+0xc8>
    3a80:	e300222d 	movw	r2, #557	@ 0x22d
    3a84:	e59f102c 	ldr	r1, [pc, #44]	@ 3ab8 <promptUserForCredentials+0xd4>
    3a88:	e084e003 	add	lr, r4, r3
    3a8c:	e59f6028 	ldr	r6, [pc, #40]	@ 3abc <promptUserForCredentials+0xd8>
    3a90:	e0841001 	add	r1, r4, r1
    3a94:	e28e3d06 	add	r3, lr, #384	@ 0x180
    3a98:	e0845006 	add	r5, r4, r6
    3a9c:	e58d5000 	str	r5, [sp]
    3aa0:	ebfff7ac 	bl	1958 <g_assertion_message_expr@plt>
    3aa4:	0000f748 	.word	0x0000f748
    3aa8:	00000190 	.word	0x00000190
    3aac:	ffff5740 	.word	0xffff5740
    3ab0:	ffff6150 	.word	0xffff6150
    3ab4:	000001a0 	.word	0x000001a0
    3ab8:	ffff6128 	.word	0xffff6128
    3abc:	ffff616c 	.word	0xffff616c

00003ac0 <handleBannerDeclineEvent>:
    3ac0:	e92d4010 	push	{r4, lr}
    3ac4:	e59f402c 	ldr	r4, [pc, #44]	@ 3af8 <handleBannerDeclineEvent+0x38>
    3ac8:	e59f102c 	ldr	r1, [pc, #44]	@ 3afc <handleBannerDeclineEvent+0x3c>
    3acc:	e08f4004 	add	r4, pc, r4
    3ad0:	e0840001 	add	r0, r4, r1
    3ad4:	ebfff9bb 	bl	21c8 <notify_banner_response_received>
    3ad8:	e59f0020 	ldr	r0, [pc, #32]	@ 3b00 <handleBannerDeclineEvent+0x40>
    3adc:	e0840000 	add	r0, r4, r0
    3ae0:	eb00081a 	bl	5b50 <LOCALIZED>
    3ae4:	e1a01000 	mov	r1, r0
    3ae8:	e3e00004 	mvn	r0, #4
    3aec:	ebfffba9 	bl	2998 <send_vpnd_connect_cmd_response>
    3af0:	e8bd4010 	pop	{r4, lr}
    3af4:	ea000d71 	b	70c0 <teardown_vpnc>
    3af8:	0000f66c 	.word	0x0000f66c
    3afc:	ffff6178 	.word	0xffff6178
    3b00:	ffff6184 	.word	0xffff6184

00003b04 <vpnc_handle_client_ui_prompt_response>:
    3b04:	e92d47f0 	push	{r4, r5, r6, r7, r8, r9, sl, lr}
    3b08:	e1a09000 	mov	r9, r0
    3b0c:	e59f017c 	ldr	r0, [pc, #380]	@ 3c90 <vpnc_handle_client_ui_prompt_response+0x18c>
    3b10:	e24dd008 	sub	sp, sp, #8
    3b14:	e59f8178 	ldr	r8, [pc, #376]	@ 3c94 <vpnc_handle_client_ui_prompt_response+0x190>
    3b18:	e1a07001 	mov	r7, r1
    3b1c:	e08f6000 	add	r6, pc, r0
    3b20:	e1a0a002 	mov	sl, r2
    3b24:	e7963008 	ldr	r3, [r6, r8]
    3b28:	e5935000 	ldr	r5, [r3]
    3b2c:	e3550000 	cmp	r5, #0
    3b30:	0a00000e 	beq	3b70 <vpnc_handle_client_ui_prompt_response+0x6c>
    3b34:	e5951000 	ldr	r1, [r5]
    3b38:	e3510006 	cmp	r1, #6
    3b3c:	ca00000b 	bgt	3b70 <vpnc_handle_client_ui_prompt_response+0x6c>
    3b40:	e1a00007 	mov	r0, r7
    3b44:	ebfff79b 	bl	19b8 <json_tokener_parse@plt>
    3b48:	e3700efa 	cmn	r0, #4000	@ 0xfa0
    3b4c:	e1a04000 	mov	r4, r0
    3b50:	9a000019 	bls	3bbc <vpnc_handle_client_ui_prompt_response+0xb8>
    3b54:	e3a01000 	mov	r1, #0
    3b58:	e1a00009 	mov	r0, r9
    3b5c:	e1a02001 	mov	r2, r1
    3b60:	e1a03001 	mov	r3, r1
    3b64:	e12fff3a 	blx	sl
    3b68:	e28dd008 	add	sp, sp, #8
    3b6c:	e8bd87f0 	pop	{r4, r5, r6, r7, r8, r9, sl, pc}
    3b70:	ebfff7de 	bl	1af0 <getpid@plt>
    3b74:	e1a04000 	mov	r4, r0
    3b78:	e3a000e0 	mov	r0, #224	@ 0xe0
    3b7c:	ebfff7f9 	bl	1b68 <syscall@plt>
    3b80:	e59f3110 	ldr	r3, [pc, #272]	@ 3c98 <vpnc_handle_client_ui_prompt_response+0x194>
    3b84:	e59f2110 	ldr	r2, [pc, #272]	@ 3c9c <vpnc_handle_client_ui_prompt_response+0x198>
    3b88:	e3a01007 	mov	r1, #7
    3b8c:	e086c003 	add	ip, r6, r3
    3b90:	e58d4000 	str	r4, [sp]
    3b94:	e0862002 	add	r2, r6, r2
    3b98:	e28c3f67 	add	r3, ip, #412	@ 0x19c
    3b9c:	e58d0004 	str	r0, [sp, #4]
    3ba0:	e1a00005 	mov	r0, r5
    3ba4:	ebfff7a4 	bl	1a3c <PmLogPrint_@plt>
    3ba8:	e1a00007 	mov	r0, r7
    3bac:	ebfff781 	bl	19b8 <json_tokener_parse@plt>
    3bb0:	e3700efa 	cmn	r0, #4000	@ 0xfa0
    3bb4:	e1a04000 	mov	r4, r0
    3bb8:	8affffe5 	bhi	3b54 <vpnc_handle_client_ui_prompt_response+0x50>
    3bbc:	e59fe0dc 	ldr	lr, [pc, #220]	@ 3ca0 <vpnc_handle_client_ui_prompt_response+0x19c>
    3bc0:	e086100e 	add	r1, r6, lr
    3bc4:	ebfff7b7 	bl	1aa8 <json_object_object_get@plt>
    3bc8:	e3500000 	cmp	r0, #0
    3bcc:	0a00001a 	beq	3c3c <vpnc_handle_client_ui_prompt_response+0x138>
    3bd0:	e59f20cc 	ldr	r2, [pc, #204]	@ 3ca4 <vpnc_handle_client_ui_prompt_response+0x1a0>
    3bd4:	e3a0c000 	mov	ip, #0
    3bd8:	e7961002 	ldr	r1, [r6, r2]
    3bdc:	e5c1c000 	strb	ip, [r1]
    3be0:	ebfff714 	bl	1838 <json_object_get_boolean@plt>
    3be4:	e3500000 	cmp	r0, #0
    3be8:	0a000016 	beq	3c48 <vpnc_handle_client_ui_prompt_response+0x144>
    3bec:	e7963008 	ldr	r3, [r6, r8]
    3bf0:	e5930000 	ldr	r0, [r3]
    3bf4:	e3500000 	cmp	r0, #0
    3bf8:	0a000002 	beq	3c08 <vpnc_handle_client_ui_prompt_response+0x104>
    3bfc:	e590e000 	ldr	lr, [r0]
    3c00:	e35e0006 	cmp	lr, #6
    3c04:	da000006 	ble	3c24 <vpnc_handle_client_ui_prompt_response+0x120>
    3c08:	e59f3088 	ldr	r3, [pc, #136]	@ 3c98 <vpnc_handle_client_ui_prompt_response+0x194>
    3c0c:	e3a01007 	mov	r1, #7
    3c10:	e59f2090 	ldr	r2, [pc, #144]	@ 3ca8 <vpnc_handle_client_ui_prompt_response+0x1a4>
    3c14:	e086c003 	add	ip, r6, r3
    3c18:	e0862002 	add	r2, r6, r2
    3c1c:	e28c3f67 	add	r3, ip, #412	@ 0x19c
    3c20:	ebfff785 	bl	1a3c <PmLogPrint_@plt>
    3c24:	e59f0080 	ldr	r0, [pc, #128]	@ 3cac <vpnc_handle_client_ui_prompt_response+0x1a8>
    3c28:	e0860000 	add	r0, r6, r0
    3c2c:	ebfff965 	bl	21c8 <notify_banner_response_received>
    3c30:	e59f1078 	ldr	r1, [pc, #120]	@ 3cb0 <vpnc_handle_client_ui_prompt_response+0x1ac>
    3c34:	e7960001 	ldr	r0, [r6, r1]
    3c38:	eb000c2b 	bl	6cec <VpnConnected>
    3c3c:	e1a00004 	mov	r0, r4
    3c40:	ebfff7da 	bl	1bb0 <json_object_put@plt>
    3c44:	eaffffc2 	b	3b54 <vpnc_handle_client_ui_prompt_response+0x50>
    3c48:	e796e008 	ldr	lr, [r6, r8]
    3c4c:	e59e0000 	ldr	r0, [lr]
    3c50:	e3500000 	cmp	r0, #0
    3c54:	0a000002 	beq	3c64 <vpnc_handle_client_ui_prompt_response+0x160>
    3c58:	e590c000 	ldr	ip, [r0]
    3c5c:	e35c0006 	cmp	ip, #6
    3c60:	da000006 	ble	3c80 <vpnc_handle_client_ui_prompt_response+0x17c>
    3c64:	e59fe02c 	ldr	lr, [pc, #44]	@ 3c98 <vpnc_handle_client_ui_prompt_response+0x194>
    3c68:	e3a01007 	mov	r1, #7
    3c6c:	e59f2040 	ldr	r2, [pc, #64]	@ 3cb4 <vpnc_handle_client_ui_prompt_response+0x1b0>
    3c70:	e086300e 	add	r3, r6, lr
    3c74:	e0862002 	add	r2, r6, r2
    3c78:	e2833f67 	add	r3, r3, #412	@ 0x19c
    3c7c:	ebfff76e 	bl	1a3c <PmLogPrint_@plt>
    3c80:	ebffff8e 	bl	3ac0 <handleBannerDeclineEvent>
    3c84:	e1a00004 	mov	r0, r4
    3c88:	ebfff7c8 	bl	1bb0 <json_object_put@plt>
    3c8c:	eaffffb0 	b	3b54 <vpnc_handle_client_ui_prompt_response+0x50>
    3c90:	0000f61c 	.word	0x0000f61c
    3c94:	00000190 	.word	0x00000190
    3c98:	ffff5740 	.word	0xffff5740
    3c9c:	ffff61a0 	.word	0xffff61a0
    3ca0:	ffff61c0 	.word	0xffff61c0
    3ca4:	0000016c 	.word	0x0000016c
    3ca8:	ffff61c8 	.word	0xffff61c8
    3cac:	ffff61dc 	.word	0xffff61dc
    3cb0:	00000178 	.word	0x00000178
    3cb4:	ffff61e8 	.word	0xffff61e8

00003cb8 <vpnc_notify_system_change>:
    3cb8:	e92d4ff0 	push	{r4, r5, r6, r7, r8, r9, sl, fp, lr}
    3cbc:	e1a06000 	mov	r6, r0
    3cc0:	e59f04d4 	ldr	r0, [pc, #1236]	@ 419c <vpnc_notify_system_change+0x4e4>
    3cc4:	e24dd00c 	sub	sp, sp, #12
    3cc8:	e59fa4d0 	ldr	sl, [pc, #1232]	@ 41a0 <vpnc_notify_system_change+0x4e8>
    3ccc:	e08f7000 	add	r7, pc, r0
    3cd0:	e797300a 	ldr	r3, [r7, sl]
    3cd4:	e5935000 	ldr	r5, [r3]
    3cd8:	e3550000 	cmp	r5, #0
    3cdc:	0a000009 	beq	3d08 <vpnc_notify_system_change+0x50>
    3ce0:	e5951000 	ldr	r1, [r5]
    3ce4:	e3510006 	cmp	r1, #6
    3ce8:	ca000006 	bgt	3d08 <vpnc_notify_system_change+0x50>
    3cec:	e1a00006 	mov	r0, r6
    3cf0:	ebfff730 	bl	19b8 <json_tokener_parse@plt>
    3cf4:	e3700efa 	cmn	r0, #4000	@ 0xfa0
    3cf8:	e1a06000 	mov	r6, r0
    3cfc:	9a000025 	bls	3d98 <vpnc_notify_system_change+0xe0>
    3d00:	e28dd00c 	add	sp, sp, #12
    3d04:	e8bd8ff0 	pop	{r4, r5, r6, r7, r8, r9, sl, fp, pc}
    3d08:	ebfff778 	bl	1af0 <getpid@plt>
    3d0c:	e59f8490 	ldr	r8, [pc, #1168]	@ 41a4 <vpnc_notify_system_change+0x4ec>
    3d10:	e1a04000 	mov	r4, r0
    3d14:	e3a000e0 	mov	r0, #224	@ 0xe0
    3d18:	ebfff792 	bl	1b68 <syscall@plt>
    3d1c:	e59f3484 	ldr	r3, [pc, #1156]	@ 41a8 <vpnc_notify_system_change+0x4f0>
    3d20:	e087c008 	add	ip, r7, r8
    3d24:	e3a01007 	mov	r1, #7
    3d28:	e0872003 	add	r2, r7, r3
    3d2c:	e28c3f71 	add	r3, ip, #452	@ 0x1c4
    3d30:	e58d4000 	str	r4, [sp]
    3d34:	e58d0004 	str	r0, [sp, #4]
    3d38:	e1a00005 	mov	r0, r5
    3d3c:	ebfff73e 	bl	1a3c <PmLogPrint_@plt>
    3d40:	e797200a 	ldr	r2, [r7, sl]
    3d44:	e5920000 	ldr	r0, [r2]
    3d48:	e3500000 	cmp	r0, #0
    3d4c:	0a000002 	beq	3d5c <vpnc_notify_system_change+0xa4>
    3d50:	e590e000 	ldr	lr, [r0]
    3d54:	e35e0006 	cmp	lr, #6
    3d58:	daffffe3 	ble	3cec <vpnc_notify_system_change+0x34>
    3d5c:	e3560000 	cmp	r6, #0
    3d60:	11a0c006 	movne	ip, r6
    3d64:	0a00005b 	beq	3ed8 <vpnc_notify_system_change+0x220>
    3d68:	e59f243c 	ldr	r2, [pc, #1084]	@ 41ac <vpnc_notify_system_change+0x4f4>
    3d6c:	e0873008 	add	r3, r7, r8
    3d70:	e2833f71 	add	r3, r3, #452	@ 0x1c4
    3d74:	e3a01007 	mov	r1, #7
    3d78:	e0872002 	add	r2, r7, r2
    3d7c:	e58dc000 	str	ip, [sp]
    3d80:	ebfff72d 	bl	1a3c <PmLogPrint_@plt>
    3d84:	e1a00006 	mov	r0, r6
    3d88:	ebfff70a 	bl	19b8 <json_tokener_parse@plt>
    3d8c:	e3700efa 	cmn	r0, #4000	@ 0xfa0
    3d90:	e1a06000 	mov	r6, r0
    3d94:	8affffd9 	bhi	3d00 <vpnc_notify_system_change+0x48>
    3d98:	e59fc410 	ldr	ip, [pc, #1040]	@ 41b0 <vpnc_notify_system_change+0x4f8>
    3d9c:	e087100c 	add	r1, r7, ip
    3da0:	ebfff740 	bl	1aa8 <json_object_object_get@plt>
    3da4:	e3500000 	cmp	r0, #0
    3da8:	0a00005c 	beq	3f20 <vpnc_notify_system_change+0x268>
    3dac:	ebfff6d7 	bl	1910 <json_object_get_string@plt>
    3db0:	e2504000 	subs	r4, r0, #0
    3db4:	0a000035 	beq	3e90 <vpnc_notify_system_change+0x1d8>
    3db8:	e5d40000 	ldrb	r0, [r4]
    3dbc:	e3500000 	cmp	r0, #0
    3dc0:	0a000032 	beq	3e90 <vpnc_notify_system_change+0x1d8>
    3dc4:	e797500a 	ldr	r5, [r7, sl]
    3dc8:	e5950000 	ldr	r0, [r5]
    3dcc:	e3500000 	cmp	r0, #0
    3dd0:	0a000002 	beq	3de0 <vpnc_notify_system_change+0x128>
    3dd4:	e590e000 	ldr	lr, [r0]
    3dd8:	e35e0006 	cmp	lr, #6
    3ddc:	da000007 	ble	3e00 <vpnc_notify_system_change+0x148>
    3de0:	e59fc3bc 	ldr	ip, [pc, #956]	@ 41a4 <vpnc_notify_system_change+0x4ec>
    3de4:	e3a01007 	mov	r1, #7
    3de8:	e59f23c4 	ldr	r2, [pc, #964]	@ 41b4 <vpnc_notify_system_change+0x4fc>
    3dec:	e087300c 	add	r3, r7, ip
    3df0:	e58d4000 	str	r4, [sp]
    3df4:	e0872002 	add	r2, r7, r2
    3df8:	e2833e1e 	add	r3, r3, #480	@ 0x1e0
    3dfc:	ebfff70e 	bl	1a3c <PmLogPrint_@plt>
    3e00:	e59fe3b0 	ldr	lr, [pc, #944]	@ 41b8 <vpnc_notify_system_change+0x500>
    3e04:	e1a01004 	mov	r1, r4
    3e08:	e3a02008 	mov	r2, #8
    3e0c:	e797500e 	ldr	r5, [r7, lr]
    3e10:	e2850030 	add	r0, r5, #48	@ 0x30
    3e14:	ebfff69c 	bl	188c <strncpy@plt>
    3e18:	e59f039c 	ldr	r0, [pc, #924]	@ 41bc <vpnc_notify_system_change+0x504>
    3e1c:	e7971000 	ldr	r1, [r7, r0]
    3e20:	e5915000 	ldr	r5, [r1]
    3e24:	e3550000 	cmp	r5, #0
    3e28:	0a00002d 	beq	3ee4 <vpnc_notify_system_change+0x22c>
    3e2c:	e1a00004 	mov	r0, r4
    3e30:	ebfff692 	bl	1880 <g_strdup@plt>
    3e34:	e59fc384 	ldr	ip, [pc, #900]	@ 41c0 <vpnc_notify_system_change+0x508>
    3e38:	e3a03000 	mov	r3, #0
    3e3c:	e087100c 	add	r1, r7, ip
    3e40:	e1a02000 	mov	r2, r0
    3e44:	e1a00005 	mov	r0, r5
    3e48:	eb0005b7 	bl	552c <vpnc_workq_add>
    3e4c:	e3500000 	cmp	r0, #0
    3e50:	da000023 	ble	3ee4 <vpnc_notify_system_change+0x22c>
    3e54:	e797300a 	ldr	r3, [r7, sl]
    3e58:	e5930000 	ldr	r0, [r3]
    3e5c:	e3500000 	cmp	r0, #0
    3e60:	0a000002 	beq	3e70 <vpnc_notify_system_change+0x1b8>
    3e64:	e5902000 	ldr	r2, [r0]
    3e68:	e3520006 	cmp	r2, #6
    3e6c:	da000015 	ble	3ec8 <vpnc_notify_system_change+0x210>
    3e70:	e59f332c 	ldr	r3, [pc, #812]	@ 41a4 <vpnc_notify_system_change+0x4ec>
    3e74:	e3a01007 	mov	r1, #7
    3e78:	e59fc344 	ldr	ip, [pc, #836]	@ 41c4 <vpnc_notify_system_change+0x50c>
    3e7c:	e087e003 	add	lr, r7, r3
    3e80:	e087200c 	add	r2, r7, ip
    3e84:	e28e3e1e 	add	r3, lr, #480	@ 0x1e0
    3e88:	ebfff6eb 	bl	1a3c <PmLogPrint_@plt>
    3e8c:	ea00000d 	b	3ec8 <vpnc_notify_system_change+0x210>
    3e90:	e797100a 	ldr	r1, [r7, sl]
    3e94:	e5910000 	ldr	r0, [r1]
    3e98:	e3500000 	cmp	r0, #0
    3e9c:	0a000002 	beq	3eac <vpnc_notify_system_change+0x1f4>
    3ea0:	e5902000 	ldr	r2, [r0]
    3ea4:	e3520002 	cmp	r2, #2
    3ea8:	da000006 	ble	3ec8 <vpnc_notify_system_change+0x210>
    3eac:	e59f32f0 	ldr	r3, [pc, #752]	@ 41a4 <vpnc_notify_system_change+0x4ec>
    3eb0:	e3a01003 	mov	r1, #3
    3eb4:	e59fc30c 	ldr	ip, [pc, #780]	@ 41c8 <vpnc_notify_system_change+0x510>
    3eb8:	e087e003 	add	lr, r7, r3
    3ebc:	e087200c 	add	r2, r7, ip
    3ec0:	e28e3e1e 	add	r3, lr, #480	@ 0x1e0
    3ec4:	ebfff6dc 	bl	1a3c <PmLogPrint_@plt>
    3ec8:	e1a00006 	mov	r0, r6
    3ecc:	e28dd00c 	add	sp, sp, #12
    3ed0:	e8bd4ff0 	pop	{r4, r5, r6, r7, r8, r9, sl, fp, lr}
    3ed4:	eafff735 	b	1bb0 <json_object_put@plt>
    3ed8:	e59f12ec 	ldr	r1, [pc, #748]	@ 41cc <vpnc_notify_system_change+0x514>
    3edc:	e087c001 	add	ip, r7, r1
    3ee0:	eaffffa0 	b	3d68 <vpnc_notify_system_change+0xb0>
    3ee4:	e797100a 	ldr	r1, [r7, sl]
    3ee8:	e5910000 	ldr	r0, [r1]
    3eec:	e3500000 	cmp	r0, #0
    3ef0:	0a000002 	beq	3f00 <vpnc_notify_system_change+0x248>
    3ef4:	e5902000 	ldr	r2, [r0]
    3ef8:	e3520002 	cmp	r2, #2
    3efc:	dafffff1 	ble	3ec8 <vpnc_notify_system_change+0x210>
    3f00:	e59f329c 	ldr	r3, [pc, #668]	@ 41a4 <vpnc_notify_system_change+0x4ec>
    3f04:	e3a01003 	mov	r1, #3
    3f08:	e59fc2c0 	ldr	ip, [pc, #704]	@ 41d0 <vpnc_notify_system_change+0x518>
    3f0c:	e087e003 	add	lr, r7, r3
    3f10:	e087200c 	add	r2, r7, ip
    3f14:	e28e3e1e 	add	r3, lr, #480	@ 0x1e0
    3f18:	ebfff6c7 	bl	1a3c <PmLogPrint_@plt>
    3f1c:	eaffffe9 	b	3ec8 <vpnc_notify_system_change+0x210>
    3f20:	e59f52ac 	ldr	r5, [pc, #684]	@ 41d4 <vpnc_notify_system_change+0x51c>
    3f24:	e1a00006 	mov	r0, r6
    3f28:	e0871005 	add	r1, r7, r5
    3f2c:	ebfff6dd 	bl	1aa8 <json_object_object_get@plt>
    3f30:	e2505000 	subs	r5, r0, #0
    3f34:	0a000052 	beq	4084 <vpnc_notify_system_change+0x3cc>
    3f38:	e59f9298 	ldr	r9, [pc, #664]	@ 41d8 <vpnc_notify_system_change+0x520>
    3f3c:	e7970009 	ldr	r0, [r7, r9]
    3f40:	e590200c 	ldr	r2, [r0, #12]
    3f44:	e2421001 	sub	r1, r2, #1
    3f48:	e3510001 	cmp	r1, #1
    3f4c:	8affffdd 	bhi	3ec8 <vpnc_notify_system_change+0x210>
    3f50:	eb000984 	bl	6568 <get_preferred_if_type>
    3f54:	e2508000 	subs	r8, r0, #0
    3f58:	0affffda 	beq	3ec8 <vpnc_notify_system_change+0x210>
    3f5c:	e59fe278 	ldr	lr, [pc, #632]	@ 41dc <vpnc_notify_system_change+0x524>
    3f60:	e087400e 	add	r4, r7, lr
    3f64:	e1a01004 	mov	r1, r4
    3f68:	ebfff71c 	bl	1be0 <g_ascii_strcasecmp@plt>
    3f6c:	e3500000 	cmp	r0, #0
    3f70:	0a000064 	beq	4108 <vpnc_notify_system_change+0x450>
    3f74:	e59fc264 	ldr	ip, [pc, #612]	@ 41e0 <vpnc_notify_system_change+0x528>
    3f78:	e1a00008 	mov	r0, r8
    3f7c:	e087400c 	add	r4, r7, ip
    3f80:	e1a01004 	mov	r1, r4
    3f84:	ebfff715 	bl	1be0 <g_ascii_strcasecmp@plt>
    3f88:	e3500000 	cmp	r0, #0
    3f8c:	1affffcd 	bne	3ec8 <vpnc_notify_system_change+0x210>
    3f90:	e1a01004 	mov	r1, r4
    3f94:	e1a00005 	mov	r0, r5
    3f98:	ebfff6c2 	bl	1aa8 <json_object_object_get@plt>
    3f9c:	e2504000 	subs	r4, r0, #0
    3fa0:	0affffc8 	beq	3ec8 <vpnc_notify_system_change+0x210>
    3fa4:	e59f1238 	ldr	r1, [pc, #568]	@ 41e4 <vpnc_notify_system_change+0x52c>
    3fa8:	e0875001 	add	r5, r7, r1
    3fac:	e1a01005 	mov	r1, r5
    3fb0:	ebfff6bc 	bl	1aa8 <json_object_object_get@plt>
    3fb4:	e3500000 	cmp	r0, #0
    3fb8:	0affffc2 	beq	3ec8 <vpnc_notify_system_change+0x210>
    3fbc:	e1a01005 	mov	r1, r5
    3fc0:	e1a00004 	mov	r0, r4
    3fc4:	ebfff6b7 	bl	1aa8 <json_object_object_get@plt>
    3fc8:	ebfff650 	bl	1910 <json_object_get_string@plt>
    3fcc:	e3500000 	cmp	r0, #0
    3fd0:	0affffbc 	beq	3ec8 <vpnc_notify_system_change+0x210>
    3fd4:	e59f220c 	ldr	r2, [pc, #524]	@ 41e8 <vpnc_notify_system_change+0x530>
    3fd8:	e0871002 	add	r1, r7, r2
    3fdc:	ebfff6ea 	bl	1b8c <strcmp@plt>
    3fe0:	e3500000 	cmp	r0, #0
    3fe4:	1affffb7 	bne	3ec8 <vpnc_notify_system_change+0x210>
    3fe8:	e797e00a 	ldr	lr, [r7, sl]
    3fec:	e59e0000 	ldr	r0, [lr]
    3ff0:	e3500000 	cmp	r0, #0
    3ff4:	0a000002 	beq	4004 <vpnc_notify_system_change+0x34c>
    3ff8:	e590c000 	ldr	ip, [r0]
    3ffc:	e35c0006 	cmp	ip, #6
    4000:	da000006 	ble	4020 <vpnc_notify_system_change+0x368>
    4004:	e59fe198 	ldr	lr, [pc, #408]	@ 41a4 <vpnc_notify_system_change+0x4ec>
    4008:	e3a01007 	mov	r1, #7
    400c:	e59f21d8 	ldr	r2, [pc, #472]	@ 41ec <vpnc_notify_system_change+0x534>
    4010:	e087300e 	add	r3, r7, lr
    4014:	e0872002 	add	r2, r7, r2
    4018:	e2833f7d 	add	r3, r3, #500	@ 0x1f4
    401c:	ebfff686 	bl	1a3c <PmLogPrint_@plt>
    4020:	e59fe1c8 	ldr	lr, [pc, #456]	@ 41f0 <vpnc_notify_system_change+0x538>
    4024:	e087000e 	add	r0, r7, lr
    4028:	eb0006c8 	bl	5b50 <LOCALIZED>
    402c:	e1a01000 	mov	r1, r0
    4030:	e3a00003 	mov	r0, #3
    4034:	ebfffbd1 	bl	2f80 <notify_notice_message>
    4038:	e7970009 	ldr	r0, [r7, r9]
    403c:	eb000b77 	bl	6e20 <disconnect_vpn>
    4040:	e3500000 	cmp	r0, #0
    4044:	0affff9f 	beq	3ec8 <vpnc_notify_system_change+0x210>
    4048:	e797100a 	ldr	r1, [r7, sl]
    404c:	e5910000 	ldr	r0, [r1]
    4050:	e3500000 	cmp	r0, #0
    4054:	0a000002 	beq	4064 <vpnc_notify_system_change+0x3ac>
    4058:	e590c000 	ldr	ip, [r0]
    405c:	e35c0002 	cmp	ip, #2
    4060:	daffff98 	ble	3ec8 <vpnc_notify_system_change+0x210>
    4064:	e59fe138 	ldr	lr, [pc, #312]	@ 41a4 <vpnc_notify_system_change+0x4ec>
    4068:	e3a01003 	mov	r1, #3
    406c:	e59f2180 	ldr	r2, [pc, #384]	@ 41f4 <vpnc_notify_system_change+0x53c>
    4070:	e087300e 	add	r3, r7, lr
    4074:	e0872002 	add	r2, r7, r2
    4078:	e2833f7d 	add	r3, r3, #500	@ 0x1f4
    407c:	ebfff66e 	bl	1a3c <PmLogPrint_@plt>
    4080:	eaffff90 	b	3ec8 <vpnc_notify_system_change+0x210>
    4084:	e59f116c 	ldr	r1, [pc, #364]	@ 41f8 <vpnc_notify_system_change+0x540>
    4088:	e1a00006 	mov	r0, r6
    408c:	e0871001 	add	r1, r7, r1
    4090:	ebfff684 	bl	1aa8 <json_object_object_get@plt>
    4094:	e3500000 	cmp	r0, #0
    4098:	1affff8a 	bne	3ec8 <vpnc_notify_system_change+0x210>
    409c:	e59fc158 	ldr	ip, [pc, #344]	@ 41fc <vpnc_notify_system_change+0x544>
    40a0:	e1a00006 	mov	r0, r6
    40a4:	e087100c 	add	r1, r7, ip
    40a8:	ebfff67e 	bl	1aa8 <json_object_object_get@plt>
    40ac:	e3500000 	cmp	r0, #0
    40b0:	0affff84 	beq	3ec8 <vpnc_notify_system_change+0x210>
    40b4:	e797300a 	ldr	r3, [r7, sl]
    40b8:	e5930000 	ldr	r0, [r3]
    40bc:	e3500000 	cmp	r0, #0
    40c0:	0a000002 	beq	40d0 <vpnc_notify_system_change+0x418>
    40c4:	e5902000 	ldr	r2, [r0]
    40c8:	e3520006 	cmp	r2, #6
    40cc:	da000006 	ble	40ec <vpnc_notify_system_change+0x434>
    40d0:	e59f30cc 	ldr	r3, [pc, #204]	@ 41a4 <vpnc_notify_system_change+0x4ec>
    40d4:	e3a01007 	mov	r1, #7
    40d8:	e59fc120 	ldr	ip, [pc, #288]	@ 4200 <vpnc_notify_system_change+0x548>
    40dc:	e087e003 	add	lr, r7, r3
    40e0:	e087200c 	add	r2, r7, ip
    40e4:	e28e3f71 	add	r3, lr, #452	@ 0x1c4
    40e8:	ebfff653 	bl	1a3c <PmLogPrint_@plt>
    40ec:	e59f2110 	ldr	r2, [pc, #272]	@ 4204 <vpnc_notify_system_change+0x54c>
    40f0:	e7971002 	ldr	r1, [r7, r2]
    40f4:	e5d10000 	ldrb	r0, [r1]
    40f8:	e3500000 	cmp	r0, #0
    40fc:	0affff71 	beq	3ec8 <vpnc_notify_system_change+0x210>
    4100:	ebfffe6e 	bl	3ac0 <handleBannerDeclineEvent>
    4104:	eaffff6f 	b	3ec8 <vpnc_notify_system_change+0x210>
    4108:	e1a01004 	mov	r1, r4
    410c:	e1a00005 	mov	r0, r5
    4110:	ebfff664 	bl	1aa8 <json_object_object_get@plt>
    4114:	e2504000 	subs	r4, r0, #0
    4118:	0affff95 	beq	3f74 <vpnc_notify_system_change+0x2bc>
    411c:	e59fc0c0 	ldr	ip, [pc, #192]	@ 41e4 <vpnc_notify_system_change+0x52c>
    4120:	e087b00c 	add	fp, r7, ip
    4124:	e1a0100b 	mov	r1, fp
    4128:	ebfff65e 	bl	1aa8 <json_object_object_get@plt>
    412c:	e3500000 	cmp	r0, #0
    4130:	0affff8f 	beq	3f74 <vpnc_notify_system_change+0x2bc>
    4134:	e1a0100b 	mov	r1, fp
    4138:	e1a00004 	mov	r0, r4
    413c:	ebfff659 	bl	1aa8 <json_object_object_get@plt>
    4140:	ebfff5f2 	bl	1910 <json_object_get_string@plt>
    4144:	e3500000 	cmp	r0, #0
    4148:	0affff89 	beq	3f74 <vpnc_notify_system_change+0x2bc>
    414c:	e59f3094 	ldr	r3, [pc, #148]	@ 41e8 <vpnc_notify_system_change+0x530>
    4150:	e0871003 	add	r1, r7, r3
    4154:	ebfff68c 	bl	1b8c <strcmp@plt>
    4158:	e3500000 	cmp	r0, #0
    415c:	1affff84 	bne	3f74 <vpnc_notify_system_change+0x2bc>
    4160:	e797100a 	ldr	r1, [r7, sl]
    4164:	e5910000 	ldr	r0, [r1]
    4168:	e3500000 	cmp	r0, #0
    416c:	0a000002 	beq	417c <vpnc_notify_system_change+0x4c4>
    4170:	e5902000 	ldr	r2, [r0]
    4174:	e3520006 	cmp	r2, #6
    4178:	daffffa8 	ble	4020 <vpnc_notify_system_change+0x368>
    417c:	e59f3020 	ldr	r3, [pc, #32]	@ 41a4 <vpnc_notify_system_change+0x4ec>
    4180:	e3a01007 	mov	r1, #7
    4184:	e59fc07c 	ldr	ip, [pc, #124]	@ 4208 <vpnc_notify_system_change+0x550>
    4188:	e087e003 	add	lr, r7, r3
    418c:	e087200c 	add	r2, r7, ip
    4190:	e28e3f7d 	add	r3, lr, #500	@ 0x1f4
    4194:	ebfff628 	bl	1a3c <PmLogPrint_@plt>
    4198:	eaffffa0 	b	4020 <vpnc_notify_system_change+0x368>
    419c:	0000f46c 	.word	0x0000f46c
    41a0:	00000190 	.word	0x00000190
    41a4:	ffff5740 	.word	0xffff5740
    41a8:	ffff5b84 	.word	0xffff5b84
    41ac:	ffff6208 	.word	0xffff6208
    41b0:	ffff6220 	.word	0xffff6220
    41b4:	ffff6228 	.word	0xffff6228
    41b8:	000001a0 	.word	0x000001a0
    41bc:	0000017c 	.word	0x0000017c
    41c0:	fffeed14 	.word	0xfffeed14
    41c4:	ffff6244 	.word	0xffff6244
    41c8:	ffff6298 	.word	0xffff6298
    41cc:	ffff6200 	.word	0xffff6200
    41d0:	ffff6270 	.word	0xffff6270
    41d4:	ffff62b4 	.word	0xffff62b4
    41d8:	00000178 	.word	0x00000178
    41dc:	ffff62c4 	.word	0xffff62c4
    41e0:	ffff6310 	.word	0xffff6310
    41e4:	ffff5ee0 	.word	0xffff5ee0
    41e8:	ffff62cc 	.word	0xffff62cc
    41ec:	ffff6314 	.word	0xffff6314
    41f0:	ffff638c 	.word	0xffff638c
    41f4:	ffff6344 	.word	0xffff6344
    41f8:	ffff6364 	.word	0xffff6364
    41fc:	ffff6370 	.word	0xffff6370
    4200:	ffff637c 	.word	0xffff637c
    4204:	0000016c 	.word	0x0000016c
    4208:	ffff62dc 	.word	0xffff62dc

0000420c <make_vpn_connection_task>:
    420c:	e59f0270 	ldr	r0, [pc, #624]	@ 4484 <make_vpn_connection_task+0x278>
    4210:	e92d45f0 	push	{r4, r5, r6, r7, r8, sl, lr}
    4214:	e59f726c 	ldr	r7, [pc, #620]	@ 4488 <make_vpn_connection_task+0x27c>
    4218:	e08f5000 	add	r5, pc, r0
    421c:	e24dd00c 	sub	sp, sp, #12
    4220:	e0853007 	add	r3, r5, r7
    4224:	e5930004 	ldr	r0, [r3, #4]
    4228:	e3500000 	cmp	r0, #0
    422c:	0a00006c 	beq	43e4 <make_vpn_connection_task+0x1d8>
    4230:	e59fa254 	ldr	sl, [pc, #596]	@ 448c <make_vpn_connection_task+0x280>
    4234:	e795100a 	ldr	r1, [r5, sl]
    4238:	e5916000 	ldr	r6, [r1]
    423c:	e3560000 	cmp	r6, #0
    4240:	0a00002e 	beq	4300 <make_vpn_connection_task+0xf4>
    4244:	e5962000 	ldr	r2, [r6]
    4248:	e3520006 	cmp	r2, #6
    424c:	ca00002b 	bgt	4300 <make_vpn_connection_task+0xf4>
    4250:	e0856007 	add	r6, r5, r7
    4254:	e59f7234 	ldr	r7, [pc, #564]	@ 4490 <make_vpn_connection_task+0x284>
    4258:	e5960004 	ldr	r0, [r6, #4]
    425c:	e0858007 	add	r8, r5, r7
    4260:	eb0005a3 	bl	58f4 <cmd_request_get_json>
    4264:	e1a01008 	mov	r1, r8
    4268:	e1a06000 	mov	r6, r0
    426c:	ebfff60d 	bl	1aa8 <json_object_object_get@plt>
    4270:	e2504000 	subs	r4, r0, #0
    4274:	0a000064 	beq	440c <make_vpn_connection_task+0x200>
    4278:	e59f7214 	ldr	r7, [pc, #532]	@ 4494 <make_vpn_connection_task+0x288>
    427c:	e3a02044 	mov	r2, #68	@ 0x44
    4280:	e3a01000 	mov	r1, #0
    4284:	e7954007 	ldr	r4, [r5, r7]
    4288:	e1a00004 	mov	r0, r4
    428c:	ebfff593 	bl	18e0 <memset@plt>
    4290:	e1a01008 	mov	r1, r8
    4294:	e1a00006 	mov	r0, r6
    4298:	ebfff602 	bl	1aa8 <json_object_object_get@plt>
    429c:	ebfff59b 	bl	1910 <json_object_get_string@plt>
    42a0:	e1a01000 	mov	r1, r0
    42a4:	e1a00004 	mov	r0, r4
    42a8:	eb0009d1 	bl	69f4 <set_active_profile_name>
    42ac:	e795300a 	ldr	r3, [r5, sl]
    42b0:	e5934000 	ldr	r4, [r3]
    42b4:	e3540000 	cmp	r4, #0
    42b8:	0a00001f 	beq	433c <make_vpn_connection_task+0x130>
    42bc:	e594e000 	ldr	lr, [r4]
    42c0:	e35e0006 	cmp	lr, #6
    42c4:	ca00001c 	bgt	433c <make_vpn_connection_task+0x130>
    42c8:	e59f11c8 	ldr	r1, [pc, #456]	@ 4498 <make_vpn_connection_task+0x28c>
    42cc:	e7950001 	ldr	r0, [r5, r1]
    42d0:	e590402c 	ldr	r4, [r0, #44]	@ 0x2c
    42d4:	e3540000 	cmp	r4, #0
    42d8:	0a000027 	beq	437c <make_vpn_connection_task+0x170>
    42dc:	e7950007 	ldr	r0, [r5, r7]
    42e0:	eb00089e 	bl	6560 <get_active_profile_name>
    42e4:	e59fc1b0 	ldr	ip, [pc, #432]	@ 449c <make_vpn_connection_task+0x290>
    42e8:	e3a02000 	mov	r2, #0
    42ec:	e085100c 	add	r1, r5, ip
    42f0:	e12fff34 	blx	r4
    42f4:	e3a00000 	mov	r0, #0
    42f8:	e28dd00c 	add	sp, sp, #12
    42fc:	e8bd85f0 	pop	{r4, r5, r6, r7, r8, sl, pc}
    4300:	ebfff5fa 	bl	1af0 <getpid@plt>
    4304:	e1a04000 	mov	r4, r0
    4308:	e3a000e0 	mov	r0, #224	@ 0xe0
    430c:	ebfff615 	bl	1b68 <syscall@plt>
    4310:	e59fc188 	ldr	ip, [pc, #392]	@ 44a0 <make_vpn_connection_task+0x294>
    4314:	e58d4000 	str	r4, [sp]
    4318:	e3a01007 	mov	r1, #7
    431c:	e59f4180 	ldr	r4, [pc, #384]	@ 44a4 <make_vpn_connection_task+0x298>
    4320:	e085800c 	add	r8, r5, ip
    4324:	e2883e21 	add	r3, r8, #528	@ 0x210
    4328:	e0852004 	add	r2, r5, r4
    432c:	e58d0004 	str	r0, [sp, #4]
    4330:	e1a00006 	mov	r0, r6
    4334:	ebfff5c0 	bl	1a3c <PmLogPrint_@plt>
    4338:	eaffffc4 	b	4250 <make_vpn_connection_task+0x44>
    433c:	e7950007 	ldr	r0, [r5, r7]
    4340:	eb000886 	bl	6560 <get_active_profile_name>
    4344:	e59f3154 	ldr	r3, [pc, #340]	@ 44a0 <make_vpn_connection_task+0x294>
    4348:	e59f2158 	ldr	r2, [pc, #344]	@ 44a8 <make_vpn_connection_task+0x29c>
    434c:	e3a01007 	mov	r1, #7
    4350:	e085c003 	add	ip, r5, r3
    4354:	e0852002 	add	r2, r5, r2
    4358:	e28c3e21 	add	r3, ip, #528	@ 0x210
    435c:	e58d0000 	str	r0, [sp]
    4360:	e1a00004 	mov	r0, r4
    4364:	ebfff5b4 	bl	1a3c <PmLogPrint_@plt>
    4368:	e59f1128 	ldr	r1, [pc, #296]	@ 4498 <make_vpn_connection_task+0x28c>
    436c:	e7950001 	ldr	r0, [r5, r1]
    4370:	e590402c 	ldr	r4, [r0, #44]	@ 0x2c
    4374:	e3540000 	cmp	r4, #0
    4378:	1affffd7 	bne	42dc <make_vpn_connection_task+0xd0>
    437c:	e59fe128 	ldr	lr, [pc, #296]	@ 44ac <make_vpn_connection_task+0x2a0>
    4380:	e3e06000 	mvn	r6, #0
    4384:	e085400e 	add	r4, r5, lr
    4388:	e795100a 	ldr	r1, [r5, sl]
    438c:	e5910000 	ldr	r0, [r1]
    4390:	e3500000 	cmp	r0, #0
    4394:	0a000002 	beq	43a4 <make_vpn_connection_task+0x198>
    4398:	e590e000 	ldr	lr, [r0]
    439c:	e35e0002 	cmp	lr, #2
    43a0:	da000007 	ble	43c4 <make_vpn_connection_task+0x1b8>
    43a4:	e59f30f4 	ldr	r3, [pc, #244]	@ 44a0 <make_vpn_connection_task+0x294>
    43a8:	e3a01003 	mov	r1, #3
    43ac:	e59f20fc 	ldr	r2, [pc, #252]	@ 44b0 <make_vpn_connection_task+0x2a4>
    43b0:	e085c003 	add	ip, r5, r3
    43b4:	e58d4000 	str	r4, [sp]
    43b8:	e0852002 	add	r2, r5, r2
    43bc:	e28c3e21 	add	r3, ip, #528	@ 0x210
    43c0:	ebfff59d 	bl	1a3c <PmLogPrint_@plt>
    43c4:	e1a00004 	mov	r0, r4
    43c8:	eb0005e0 	bl	5b50 <LOCALIZED>
    43cc:	e1a01000 	mov	r1, r0
    43d0:	e1a00006 	mov	r0, r6
    43d4:	ebfff96f 	bl	2998 <send_vpnd_connect_cmd_response>
    43d8:	e7950007 	ldr	r0, [r5, r7]
    43dc:	eb00097b 	bl	69d0 <clear_active_profile_name>
    43e0:	eaffffc3 	b	42f4 <make_vpn_connection_task+0xe8>
    43e4:	e59f40b4 	ldr	r4, [pc, #180]	@ 44a0 <make_vpn_connection_task+0x294>
    43e8:	e3002245 	movw	r2, #581	@ 0x245
    43ec:	e59f60c0 	ldr	r6, [pc, #192]	@ 44b4 <make_vpn_connection_task+0x2a8>
    43f0:	e0857004 	add	r7, r5, r4
    43f4:	e59f80bc 	ldr	r8, [pc, #188]	@ 44b8 <make_vpn_connection_task+0x2ac>
    43f8:	e0851006 	add	r1, r5, r6
    43fc:	e2873f8b 	add	r3, r7, #556	@ 0x22c
    4400:	e085a008 	add	sl, r5, r8
    4404:	e58da000 	str	sl, [sp]
    4408:	ebfff552 	bl	1958 <g_assertion_message_expr@plt>
    440c:	e59f20a8 	ldr	r2, [pc, #168]	@ 44bc <make_vpn_connection_task+0x2b0>
    4410:	e1a00006 	mov	r0, r6
    4414:	e0857002 	add	r7, r5, r2
    4418:	e1a01007 	mov	r1, r7
    441c:	ebfff5a1 	bl	1aa8 <json_object_object_get@plt>
    4420:	e3500000 	cmp	r0, #0
    4424:	0a00000f 	beq	4468 <make_vpn_connection_task+0x25c>
    4428:	e1a01007 	mov	r1, r7
    442c:	e1a00006 	mov	r0, r6
    4430:	ebfff59c 	bl	1aa8 <json_object_object_get@plt>
    4434:	e59f7058 	ldr	r7, [pc, #88]	@ 4494 <make_vpn_connection_task+0x288>
    4438:	ebfff534 	bl	1910 <json_object_get_string@plt>
    443c:	e3e06006 	mvn	r6, #6
    4440:	e1a01000 	mov	r1, r0
    4444:	e7950007 	ldr	r0, [r5, r7]
    4448:	eb000b12 	bl	7098 <set_host_name>
    444c:	e1a00004 	mov	r0, r4
    4450:	e59f4068 	ldr	r4, [pc, #104]	@ 44c0 <make_vpn_connection_task+0x2b4>
    4454:	ebfffd62 	bl	39e4 <promptUserForCredentials>
    4458:	e0850004 	add	r0, r5, r4
    445c:	eb0005bb 	bl	5b50 <LOCALIZED>
    4460:	e1a04000 	mov	r4, r0
    4464:	eaffffc7 	b	4388 <make_vpn_connection_task+0x17c>
    4468:	e59f3054 	ldr	r3, [pc, #84]	@ 44c4 <make_vpn_connection_task+0x2b8>
    446c:	e3e06000 	mvn	r6, #0
    4470:	e59f701c 	ldr	r7, [pc, #28]	@ 4494 <make_vpn_connection_task+0x288>
    4474:	e0850003 	add	r0, r5, r3
    4478:	eb0005b4 	bl	5b50 <LOCALIZED>
    447c:	e1a04000 	mov	r4, r0
    4480:	eaffffc0 	b	4388 <make_vpn_connection_task+0x17c>
    4484:	0000ef20 	.word	0x0000ef20
    4488:	0000050c 	.word	0x0000050c
    448c:	00000190 	.word	0x00000190
    4490:	ffff5fc0 	.word	0xffff5fc0
    4494:	00000178 	.word	0x00000178
    4498:	000001a0 	.word	0x000001a0
    449c:	ffff1388 	.word	0xffff1388
    44a0:	ffff5740 	.word	0xffff5740
    44a4:	ffff5b84 	.word	0xffff5b84
    44a8:	ffff63c4 	.word	0xffff63c4
    44ac:	ffff63e0 	.word	0xffff63e0
    44b0:	ffff5cb4 	.word	0xffff5cb4
    44b4:	ffff6128 	.word	0xffff6128
    44b8:	ffff6430 	.word	0xffff6430
    44bc:	ffff5ff8 	.word	0xffff5ff8
    44c0:	ffff63f8 	.word	0xffff63f8
    44c4:	ffff6418 	.word	0xffff6418

000044c8 <make_connection_from_profile>:
    44c8:	e92d45f0 	push	{r4, r5, r6, r7, r8, sl, lr}
    44cc:	e1a07000 	mov	r7, r0
    44d0:	e59f01d4 	ldr	r0, [pc, #468]	@ 46ac <make_connection_from_profile+0x1e4>
    44d4:	e24dd00c 	sub	sp, sp, #12
    44d8:	e59fa1d0 	ldr	sl, [pc, #464]	@ 46b0 <make_connection_from_profile+0x1e8>
    44dc:	e08f6000 	add	r6, pc, r0
    44e0:	e796300a 	ldr	r3, [r6, sl]
    44e4:	e5935000 	ldr	r5, [r3]
    44e8:	e3550000 	cmp	r5, #0
    44ec:	0a00002a 	beq	459c <make_connection_from_profile+0xd4>
    44f0:	e5951000 	ldr	r1, [r5]
    44f4:	e3510006 	cmp	r1, #6
    44f8:	ca000027 	bgt	459c <make_connection_from_profile+0xd4>
    44fc:	e3570000 	cmp	r7, #0
    4500:	0a000035 	beq	45dc <make_connection_from_profile+0x114>
    4504:	e1a00007 	mov	r0, r7
    4508:	ebfff52a 	bl	19b8 <json_tokener_parse@plt>
    450c:	e3700efa 	cmn	r0, #4000	@ 0xfa0
    4510:	e1a04000 	mov	r4, r0
    4514:	9a000035 	bls	45f0 <make_connection_from_profile+0x128>
    4518:	e59fe194 	ldr	lr, [pc, #404]	@ 46b4 <make_connection_from_profile+0x1ec>
    451c:	e3e05001 	mvn	r5, #1
    4520:	e59f8190 	ldr	r8, [pc, #400]	@ 46b8 <make_connection_from_profile+0x1f0>
    4524:	e086400e 	add	r4, r6, lr
    4528:	e796e00a 	ldr	lr, [r6, sl]
    452c:	e59e0000 	ldr	r0, [lr]
    4530:	e3500000 	cmp	r0, #0
    4534:	0a000002 	beq	4544 <make_connection_from_profile+0x7c>
    4538:	e5903000 	ldr	r3, [r0]
    453c:	e3530002 	cmp	r3, #2
    4540:	da000007 	ble	4564 <make_connection_from_profile+0x9c>
    4544:	e59fe170 	ldr	lr, [pc, #368]	@ 46bc <make_connection_from_profile+0x1f4>
    4548:	e3a01003 	mov	r1, #3
    454c:	e59f216c 	ldr	r2, [pc, #364]	@ 46c0 <make_connection_from_profile+0x1f8>
    4550:	e086c00e 	add	ip, r6, lr
    4554:	e58d4000 	str	r4, [sp]
    4558:	e0862002 	add	r2, r6, r2
    455c:	e28c3f92 	add	r3, ip, #584	@ 0x248
    4560:	ebfff535 	bl	1a3c <PmLogPrint_@plt>
    4564:	e1a00004 	mov	r0, r4
    4568:	eb000578 	bl	5b50 <LOCALIZED>
    456c:	e1a01000 	mov	r1, r0
    4570:	e1a00005 	mov	r0, r5
    4574:	ebfff907 	bl	2998 <send_vpnd_connect_cmd_response>
    4578:	e7964008 	ldr	r4, [r6, r8]
    457c:	e1a00004 	mov	r0, r4
    4580:	eb000912 	bl	69d0 <clear_active_profile_name>
    4584:	e1a00004 	mov	r0, r4
    4588:	eb00092a 	bl	6a38 <clear_profile>
    458c:	e1a00004 	mov	r0, r4
    4590:	e28dd00c 	add	sp, sp, #12
    4594:	e8bd45f0 	pop	{r4, r5, r6, r7, r8, sl, lr}
    4598:	ea00091d 	b	6a14 <clear_host_name>
    459c:	ebfff553 	bl	1af0 <getpid@plt>
    45a0:	e1a04000 	mov	r4, r0
    45a4:	e3a000e0 	mov	r0, #224	@ 0xe0
    45a8:	ebfff56e 	bl	1b68 <syscall@plt>
    45ac:	e59fc108 	ldr	ip, [pc, #264]	@ 46bc <make_connection_from_profile+0x1f4>
    45b0:	e59f210c 	ldr	r2, [pc, #268]	@ 46c4 <make_connection_from_profile+0x1fc>
    45b4:	e3a01007 	mov	r1, #7
    45b8:	e086800c 	add	r8, r6, ip
    45bc:	e58d4000 	str	r4, [sp]
    45c0:	e0862002 	add	r2, r6, r2
    45c4:	e2883f92 	add	r3, r8, #584	@ 0x248
    45c8:	e58d0004 	str	r0, [sp, #4]
    45cc:	e1a00005 	mov	r0, r5
    45d0:	ebfff519 	bl	1a3c <PmLogPrint_@plt>
    45d4:	e3570000 	cmp	r7, #0
    45d8:	1affffc9 	bne	4504 <make_connection_from_profile+0x3c>
    45dc:	e59f20e4 	ldr	r2, [pc, #228]	@ 46c8 <make_connection_from_profile+0x200>
    45e0:	e3e05001 	mvn	r5, #1
    45e4:	e59f80cc 	ldr	r8, [pc, #204]	@ 46b8 <make_connection_from_profile+0x1f0>
    45e8:	e0864002 	add	r4, r6, r2
    45ec:	eaffffcd 	b	4528 <make_connection_from_profile+0x60>
    45f0:	e59f30d4 	ldr	r3, [pc, #212]	@ 46cc <make_connection_from_profile+0x204>
    45f4:	e59f50d4 	ldr	r5, [pc, #212]	@ 46d0 <make_connection_from_profile+0x208>
    45f8:	e0861003 	add	r1, r6, r3
    45fc:	ebfff529 	bl	1aa8 <json_object_object_get@plt>
    4600:	e0861005 	add	r1, r6, r5
    4604:	ebfff527 	bl	1aa8 <json_object_object_get@plt>
    4608:	e3500000 	cmp	r0, #0
    460c:	0a000010 	beq	4654 <make_connection_from_profile+0x18c>
    4610:	ebfff4be 	bl	1910 <json_object_get_string@plt>
    4614:	e59f809c 	ldr	r8, [pc, #156]	@ 46b8 <make_connection_from_profile+0x1f0>
    4618:	e7965008 	ldr	r5, [r6, r8]
    461c:	e1a01000 	mov	r1, r0
    4620:	e1a00005 	mov	r0, r5
    4624:	eb000a9b 	bl	7098 <set_host_name>
    4628:	e1a00005 	mov	r0, r5
    462c:	eb0007c9 	bl	6558 <get_host_name>
    4630:	e5d01000 	ldrb	r1, [r0]
    4634:	e3510000 	cmp	r1, #0
    4638:	1a000007 	bne	465c <make_connection_from_profile+0x194>
    463c:	e1a00004 	mov	r0, r4
    4640:	e3e05001 	mvn	r5, #1
    4644:	ebfff559 	bl	1bb0 <json_object_put@plt>
    4648:	e59f0064 	ldr	r0, [pc, #100]	@ 46b4 <make_connection_from_profile+0x1ec>
    464c:	e0864000 	add	r4, r6, r0
    4650:	eaffffb4 	b	4528 <make_connection_from_profile+0x60>
    4654:	e59f805c 	ldr	r8, [pc, #92]	@ 46b8 <make_connection_from_profile+0x1f0>
    4658:	eafffff7 	b	463c <make_connection_from_profile+0x174>
    465c:	e1a00004 	mov	r0, r4
    4660:	ebfff552 	bl	1bb0 <json_object_put@plt>
    4664:	e1a00005 	mov	r0, r5
    4668:	e1a01007 	mov	r1, r7
    466c:	eb0008fa 	bl	6a5c <set_profile>
    4670:	e59f005c 	ldr	r0, [pc, #92]	@ 46d4 <make_connection_from_profile+0x20c>
    4674:	e7961000 	ldr	r1, [r6, r0]
    4678:	e5912014 	ldr	r2, [r1, #20]
    467c:	e3520000 	cmp	r2, #0
    4680:	0a000005 	beq	469c <make_connection_from_profile+0x1d4>
    4684:	e59fc04c 	ldr	ip, [pc, #76]	@ 46d8 <make_connection_from_profile+0x210>
    4688:	e3a01000 	mov	r1, #0
    468c:	e796000c 	ldr	r0, [r6, ip]
    4690:	e12fff32 	blx	r2
    4694:	e28dd00c 	add	sp, sp, #12
    4698:	e8bd85f0 	pop	{r4, r5, r6, r7, r8, sl, pc}
    469c:	e59f3038 	ldr	r3, [pc, #56]	@ 46dc <make_connection_from_profile+0x214>
    46a0:	e3e05000 	mvn	r5, #0
    46a4:	e0864003 	add	r4, r6, r3
    46a8:	eaffff9e 	b	4528 <make_connection_from_profile+0x60>
    46ac:	0000ec5c 	.word	0x0000ec5c
    46b0:	00000190 	.word	0x00000190
    46b4:	ffff644c 	.word	0xffff644c
    46b8:	00000178 	.word	0x00000178
    46bc:	ffff5740 	.word	0xffff5740
    46c0:	ffff5cb4 	.word	0xffff5cb4
    46c4:	ffff5b84 	.word	0xffff5b84
    46c8:	ffff6460 	.word	0xffff6460
    46cc:	ffff5da0 	.word	0xffff5da0
    46d0:	ffff5ff8 	.word	0xffff5ff8
    46d4:	000001a0 	.word	0x000001a0
    46d8:	00000184 	.word	0x00000184
    46dc:	ffff6480 	.word	0xffff6480

000046e0 <handleGetNetIfList>:
    46e0:	e92d4ff0 	push	{r4, r5, r6, r7, r8, r9, sl, fp, lr}
    46e4:	e1a04000 	mov	r4, r0
    46e8:	e59f0d8c 	ldr	r0, [pc, #3468]	@ 547c <handleGetNetIfList+0xd9c>
    46ec:	e24dd064 	sub	sp, sp, #100	@ 0x64
    46f0:	e59f1d88 	ldr	r1, [pc, #3464]	@ 5480 <handleGetNetIfList+0xda0>
    46f4:	e08f7000 	add	r7, pc, r0
    46f8:	e7973001 	ldr	r3, [r7, r1]
    46fc:	e58d102c 	str	r1, [sp, #44]	@ 0x2c
    4700:	e5930000 	ldr	r0, [r3]
    4704:	e3500000 	cmp	r0, #0
    4708:	0a000032 	beq	47d8 <handleGetNetIfList+0xf8>
    470c:	e590c000 	ldr	ip, [r0]
    4710:	e35c0006 	cmp	ip, #6
    4714:	ca00002f 	bgt	47d8 <handleGetNetIfList+0xf8>
    4718:	e3540000 	cmp	r4, #0
    471c:	0a00003a 	beq	480c <handleGetNetIfList+0x12c>
    4720:	e1a00004 	mov	r0, r4
    4724:	ebfff4a3 	bl	19b8 <json_tokener_parse@plt>
    4728:	e3700efa 	cmn	r0, #4000	@ 0xfa0
    472c:	e1a04000 	mov	r4, r0
    4730:	9a000038 	bls	4818 <handleGetNetIfList+0x138>
    4734:	e3a00000 	mov	r0, #0
    4738:	ebfff42c 	bl	17f0 <g_free@plt>
    473c:	e3a00000 	mov	r0, #0
    4740:	ebfff42a 	bl	17f0 <g_free@plt>
    4744:	e59f0d38 	ldr	r0, [pc, #3384]	@ 5484 <handleGetNetIfList+0xda4>
    4748:	e0874000 	add	r4, r7, r0
    474c:	e59de02c 	ldr	lr, [sp, #44]	@ 0x2c
    4750:	e797c00e 	ldr	ip, [r7, lr]
    4754:	e59c0000 	ldr	r0, [ip]
    4758:	e3500000 	cmp	r0, #0
    475c:	0a000002 	beq	476c <handleGetNetIfList+0x8c>
    4760:	e5902000 	ldr	r2, [r0]
    4764:	e3520002 	cmp	r2, #2
    4768:	da000007 	ble	478c <handleGetNetIfList+0xac>
    476c:	e59fed14 	ldr	lr, [pc, #3348]	@ 5488 <handleGetNetIfList+0xda8>
    4770:	e3a01003 	mov	r1, #3
    4774:	e59fcd10 	ldr	ip, [pc, #3344]	@ 548c <handleGetNetIfList+0xdac>
    4778:	e087300e 	add	r3, r7, lr
    477c:	e58d4000 	str	r4, [sp]
    4780:	e087200c 	add	r2, r7, ip
    4784:	e2833f9a 	add	r3, r3, #616	@ 0x268
    4788:	ebfff4ab 	bl	1a3c <PmLogPrint_@plt>
    478c:	e1a00004 	mov	r0, r4
    4790:	eb0004ee 	bl	5b50 <LOCALIZED>
    4794:	e1a01000 	mov	r1, r0
    4798:	e3e00000 	mvn	r0, #0
    479c:	ebfff87d 	bl	2998 <send_vpnd_connect_cmd_response>
    47a0:	e59f1ce8 	ldr	r1, [pc, #3304]	@ 5490 <handleGetNetIfList+0xdb0>
    47a4:	e7974001 	ldr	r4, [r7, r1]
    47a8:	e1a00004 	mov	r0, r4
    47ac:	eb000876 	bl	698c <clear_preferred_if_type>
    47b0:	e1a00004 	mov	r0, r4
    47b4:	eb000863 	bl	6948 <clear_preferred_if_addr>
    47b8:	e1a00004 	mov	r0, r4
    47bc:	eb000883 	bl	69d0 <clear_active_profile_name>
    47c0:	e1a00004 	mov	r0, r4
    47c4:	eb00089b 	bl	6a38 <clear_profile>
    47c8:	e1a00004 	mov	r0, r4
    47cc:	e28dd064 	add	sp, sp, #100	@ 0x64
    47d0:	e8bd4ff0 	pop	{r4, r5, r6, r7, r8, r9, sl, fp, lr}
    47d4:	ea00088e 	b	6a14 <clear_host_name>
    47d8:	e3540000 	cmp	r4, #0
    47dc:	11a02004 	movne	r2, r4
    47e0:	0a000090 	beq	4a28 <handleGetNetIfList+0x348>
    47e4:	e59fcc9c 	ldr	ip, [pc, #3228]	@ 5488 <handleGetNetIfList+0xda8>
    47e8:	e3a01007 	mov	r1, #7
    47ec:	e58d2000 	str	r2, [sp]
    47f0:	e59f2c9c 	ldr	r2, [pc, #3228]	@ 5494 <handleGetNetIfList+0xdb4>
    47f4:	e087300c 	add	r3, r7, ip
    47f8:	e2833f9a 	add	r3, r3, #616	@ 0x268
    47fc:	e0872002 	add	r2, r7, r2
    4800:	ebfff48d 	bl	1a3c <PmLogPrint_@plt>
    4804:	e3540000 	cmp	r4, #0
    4808:	1affffc4 	bne	4720 <handleGetNetIfList+0x40>
    480c:	e59f0c84 	ldr	r0, [pc, #3204]	@ 5498 <handleGetNetIfList+0xdb8>
    4810:	e0874000 	add	r4, r7, r0
    4814:	eaffffcc 	b	474c <handleGetNetIfList+0x6c>
    4818:	e59f1c7c 	ldr	r1, [pc, #3196]	@ 549c <handleGetNetIfList+0xdbc>
    481c:	e0871001 	add	r1, r7, r1
    4820:	ebfff4a0 	bl	1aa8 <json_object_object_get@plt>
    4824:	ebfff403 	bl	1838 <json_object_get_boolean@plt>
    4828:	e3500000 	cmp	r0, #0
    482c:	0affffc0 	beq	4734 <handleGetNetIfList+0x54>
    4830:	e59fec68 	ldr	lr, [pc, #3176]	@ 54a0 <handleGetNetIfList+0xdc0>
    4834:	e1a00004 	mov	r0, r4
    4838:	e087100e 	add	r1, r7, lr
    483c:	ebfff499 	bl	1aa8 <json_object_object_get@plt>
    4840:	e2504000 	subs	r4, r0, #0
    4844:	e58d4038 	str	r4, [sp, #56]	@ 0x38
    4848:	0affffb9 	beq	4734 <handleGetNetIfList+0x54>
    484c:	ebfff3ed 	bl	1808 <json_object_array_length@plt>
    4850:	e3500000 	cmp	r0, #0
    4854:	e58d0044 	str	r0, [sp, #68]	@ 0x44
    4858:	daffffb5 	ble	4734 <handleGetNetIfList+0x54>
    485c:	e59f1c24 	ldr	r1, [pc, #3108]	@ 5488 <handleGetNetIfList+0xda8>
    4860:	e3100001 	tst	r0, #1
    4864:	e59f9c38 	ldr	r9, [pc, #3128]	@ 54a4 <handleGetNetIfList+0xdc4>
    4868:	e3a05000 	mov	r5, #0
    486c:	e59fcc34 	ldr	ip, [pc, #3124]	@ 54a8 <handleGetNetIfList+0xdc8>
    4870:	e087b001 	add	fp, r7, r1
    4874:	e59f3c30 	ldr	r3, [pc, #3120]	@ 54ac <handleGetNetIfList+0xdcc>
    4878:	e0876009 	add	r6, r7, r9
    487c:	e28baf9f 	add	sl, fp, #636	@ 0x27c
    4880:	e087200c 	add	r2, r7, ip
    4884:	e0870003 	add	r0, r7, r3
    4888:	e58da010 	str	sl, [sp, #16]
    488c:	e58d6014 	str	r6, [sp, #20]
    4890:	e3e0a102 	mvn	sl, #-2147483648	@ 0x80000000
    4894:	e58d201c 	str	r2, [sp, #28]
    4898:	e1a09005 	mov	r9, r5
    489c:	e58d0018 	str	r0, [sp, #24]
    48a0:	e1a06005 	mov	r6, r5
    48a4:	1a00002d 	bne	4960 <handleGetNetIfList+0x280>
    48a8:	e59d0038 	ldr	r0, [sp, #56]	@ 0x38
    48ac:	e1a01005 	mov	r1, r5
    48b0:	ebfff410 	bl	18f8 <json_object_array_get_idx@plt>
    48b4:	e2506000 	subs	r6, r0, #0
    48b8:	0a000006 	beq	48d8 <handleGetNetIfList+0x1f8>
    48bc:	e59d101c 	ldr	r1, [sp, #28]
    48c0:	ebfff478 	bl	1aa8 <json_object_object_get@plt>
    48c4:	ebfff411 	bl	1910 <json_object_get_string@plt>
    48c8:	e59d1018 	ldr	r1, [sp, #24]
    48cc:	ebfff4ae 	bl	1b8c <strcmp@plt>
    48d0:	e3500000 	cmp	r0, #0
    48d4:	0a000163 	beq	4e68 <handleGetNetIfList+0x788>
    48d8:	e3a04000 	mov	r4, #0
    48dc:	e3e06102 	mvn	r6, #-2147483648	@ 0x80000000
    48e0:	e1a08004 	mov	r8, r4
    48e4:	e1a0a006 	mov	sl, r6
    48e8:	e1a09004 	mov	r9, r4
    48ec:	e1a06008 	mov	r6, r8
    48f0:	e3a05001 	mov	r5, #1
    48f4:	ea000019 	b	4960 <handleGetNetIfList+0x280>
    48f8:	e1a0b009 	mov	fp, r9
    48fc:	e58da03c 	str	sl, [sp, #60]	@ 0x3c
    4900:	e58d6040 	str	r6, [sp, #64]	@ 0x40
    4904:	e59d0044 	ldr	r0, [sp, #68]	@ 0x44
    4908:	e2855001 	add	r5, r5, #1
    490c:	e1500005 	cmp	r0, r5
    4910:	da00006c 	ble	4ac8 <handleGetNetIfList+0x3e8>
    4914:	e59d0038 	ldr	r0, [sp, #56]	@ 0x38
    4918:	e1a01005 	mov	r1, r5
    491c:	ebfff3f5 	bl	18f8 <json_object_array_get_idx@plt>
    4920:	e2504000 	subs	r4, r0, #0
    4924:	0a000006 	beq	4944 <handleGetNetIfList+0x264>
    4928:	e59d101c 	ldr	r1, [sp, #28]
    492c:	ebfff45d 	bl	1aa8 <json_object_object_get@plt>
    4930:	ebfff3f6 	bl	1910 <json_object_get_string@plt>
    4934:	e59d1018 	ldr	r1, [sp, #24]
    4938:	ebfff493 	bl	1b8c <strcmp@plt>
    493c:	e3500000 	cmp	r0, #0
    4940:	0a00003b 	beq	4a34 <handleGetNetIfList+0x354>
    4944:	e59d403c 	ldr	r4, [sp, #60]	@ 0x3c
    4948:	e1a0600b 	mov	r6, fp
    494c:	e59d8040 	ldr	r8, [sp, #64]	@ 0x40
    4950:	e2855001 	add	r5, r5, #1
    4954:	e1a09006 	mov	r9, r6
    4958:	e1a0a004 	mov	sl, r4
    495c:	e1a06008 	mov	r6, r8
    4960:	e59d0038 	ldr	r0, [sp, #56]	@ 0x38
    4964:	e1a01005 	mov	r1, r5
    4968:	ebfff3e2 	bl	18f8 <json_object_array_get_idx@plt>
    496c:	e2504000 	subs	r4, r0, #0
    4970:	0affffe0 	beq	48f8 <handleGetNetIfList+0x218>
    4974:	e59d101c 	ldr	r1, [sp, #28]
    4978:	ebfff44a 	bl	1aa8 <json_object_object_get@plt>
    497c:	ebfff3e3 	bl	1910 <json_object_get_string@plt>
    4980:	e59d1018 	ldr	r1, [sp, #24]
    4984:	ebfff480 	bl	1b8c <strcmp@plt>
    4988:	e3500000 	cmp	r0, #0
    498c:	1affffd9 	bne	48f8 <handleGetNetIfList+0x218>
    4990:	e59d1014 	ldr	r1, [sp, #20]
    4994:	e1a00004 	mov	r0, r4
    4998:	ebfff442 	bl	1aa8 <json_object_object_get@plt>
    499c:	e59fbb0c 	ldr	fp, [pc, #2828]	@ 54b0 <handleGetNetIfList+0xdd0>
    49a0:	ebfff3da 	bl	1910 <json_object_get_string@plt>
    49a4:	e087100b 	add	r1, r7, fp
    49a8:	e58d0040 	str	r0, [sp, #64]	@ 0x40
    49ac:	e1a00004 	mov	r0, r4
    49b0:	ebfff43c 	bl	1aa8 <json_object_object_get@plt>
    49b4:	ebfff3d5 	bl	1910 <json_object_get_string@plt>
    49b8:	e59f3af4 	ldr	r3, [pc, #2804]	@ 54b4 <handleGetNetIfList+0xdd4>
    49bc:	e0871003 	add	r1, r7, r3
    49c0:	e1a0b000 	mov	fp, r0
    49c4:	e1a00004 	mov	r0, r4
    49c8:	ebfff436 	bl	1aa8 <json_object_object_get@plt>
    49cc:	ebfff408 	bl	19f4 <json_object_get_int@plt>
    49d0:	e58d003c 	str	r0, [sp, #60]	@ 0x3c
    49d4:	e59d002c 	ldr	r0, [sp, #44]	@ 0x2c
    49d8:	e7974000 	ldr	r4, [r7, r0]
    49dc:	e5940000 	ldr	r0, [r4]
    49e0:	e3500000 	cmp	r0, #0
    49e4:	0a000002 	beq	49f4 <handleGetNetIfList+0x314>
    49e8:	e590e000 	ldr	lr, [r0]
    49ec:	e35e0006 	cmp	lr, #6
    49f0:	da000008 	ble	4a18 <handleGetNetIfList+0x338>
    49f4:	e59f2abc 	ldr	r2, [pc, #2748]	@ 54b8 <handleGetNetIfList+0xdd8>
    49f8:	e3a01007 	mov	r1, #7
    49fc:	e59d4040 	ldr	r4, [sp, #64]	@ 0x40
    4a00:	e59dc03c 	ldr	ip, [sp, #60]	@ 0x3c
    4a04:	e0872002 	add	r2, r7, r2
    4a08:	e59d3010 	ldr	r3, [sp, #16]
    4a0c:	e58d5000 	str	r5, [sp]
    4a10:	e98d1810 	stmib	sp, {r4, fp, ip}
    4a14:	ebfff408 	bl	1a3c <PmLogPrint_@plt>
    4a18:	e59d103c 	ldr	r1, [sp, #60]	@ 0x3c
    4a1c:	e151000a 	cmp	r1, sl
    4a20:	daffffb7 	ble	4904 <handleGetNetIfList+0x224>
    4a24:	eaffffb3 	b	48f8 <handleGetNetIfList+0x218>
    4a28:	e59fea8c 	ldr	lr, [pc, #2700]	@ 54bc <handleGetNetIfList+0xddc>
    4a2c:	e087200e 	add	r2, r7, lr
    4a30:	eaffff6b 	b	47e4 <handleGetNetIfList+0x104>
    4a34:	e59d1014 	ldr	r1, [sp, #20]
    4a38:	e1a00004 	mov	r0, r4
    4a3c:	ebfff419 	bl	1aa8 <json_object_object_get@plt>
    4a40:	ebfff3b2 	bl	1910 <json_object_get_string@plt>
    4a44:	e59f3a64 	ldr	r3, [pc, #2660]	@ 54b0 <handleGetNetIfList+0xdd0>
    4a48:	e0871003 	add	r1, r7, r3
    4a4c:	e1a08000 	mov	r8, r0
    4a50:	e1a00004 	mov	r0, r4
    4a54:	ebfff413 	bl	1aa8 <json_object_object_get@plt>
    4a58:	ebfff3ac 	bl	1910 <json_object_get_string@plt>
    4a5c:	e1a06000 	mov	r6, r0
    4a60:	e1a00004 	mov	r0, r4
    4a64:	e59f4a48 	ldr	r4, [pc, #2632]	@ 54b4 <handleGetNetIfList+0xdd4>
    4a68:	e0871004 	add	r1, r7, r4
    4a6c:	ebfff40d 	bl	1aa8 <json_object_object_get@plt>
    4a70:	ebfff3df 	bl	19f4 <json_object_get_int@plt>
    4a74:	e1a04000 	mov	r4, r0
    4a78:	e59d002c 	ldr	r0, [sp, #44]	@ 0x2c
    4a7c:	e7972000 	ldr	r2, [r7, r0]
    4a80:	e5920000 	ldr	r0, [r2]
    4a84:	e3500000 	cmp	r0, #0
    4a88:	0a000002 	beq	4a98 <handleGetNetIfList+0x3b8>
    4a8c:	e590a000 	ldr	sl, [r0]
    4a90:	e35a0006 	cmp	sl, #6
    4a94:	da000007 	ble	4ab8 <handleGetNetIfList+0x3d8>
    4a98:	e59f9a18 	ldr	r9, [pc, #2584]	@ 54b8 <handleGetNetIfList+0xdd8>
    4a9c:	e3a01007 	mov	r1, #7
    4aa0:	e59d3010 	ldr	r3, [sp, #16]
    4aa4:	e0872009 	add	r2, r7, r9
    4aa8:	e88d0120 	stm	sp, {r5, r8}
    4aac:	e58d6008 	str	r6, [sp, #8]
    4ab0:	e58d400c 	str	r4, [sp, #12]
    4ab4:	ebfff3e0 	bl	1a3c <PmLogPrint_@plt>
    4ab8:	e59dc03c 	ldr	ip, [sp, #60]	@ 0x3c
    4abc:	e154000c 	cmp	r4, ip
    4ac0:	daffffa2 	ble	4950 <handleGetNetIfList+0x270>
    4ac4:	eaffff9e 	b	4944 <handleGetNetIfList+0x264>
    4ac8:	e59d3040 	ldr	r3, [sp, #64]	@ 0x40
    4acc:	e59de03c 	ldr	lr, [sp, #60]	@ 0x3c
    4ad0:	e3530000 	cmp	r3, #0
    4ad4:	137e0106 	cmnne	lr, #-2147483647	@ 0x80000001
    4ad8:	0a0000c3 	beq	4dec <handleGetNetIfList+0x70c>
    4adc:	e35b0000 	cmp	fp, #0
    4ae0:	0a0000c1 	beq	4dec <handleGetNetIfList+0x70c>
    4ae4:	e59f49a4 	ldr	r4, [pc, #2468]	@ 5490 <handleGetNetIfList+0xdb0>
    4ae8:	e1a0100b 	mov	r1, fp
    4aec:	e58d4030 	str	r4, [sp, #48]	@ 0x30
    4af0:	e59dc030 	ldr	ip, [sp, #48]	@ 0x30
    4af4:	e797400c 	ldr	r4, [r7, ip]
    4af8:	e1a00004 	mov	r0, r4
    4afc:	eb00079a 	bl	696c <set_preferred_if_addr>
    4b00:	e59d1040 	ldr	r1, [sp, #64]	@ 0x40
    4b04:	e1a00004 	mov	r0, r4
    4b08:	eb0007a8 	bl	69b0 <set_preferred_if_type>
    4b0c:	e59d0040 	ldr	r0, [sp, #64]	@ 0x40
    4b10:	ebfff336 	bl	17f0 <g_free@plt>
    4b14:	e1a0000b 	mov	r0, fp
    4b18:	ebfff334 	bl	17f0 <g_free@plt>
    4b1c:	e1a00004 	mov	r0, r4
    4b20:	eb00097d 	bl	711c <VpnVpncStart>
    4b24:	e3500000 	cmp	r0, #0
    4b28:	0a000001 	beq	4b34 <handleGetNetIfList+0x454>
    4b2c:	e28dd064 	add	sp, sp, #100	@ 0x64
    4b30:	e8bd8ff0 	pop	{r4, r5, r6, r7, r8, r9, sl, fp, pc}
    4b34:	e59d102c 	ldr	r1, [sp, #44]	@ 0x2c
    4b38:	e7972001 	ldr	r2, [r7, r1]
    4b3c:	e5920000 	ldr	r0, [r2]
    4b40:	e3500000 	cmp	r0, #0
    4b44:	0a000002 	beq	4b54 <handleGetNetIfList+0x474>
    4b48:	e5903000 	ldr	r3, [r0]
    4b4c:	e3530006 	cmp	r3, #6
    4b50:	da000006 	ble	4b70 <handleGetNetIfList+0x490>
    4b54:	e59f292c 	ldr	r2, [pc, #2348]	@ 5488 <handleGetNetIfList+0xda8>
    4b58:	e3a01007 	mov	r1, #7
    4b5c:	e59fc95c 	ldr	ip, [pc, #2396]	@ 54c0 <handleGetNetIfList+0xde0>
    4b60:	e087e002 	add	lr, r7, r2
    4b64:	e28e3fa5 	add	r3, lr, #660	@ 0x294
    4b68:	e087200c 	add	r2, r7, ip
    4b6c:	ebfff3b2 	bl	1a3c <PmLogPrint_@plt>
    4b70:	e59d1030 	ldr	r1, [sp, #48]	@ 0x30
    4b74:	e7973001 	ldr	r3, [r7, r1]
    4b78:	e5930038 	ldr	r0, [r3, #56]	@ 0x38
    4b7c:	e3500000 	cmp	r0, #0
    4b80:	e58d0054 	str	r0, [sp, #84]	@ 0x54
    4b84:	aa000010 	bge	4bcc <handleGetNetIfList+0x4ec>
    4b88:	e59dc02c 	ldr	ip, [sp, #44]	@ 0x2c
    4b8c:	e797e00c 	ldr	lr, [r7, ip]
    4b90:	e59e0000 	ldr	r0, [lr]
    4b94:	e3500000 	cmp	r0, #0
    4b98:	0a000002 	beq	4ba8 <handleGetNetIfList+0x4c8>
    4b9c:	e5902000 	ldr	r2, [r0]
    4ba0:	e3520002 	cmp	r2, #2
    4ba4:	daffffe0 	ble	4b2c <handleGetNetIfList+0x44c>
    4ba8:	e59fc8d8 	ldr	ip, [pc, #2264]	@ 5488 <handleGetNetIfList+0xda8>
    4bac:	e3a01003 	mov	r1, #3
    4bb0:	e59fe90c 	ldr	lr, [pc, #2316]	@ 54c4 <handleGetNetIfList+0xde4>
    4bb4:	e087300c 	add	r3, r7, ip
    4bb8:	e087200e 	add	r2, r7, lr
    4bbc:	e2833fa5 	add	r3, r3, #660	@ 0x294
    4bc0:	e28dd064 	add	sp, sp, #100	@ 0x64
    4bc4:	e8bd4ff0 	pop	{r4, r5, r6, r7, r8, r9, sl, fp, lr}
    4bc8:	eafff39b 	b	1a3c <PmLogPrint_@plt>
    4bcc:	e59fa8f4 	ldr	sl, [pc, #2292]	@ 54c8 <handleGetNetIfList+0xde8>
    4bd0:	e3a01010 	mov	r1, #16
    4bd4:	e087000a 	add	r0, r7, sl
    4bd8:	ebfff3ee 	bl	1b98 <g_file_test@plt>
    4bdc:	e3500000 	cmp	r0, #0
    4be0:	0a000070 	beq	4da8 <handleGetNetIfList+0x6c8>
    4be4:	e59d002c 	ldr	r0, [sp, #44]	@ 0x2c
    4be8:	e7974000 	ldr	r4, [r7, r0]
    4bec:	e5940000 	ldr	r0, [r4]
    4bf0:	e3500000 	cmp	r0, #0
    4bf4:	0a000083 	beq	4e08 <handleGetNetIfList+0x728>
    4bf8:	e5901000 	ldr	r1, [r0]
    4bfc:	e3510006 	cmp	r1, #6
    4c00:	ca000080 	bgt	4e08 <handleGetNetIfList+0x728>
    4c04:	e59f48c0 	ldr	r4, [pc, #2240]	@ 54cc <handleGetNetIfList+0xdec>
    4c08:	e59fa8c0 	ldr	sl, [pc, #2240]	@ 54d0 <handleGetNetIfList+0xdf0>
    4c0c:	e0872004 	add	r2, r7, r4
    4c10:	e59d0054 	ldr	r0, [sp, #84]	@ 0x54
    4c14:	e087100a 	add	r1, r7, sl
    4c18:	ebfff6c3 	bl	272c <write_vpnc_config>
    4c1c:	e59f38b0 	ldr	r3, [pc, #2224]	@ 54d4 <handleGetNetIfList+0xdf4>
    4c20:	e59fe8b0 	ldr	lr, [pc, #2224]	@ 54d8 <handleGetNetIfList+0xdf8>
    4c24:	e59d0054 	ldr	r0, [sp, #84]	@ 0x54
    4c28:	e0871003 	add	r1, r7, r3
    4c2c:	e087200e 	add	r2, r7, lr
    4c30:	ebfff6bd 	bl	272c <write_vpnc_config>
    4c34:	e59d402c 	ldr	r4, [sp, #44]	@ 0x2c
    4c38:	e797a004 	ldr	sl, [r7, r4]
    4c3c:	e59a4000 	ldr	r4, [sl]
    4c40:	e3540000 	cmp	r4, #0
    4c44:	0a000002 	beq	4c54 <handleGetNetIfList+0x574>
    4c48:	e5940000 	ldr	r0, [r4]
    4c4c:	e3500006 	cmp	r0, #6
    4c50:	da00000b 	ble	4c84 <handleGetNetIfList+0x5a4>
    4c54:	e59d1030 	ldr	r1, [sp, #48]	@ 0x30
    4c58:	e59fa828 	ldr	sl, [pc, #2088]	@ 5488 <handleGetNetIfList+0xda8>
    4c5c:	e7970001 	ldr	r0, [r7, r1]
    4c60:	eb000642 	bl	6570 <get_preferred_if_addr>
    4c64:	e59f2870 	ldr	r2, [pc, #2160]	@ 54dc <handleGetNetIfList+0xdfc>
    4c68:	e087c00a 	add	ip, r7, sl
    4c6c:	e3a01007 	mov	r1, #7
    4c70:	e0872002 	add	r2, r7, r2
    4c74:	e28c3fa5 	add	r3, ip, #660	@ 0x294
    4c78:	e58d0000 	str	r0, [sp]
    4c7c:	e1a00004 	mov	r0, r4
    4c80:	ebfff36d 	bl	1a3c <PmLogPrint_@plt>
    4c84:	e59de030 	ldr	lr, [sp, #48]	@ 0x30
    4c88:	e59f4850 	ldr	r4, [pc, #2128]	@ 54e0 <handleGetNetIfList+0xe00>
    4c8c:	e797a00e 	ldr	sl, [r7, lr]
    4c90:	e1a0000a 	mov	r0, sl
    4c94:	eb000635 	bl	6570 <get_preferred_if_addr>
    4c98:	e0871004 	add	r1, r7, r4
    4c9c:	e1a02000 	mov	r2, r0
    4ca0:	e59d0054 	ldr	r0, [sp, #84]	@ 0x54
    4ca4:	ebfff6a0 	bl	272c <write_vpnc_config>
    4ca8:	e3a00000 	mov	r0, #0
    4cac:	ebfff31a 	bl	191c <g_string_new@plt>
    4cb0:	e58d0048 	str	r0, [sp, #72]	@ 0x48
    4cb4:	e3a00000 	mov	r0, #0
    4cb8:	ebfff317 	bl	191c <g_string_new@plt>
    4cbc:	e58d004c 	str	r0, [sp, #76]	@ 0x4c
    4cc0:	e3a00000 	mov	r0, #0
    4cc4:	ebfff314 	bl	191c <g_string_new@plt>
    4cc8:	e58d0050 	str	r0, [sp, #80]	@ 0x50
    4ccc:	e1a0000a 	mov	r0, sl
    4cd0:	eb00061e 	bl	6550 <get_profile>
    4cd4:	e2504000 	subs	r4, r0, #0
    4cd8:	0a000013 	beq	4d2c <handleGetNetIfList+0x64c>
    4cdc:	ebfff335 	bl	19b8 <json_tokener_parse@plt>
    4ce0:	e3700efa 	cmn	r0, #4000	@ 0xfa0
    4ce4:	e1a08000 	mov	r8, r0
    4ce8:	9a000080 	bls	4ef0 <handleGetNetIfList+0x810>
    4cec:	e59d002c 	ldr	r0, [sp, #44]	@ 0x2c
    4cf0:	e797e000 	ldr	lr, [r7, r0]
    4cf4:	e59e0000 	ldr	r0, [lr]
    4cf8:	e3500000 	cmp	r0, #0
    4cfc:	0a000002 	beq	4d0c <handleGetNetIfList+0x62c>
    4d00:	e5903000 	ldr	r3, [r0]
    4d04:	e3530002 	cmp	r3, #2
    4d08:	da000007 	ble	4d2c <handleGetNetIfList+0x64c>
    4d0c:	e59fe774 	ldr	lr, [pc, #1908]	@ 5488 <handleGetNetIfList+0xda8>
    4d10:	e3a01003 	mov	r1, #3
    4d14:	e59f27c8 	ldr	r2, [pc, #1992]	@ 54e4 <handleGetNetIfList+0xe04>
    4d18:	e087c00e 	add	ip, r7, lr
    4d1c:	e58d4000 	str	r4, [sp]
    4d20:	e0872002 	add	r2, r7, r2
    4d24:	e28c3e2b 	add	r3, ip, #688	@ 0x2b0
    4d28:	ebfff343 	bl	1a3c <PmLogPrint_@plt>
    4d2c:	e59d3048 	ldr	r3, [sp, #72]	@ 0x48
    4d30:	e3530000 	cmp	r3, #0
    4d34:	0a000002 	beq	4d44 <handleGetNetIfList+0x664>
    4d38:	e1a00003 	mov	r0, r3
    4d3c:	e3a01001 	mov	r1, #1
    4d40:	ebfff316 	bl	19a0 <g_string_free@plt>
    4d44:	e59dc04c 	ldr	ip, [sp, #76]	@ 0x4c
    4d48:	e35c0000 	cmp	ip, #0
    4d4c:	0a000002 	beq	4d5c <handleGetNetIfList+0x67c>
    4d50:	e1a0000c 	mov	r0, ip
    4d54:	e3a01001 	mov	r1, #1
    4d58:	ebfff310 	bl	19a0 <g_string_free@plt>
    4d5c:	e59d1050 	ldr	r1, [sp, #80]	@ 0x50
    4d60:	e3510000 	cmp	r1, #0
    4d64:	0a000002 	beq	4d74 <handleGetNetIfList+0x694>
    4d68:	e1a00001 	mov	r0, r1
    4d6c:	e3a01001 	mov	r1, #1
    4d70:	ebfff30a 	bl	19a0 <g_string_free@plt>
    4d74:	e59d3030 	ldr	r3, [sp, #48]	@ 0x30
    4d78:	e3a02002 	mov	r2, #2
    4d7c:	e3a01000 	mov	r1, #0
    4d80:	e7974003 	ldr	r4, [r7, r3]
    4d84:	e2840010 	add	r0, r4, #16
    4d88:	e584200c 	str	r2, [r4, #12]
    4d8c:	ebfff2fa 	bl	197c <gettimeofday@plt>
    4d90:	e1a00004 	mov	r0, r4
    4d94:	ebfff746 	bl	2ab4 <notify_connection_state>
    4d98:	e5940038 	ldr	r0, [r4, #56]	@ 0x38
    4d9c:	e28dd064 	add	sp, sp, #100	@ 0x64
    4da0:	e8bd4ff0 	pop	{r4, r5, r6, r7, r8, r9, sl, fp, lr}
    4da4:	eafff339 	b	1a90 <close@plt>
    4da8:	e59d402c 	ldr	r4, [sp, #44]	@ 0x2c
    4dac:	e7975004 	ldr	r5, [r7, r4]
    4db0:	e5954000 	ldr	r4, [r5]
    4db4:	e3540000 	cmp	r4, #0
    4db8:	0a00001d 	beq	4e34 <handleGetNetIfList+0x754>
    4dbc:	e5940000 	ldr	r0, [r4]
    4dc0:	e3500006 	cmp	r0, #6
    4dc4:	ca00001a 	bgt	4e34 <handleGetNetIfList+0x754>
    4dc8:	e59f5718 	ldr	r5, [pc, #1816]	@ 54e8 <handleGetNetIfList+0xe08>
    4dcc:	e0870005 	add	r0, r7, r5
    4dd0:	ebfff322 	bl	1a60 <g_getenv@plt>
    4dd4:	e59f16f4 	ldr	r1, [pc, #1780]	@ 54d0 <handleGetNetIfList+0xdf0>
    4dd8:	e0871001 	add	r1, r7, r1
    4ddc:	e1a02000 	mov	r2, r0
    4de0:	e59d0054 	ldr	r0, [sp, #84]	@ 0x54
    4de4:	ebfff650 	bl	272c <write_vpnc_config>
    4de8:	eaffff8b 	b	4c1c <handleGetNetIfList+0x53c>
    4dec:	e59d0040 	ldr	r0, [sp, #64]	@ 0x40
    4df0:	ebfff27e 	bl	17f0 <g_free@plt>
    4df4:	e1a0000b 	mov	r0, fp
    4df8:	ebfff27c 	bl	17f0 <g_free@plt>
    4dfc:	e59fc680 	ldr	ip, [pc, #1664]	@ 5484 <handleGetNetIfList+0xda4>
    4e00:	e087400c 	add	r4, r7, ip
    4e04:	eafffe50 	b	474c <handleGetNetIfList+0x6c>
    4e08:	e59fc678 	ldr	ip, [pc, #1656]	@ 5488 <handleGetNetIfList+0xda8>
    4e0c:	e3a01007 	mov	r1, #7
    4e10:	e59f26d4 	ldr	r2, [pc, #1748]	@ 54ec <handleGetNetIfList+0xe0c>
    4e14:	e087300c 	add	r3, r7, ip
    4e18:	e59f46ac 	ldr	r4, [pc, #1708]	@ 54cc <handleGetNetIfList+0xdec>
    4e1c:	e0872002 	add	r2, r7, r2
    4e20:	e2833fa5 	add	r3, r3, #660	@ 0x294
    4e24:	e087e004 	add	lr, r7, r4
    4e28:	e58de000 	str	lr, [sp]
    4e2c:	ebfff302 	bl	1a3c <PmLogPrint_@plt>
    4e30:	eaffff74 	b	4c08 <handleGetNetIfList+0x528>
    4e34:	e59f56ac 	ldr	r5, [pc, #1708]	@ 54e8 <handleGetNetIfList+0xe08>
    4e38:	e0870005 	add	r0, r7, r5
    4e3c:	ebfff307 	bl	1a60 <g_getenv@plt>
    4e40:	e59fc640 	ldr	ip, [pc, #1600]	@ 5488 <handleGetNetIfList+0xda8>
    4e44:	e59f26a0 	ldr	r2, [pc, #1696]	@ 54ec <handleGetNetIfList+0xe0c>
    4e48:	e3a01007 	mov	r1, #7
    4e4c:	e087300c 	add	r3, r7, ip
    4e50:	e0872002 	add	r2, r7, r2
    4e54:	e2833fa5 	add	r3, r3, #660	@ 0x294
    4e58:	e58d0000 	str	r0, [sp]
    4e5c:	e1a00004 	mov	r0, r4
    4e60:	ebfff2f5 	bl	1a3c <PmLogPrint_@plt>
    4e64:	eaffffd8 	b	4dcc <handleGetNetIfList+0x6ec>
    4e68:	e59d1014 	ldr	r1, [sp, #20]
    4e6c:	e1a00006 	mov	r0, r6
    4e70:	ebfff30c 	bl	1aa8 <json_object_object_get@plt>
    4e74:	e59fb634 	ldr	fp, [pc, #1588]	@ 54b0 <handleGetNetIfList+0xdd0>
    4e78:	ebfff2a4 	bl	1910 <json_object_get_string@plt>
    4e7c:	e087100b 	add	r1, r7, fp
    4e80:	e1a08000 	mov	r8, r0
    4e84:	e1a00006 	mov	r0, r6
    4e88:	ebfff306 	bl	1aa8 <json_object_object_get@plt>
    4e8c:	ebfff29f 	bl	1910 <json_object_get_string@plt>
    4e90:	e1a04000 	mov	r4, r0
    4e94:	e1a00006 	mov	r0, r6
    4e98:	e59f6614 	ldr	r6, [pc, #1556]	@ 54b4 <handleGetNetIfList+0xdd4>
    4e9c:	e0871006 	add	r1, r7, r6
    4ea0:	ebfff300 	bl	1aa8 <json_object_object_get@plt>
    4ea4:	ebfff2d2 	bl	19f4 <json_object_get_int@plt>
    4ea8:	e59da02c 	ldr	sl, [sp, #44]	@ 0x2c
    4eac:	e797900a 	ldr	r9, [r7, sl]
    4eb0:	e1a06000 	mov	r6, r0
    4eb4:	e5990000 	ldr	r0, [r9]
    4eb8:	e3500000 	cmp	r0, #0
    4ebc:	0a000002 	beq	4ecc <handleGetNetIfList+0x7ec>
    4ec0:	e5901000 	ldr	r1, [r0]
    4ec4:	e3510006 	cmp	r1, #6
    4ec8:	dafffe85 	ble	48e4 <handleGetNetIfList+0x204>
    4ecc:	e59fe5e4 	ldr	lr, [pc, #1508]	@ 54b8 <handleGetNetIfList+0xdd8>
    4ed0:	e3a01007 	mov	r1, #7
    4ed4:	e59d3010 	ldr	r3, [sp, #16]
    4ed8:	e087200e 	add	r2, r7, lr
    4edc:	e88d0120 	stm	sp, {r5, r8}
    4ee0:	e58d4008 	str	r4, [sp, #8]
    4ee4:	e58d600c 	str	r6, [sp, #12]
    4ee8:	ebfff2d3 	bl	1a3c <PmLogPrint_@plt>
    4eec:	eafffe7c 	b	48e4 <handleGetNetIfList+0x204>
    4ef0:	e59f65f8 	ldr	r6, [pc, #1528]	@ 54f0 <handleGetNetIfList+0xe10>
    4ef4:	e59f55f8 	ldr	r5, [pc, #1528]	@ 54f4 <handleGetNetIfList+0xe14>
    4ef8:	e0871006 	add	r1, r7, r6
    4efc:	ebfff2e9 	bl	1aa8 <json_object_object_get@plt>
    4f00:	ebfff282 	bl	1910 <json_object_get_string@plt>
    4f04:	e59f15ec 	ldr	r1, [pc, #1516]	@ 54f8 <handleGetNetIfList+0xe18>
    4f08:	e0871001 	add	r1, r7, r1
    4f0c:	e1a06000 	mov	r6, r0
    4f10:	e1a00008 	mov	r0, r8
    4f14:	ebfff2e3 	bl	1aa8 <json_object_object_get@plt>
    4f18:	e0871005 	add	r1, r7, r5
    4f1c:	e1a04000 	mov	r4, r0
    4f20:	ebfff2e0 	bl	1aa8 <json_object_object_get@plt>
    4f24:	ebfff279 	bl	1910 <json_object_get_string@plt>
    4f28:	e59f25cc 	ldr	r2, [pc, #1484]	@ 54fc <handleGetNetIfList+0xe1c>
    4f2c:	e0871002 	add	r1, r7, r2
    4f30:	e1a05000 	mov	r5, r0
    4f34:	e1a00004 	mov	r0, r4
    4f38:	ebfff2da 	bl	1aa8 <json_object_object_get@plt>
    4f3c:	ebfff324 	bl	1bd4 <json_object_to_json_string@plt>
    4f40:	e1a01006 	mov	r1, r6
    4f44:	e1a04000 	mov	r4, r0
    4f48:	e59d0048 	ldr	r0, [sp, #72]	@ 0x48
    4f4c:	ebfff2c9 	bl	1a78 <g_string_assign@plt>
    4f50:	e1a01005 	mov	r1, r5
    4f54:	e59d004c 	ldr	r0, [sp, #76]	@ 0x4c
    4f58:	ebfff2c6 	bl	1a78 <g_string_assign@plt>
    4f5c:	e1a01004 	mov	r1, r4
    4f60:	e59d0050 	ldr	r0, [sp, #80]	@ 0x50
    4f64:	ebfff2c3 	bl	1a78 <g_string_assign@plt>
    4f68:	e1a00008 	mov	r0, r8
    4f6c:	ebfff30f 	bl	1bb0 <json_object_put@plt>
    4f70:	e59dc04c 	ldr	ip, [sp, #76]	@ 0x4c
    4f74:	e59c0000 	ldr	r0, [ip]
    4f78:	ebfff240 	bl	1880 <g_strdup@plt>
    4f7c:	e59d302c 	ldr	r3, [sp, #44]	@ 0x2c
    4f80:	e7978003 	ldr	r8, [r7, r3]
    4f84:	e5982000 	ldr	r2, [r8]
    4f88:	e3520000 	cmp	r2, #0
    4f8c:	e58a0020 	str	r0, [sl, #32]
    4f90:	0a000002 	beq	4fa0 <handleGetNetIfList+0x8c0>
    4f94:	e5928000 	ldr	r8, [r2]
    4f98:	e3580006 	cmp	r8, #6
    4f9c:	da00000a 	ble	4fcc <handleGetNetIfList+0x8ec>
    4fa0:	e59de04c 	ldr	lr, [sp, #76]	@ 0x4c
    4fa4:	e1a00002 	mov	r0, r2
    4fa8:	e59f24d8 	ldr	r2, [pc, #1240]	@ 5488 <handleGetNetIfList+0xda8>
    4fac:	e3a01007 	mov	r1, #7
    4fb0:	e59fc548 	ldr	ip, [pc, #1352]	@ 5500 <handleGetNetIfList+0xe20>
    4fb4:	e59e4000 	ldr	r4, [lr]
    4fb8:	e0873002 	add	r3, r7, r2
    4fbc:	e2833fa5 	add	r3, r3, #660	@ 0x294
    4fc0:	e087200c 	add	r2, r7, ip
    4fc4:	e58d4000 	str	r4, [sp]
    4fc8:	ebfff29b 	bl	1a3c <PmLogPrint_@plt>
    4fcc:	e59d404c 	ldr	r4, [sp, #76]	@ 0x4c
    4fd0:	e59f852c 	ldr	r8, [pc, #1324]	@ 5504 <handleGetNetIfList+0xe24>
    4fd4:	e59d0054 	ldr	r0, [sp, #84]	@ 0x54
    4fd8:	e0871008 	add	r1, r7, r8
    4fdc:	e5942000 	ldr	r2, [r4]
    4fe0:	ebfff5d1 	bl	272c <write_vpnc_config>
    4fe4:	e59d1050 	ldr	r1, [sp, #80]	@ 0x50
    4fe8:	e5910000 	ldr	r0, [r1]
    4fec:	ebfff271 	bl	19b8 <json_tokener_parse@plt>
    4ff0:	e3700efa 	cmn	r0, #4000	@ 0xfa0
    4ff4:	e1a08000 	mov	r8, r0
    4ff8:	8affff4b 	bhi	4d2c <handleGetNetIfList+0x64c>
    4ffc:	e59fa504 	ldr	sl, [pc, #1284]	@ 5508 <handleGetNetIfList+0xe28>
    5000:	e3a03000 	mov	r3, #0
    5004:	e59fb47c 	ldr	fp, [pc, #1148]	@ 5488 <handleGetNetIfList+0xda8>
    5008:	e59fe4fc 	ldr	lr, [pc, #1276]	@ 550c <handleGetNetIfList+0xe2c>
    500c:	e59f24fc 	ldr	r2, [pc, #1276]	@ 5510 <handleGetNetIfList+0xe30>
    5010:	e087600b 	add	r6, r7, fp
    5014:	e58da028 	str	sl, [sp, #40]	@ 0x28
    5018:	e2869fa5 	add	r9, r6, #660	@ 0x294
    501c:	e797b00a 	ldr	fp, [r7, sl]
    5020:	e087a00e 	add	sl, r7, lr
    5024:	e59fc4e8 	ldr	ip, [pc, #1256]	@ 5514 <handleGetNetIfList+0xe34>
    5028:	e58d3058 	str	r3, [sp, #88]	@ 0x58
    502c:	e087000c 	add	r0, r7, ip
    5030:	e58d305c 	str	r3, [sp, #92]	@ 0x5c
    5034:	e58d2034 	str	r2, [sp, #52]	@ 0x34
    5038:	e58d0024 	str	r0, [sp, #36]	@ 0x24
    503c:	e58d9020 	str	r9, [sp, #32]
    5040:	e1a00008 	mov	r0, r8
    5044:	e59b6000 	ldr	r6, [fp]
    5048:	ebfff1ee 	bl	1808 <json_object_array_length@plt>
    504c:	e2509000 	subs	r9, r0, #0
    5050:	da00003a 	ble	5140 <handleGetNetIfList+0xa60>
    5054:	e3190001 	tst	r9, #1
    5058:	e3a04000 	mov	r4, #0
    505c:	1a000011 	bne	50a8 <handleGetNetIfList+0x9c8>
    5060:	e1a01004 	mov	r1, r4
    5064:	e1a00008 	mov	r0, r8
    5068:	ebfff222 	bl	18f8 <json_object_array_get_idx@plt>
    506c:	e1a0100a 	mov	r1, sl
    5070:	e1a04000 	mov	r4, r0
    5074:	ebfff28b 	bl	1aa8 <json_object_object_get@plt>
    5078:	e3500000 	cmp	r0, #0
    507c:	0a000005 	beq	5098 <handleGetNetIfList+0x9b8>
    5080:	ebfff222 	bl	1910 <json_object_get_string@plt>
    5084:	e1a01000 	mov	r1, r0
    5088:	e1a00006 	mov	r0, r6
    508c:	ebfff2be 	bl	1b8c <strcmp@plt>
    5090:	e3500000 	cmp	r0, #0
    5094:	0a00006e 	beq	5254 <handleGetNetIfList+0xb74>
    5098:	e3a03000 	mov	r3, #0
    509c:	e3530000 	cmp	r3, #0
    50a0:	e3a04001 	mov	r4, #1
    50a4:	1a000025 	bne	5140 <handleGetNetIfList+0xa60>
    50a8:	e1a01004 	mov	r1, r4
    50ac:	e1a00008 	mov	r0, r8
    50b0:	ebfff210 	bl	18f8 <json_object_array_get_idx@plt>
    50b4:	e1a0100a 	mov	r1, sl
    50b8:	e1a05000 	mov	r5, r0
    50bc:	ebfff279 	bl	1aa8 <json_object_object_get@plt>
    50c0:	e3500000 	cmp	r0, #0
    50c4:	0a000005 	beq	50e0 <handleGetNetIfList+0xa00>
    50c8:	ebfff210 	bl	1910 <json_object_get_string@plt>
    50cc:	e1a01000 	mov	r1, r0
    50d0:	e1a00006 	mov	r0, r6
    50d4:	ebfff2ac 	bl	1b8c <strcmp@plt>
    50d8:	e3500000 	cmp	r0, #0
    50dc:	0a000049 	beq	5208 <handleGetNetIfList+0xb28>
    50e0:	e3a03000 	mov	r3, #0
    50e4:	e2844001 	add	r4, r4, #1
    50e8:	e1590004 	cmp	r9, r4
    50ec:	da000013 	ble	5140 <handleGetNetIfList+0xa60>
    50f0:	e3530000 	cmp	r3, #0
    50f4:	1a000011 	bne	5140 <handleGetNetIfList+0xa60>
    50f8:	e1a01004 	mov	r1, r4
    50fc:	e1a00008 	mov	r0, r8
    5100:	ebfff1fc 	bl	18f8 <json_object_array_get_idx@plt>
    5104:	e1a0100a 	mov	r1, sl
    5108:	e1a05000 	mov	r5, r0
    510c:	ebfff265 	bl	1aa8 <json_object_object_get@plt>
    5110:	e3500000 	cmp	r0, #0
    5114:	0a000005 	beq	5130 <handleGetNetIfList+0xa50>
    5118:	ebfff1fc 	bl	1910 <json_object_get_string@plt>
    511c:	e1a01000 	mov	r1, r0
    5120:	e1a00006 	mov	r0, r6
    5124:	ebfff298 	bl	1b8c <strcmp@plt>
    5128:	e3500000 	cmp	r0, #0
    512c:	0a00003e 	beq	522c <handleGetNetIfList+0xb4c>
    5130:	e3a03000 	mov	r3, #0
    5134:	e3530000 	cmp	r3, #0
    5138:	e2844001 	add	r4, r4, #1
    513c:	0affffd9 	beq	50a8 <handleGetNetIfList+0x9c8>
    5140:	e59b400c 	ldr	r4, [fp, #12]
    5144:	e59d0034 	ldr	r0, [sp, #52]	@ 0x34
    5148:	e0871000 	add	r1, r7, r0
    514c:	e1a00004 	mov	r0, r4
    5150:	ebfff28d 	bl	1b8c <strcmp@plt>
    5154:	e3500000 	cmp	r0, #0
    5158:	1a000047 	bne	527c <handleGetNetIfList+0xb9c>
    515c:	e59d305c 	ldr	r3, [sp, #92]	@ 0x5c
    5160:	e3530000 	cmp	r3, #0
    5164:	0a000020 	beq	51ec <handleGetNetIfList+0xb0c>
    5168:	e5d3c000 	ldrb	ip, [r3]
    516c:	e35c0000 	cmp	ip, #0
    5170:	0a00001d 	beq	51ec <handleGetNetIfList+0xb0c>
    5174:	e59d502c 	ldr	r5, [sp, #44]	@ 0x2c
    5178:	e7972005 	ldr	r2, [r7, r5]
    517c:	e5925000 	ldr	r5, [r2]
    5180:	e3550000 	cmp	r5, #0
    5184:	0a000002 	beq	5194 <handleGetNetIfList+0xab4>
    5188:	e595e000 	ldr	lr, [r5]
    518c:	e35e0006 	cmp	lr, #6
    5190:	da00000f 	ble	51d4 <handleGetNetIfList+0xaf4>
    5194:	e59f337c 	ldr	r3, [pc, #892]	@ 5518 <handleGetNetIfList+0xe38>
    5198:	e1a00004 	mov	r0, r4
    519c:	e59b403c 	ldr	r4, [fp, #60]	@ 0x3c
    51a0:	e0871003 	add	r1, r7, r3
    51a4:	ebfff278 	bl	1b8c <strcmp@plt>
    51a8:	e3500000 	cmp	r0, #0
    51ac:	1a0000a8 	bne	5454 <handleGetNetIfList+0xd74>
    51b0:	e59f0364 	ldr	r0, [pc, #868]	@ 551c <handleGetNetIfList+0xe3c>
    51b4:	e087c000 	add	ip, r7, r0
    51b8:	e59f2360 	ldr	r2, [pc, #864]	@ 5520 <handleGetNetIfList+0xe40>
    51bc:	e1a00005 	mov	r0, r5
    51c0:	e3a01007 	mov	r1, #7
    51c4:	e59d3020 	ldr	r3, [sp, #32]
    51c8:	e0872002 	add	r2, r7, r2
    51cc:	e88d1010 	stm	sp, {r4, ip}
    51d0:	ebfff219 	bl	1a3c <PmLogPrint_@plt>
    51d4:	e59f4348 	ldr	r4, [pc, #840]	@ 5524 <handleGetNetIfList+0xe44>
    51d8:	e59d0054 	ldr	r0, [sp, #84]	@ 0x54
    51dc:	e59b203c 	ldr	r2, [fp, #60]	@ 0x3c
    51e0:	e0871004 	add	r1, r7, r4
    51e4:	e59d305c 	ldr	r3, [sp, #92]	@ 0x5c
    51e8:	ebfff54f 	bl	272c <write_vpnc_config>
    51ec:	e59d3058 	ldr	r3, [sp, #88]	@ 0x58
    51f0:	e28bb044 	add	fp, fp, #68	@ 0x44
    51f4:	e2831001 	add	r1, r3, #1
    51f8:	e58d1058 	str	r1, [sp, #88]	@ 0x58
    51fc:	e3510008 	cmp	r1, #8
    5200:	1affff8e 	bne	5040 <handleGetNetIfList+0x960>
    5204:	eafffec8 	b	4d2c <handleGetNetIfList+0x64c>
    5208:	e1a00005 	mov	r0, r5
    520c:	e59d1024 	ldr	r1, [sp, #36]	@ 0x24
    5210:	ebfff224 	bl	1aa8 <json_object_object_get@plt>
    5214:	e3500000 	cmp	r0, #0
    5218:	0a000001 	beq	5224 <handleGetNetIfList+0xb44>
    521c:	ebfff1bb 	bl	1910 <json_object_get_string@plt>
    5220:	e58d005c 	str	r0, [sp, #92]	@ 0x5c
    5224:	e3a03001 	mov	r3, #1
    5228:	eaffffad 	b	50e4 <handleGetNetIfList+0xa04>
    522c:	e1a00005 	mov	r0, r5
    5230:	e59d1024 	ldr	r1, [sp, #36]	@ 0x24
    5234:	ebfff21b 	bl	1aa8 <json_object_object_get@plt>
    5238:	e3500000 	cmp	r0, #0
    523c:	03a03001 	moveq	r3, #1
    5240:	0affffbb 	beq	5134 <handleGetNetIfList+0xa54>
    5244:	ebfff1b1 	bl	1910 <json_object_get_string@plt>
    5248:	e3a03001 	mov	r3, #1
    524c:	e58d005c 	str	r0, [sp, #92]	@ 0x5c
    5250:	eaffffb7 	b	5134 <handleGetNetIfList+0xa54>
    5254:	e1a00004 	mov	r0, r4
    5258:	e59d1024 	ldr	r1, [sp, #36]	@ 0x24
    525c:	ebfff211 	bl	1aa8 <json_object_object_get@plt>
    5260:	e3500000 	cmp	r0, #0
    5264:	03a03001 	moveq	r3, #1
    5268:	0affff8b 	beq	509c <handleGetNetIfList+0x9bc>
    526c:	ebfff1a7 	bl	1910 <json_object_get_string@plt>
    5270:	e3a03001 	mov	r3, #1
    5274:	e58d005c 	str	r0, [sp, #92]	@ 0x5c
    5278:	eaffff87 	b	509c <handleGetNetIfList+0x9bc>
    527c:	e59f1294 	ldr	r1, [pc, #660]	@ 5518 <handleGetNetIfList+0xe38>
    5280:	e1a00004 	mov	r0, r4
    5284:	e0871001 	add	r1, r7, r1
    5288:	ebfff23f 	bl	1b8c <strcmp@plt>
    528c:	e3500000 	cmp	r0, #0
    5290:	0affffb1 	beq	515c <handleGetNetIfList+0xa7c>
    5294:	e59dc05c 	ldr	ip, [sp, #92]	@ 0x5c
    5298:	e35c0000 	cmp	ip, #0
    529c:	0a00006a 	beq	544c <handleGetNetIfList+0xd6c>
    52a0:	e59d2058 	ldr	r2, [sp, #88]	@ 0x58
    52a4:	e59d1028 	ldr	r1, [sp, #40]	@ 0x28
    52a8:	e59d0058 	ldr	r0, [sp, #88]	@ 0x58
    52ac:	e1a05202 	lsl	r5, r2, #4
    52b0:	e797e001 	ldr	lr, [r7, r1]
    52b4:	e0853000 	add	r3, r5, r0
    52b8:	e08e4103 	add	r4, lr, r3, lsl #2
    52bc:	e5941014 	ldr	r1, [r4, #20]
    52c0:	e3510000 	cmp	r1, #0
    52c4:	0a000004 	beq	52dc <handleGetNetIfList+0xbfc>
    52c8:	e59d005c 	ldr	r0, [sp, #92]	@ 0x5c
    52cc:	ebfff22e 	bl	1b8c <strcmp@plt>
    52d0:	e3500000 	cmp	r0, #0
    52d4:	05942028 	ldreq	r2, [r4, #40]	@ 0x28
    52d8:	0a00003f 	beq	53dc <handleGetNetIfList+0xcfc>
    52dc:	e59d405c 	ldr	r4, [sp, #92]	@ 0x5c
    52e0:	e3540000 	cmp	r4, #0
    52e4:	0a000058 	beq	544c <handleGetNetIfList+0xd6c>
    52e8:	e59d0028 	ldr	r0, [sp, #40]	@ 0x28
    52ec:	e59dc058 	ldr	ip, [sp, #88]	@ 0x58
    52f0:	e797e000 	ldr	lr, [r7, r0]
    52f4:	e085300c 	add	r3, r5, ip
    52f8:	e08e4103 	add	r4, lr, r3, lsl #2
    52fc:	e5941018 	ldr	r1, [r4, #24]
    5300:	e3510000 	cmp	r1, #0
    5304:	0a000004 	beq	531c <handleGetNetIfList+0xc3c>
    5308:	e59d005c 	ldr	r0, [sp, #92]	@ 0x5c
    530c:	ebfff21e 	bl	1b8c <strcmp@plt>
    5310:	e3500000 	cmp	r0, #0
    5314:	0594202c 	ldreq	r2, [r4, #44]	@ 0x2c
    5318:	0a00002f 	beq	53dc <handleGetNetIfList+0xcfc>
    531c:	e59d105c 	ldr	r1, [sp, #92]	@ 0x5c
    5320:	e3510000 	cmp	r1, #0
    5324:	0a000048 	beq	544c <handleGetNetIfList+0xd6c>
    5328:	e59d3028 	ldr	r3, [sp, #40]	@ 0x28
    532c:	e59d4058 	ldr	r4, [sp, #88]	@ 0x58
    5330:	e7972003 	ldr	r2, [r7, r3]
    5334:	e085e004 	add	lr, r5, r4
    5338:	e082410e 	add	r4, r2, lr, lsl #2
    533c:	e594101c 	ldr	r1, [r4, #28]
    5340:	e3510000 	cmp	r1, #0
    5344:	0a000004 	beq	535c <handleGetNetIfList+0xc7c>
    5348:	e59d005c 	ldr	r0, [sp, #92]	@ 0x5c
    534c:	ebfff20e 	bl	1b8c <strcmp@plt>
    5350:	e3500000 	cmp	r0, #0
    5354:	05942030 	ldreq	r2, [r4, #48]	@ 0x30
    5358:	0a00001f 	beq	53dc <handleGetNetIfList+0xcfc>
    535c:	e59dc05c 	ldr	ip, [sp, #92]	@ 0x5c
    5360:	e35c0000 	cmp	ip, #0
    5364:	0a000038 	beq	544c <handleGetNetIfList+0xd6c>
    5368:	e59de028 	ldr	lr, [sp, #40]	@ 0x28
    536c:	e59d2058 	ldr	r2, [sp, #88]	@ 0x58
    5370:	e797000e 	ldr	r0, [r7, lr]
    5374:	e0851002 	add	r1, r5, r2
    5378:	e0804101 	add	r4, r0, r1, lsl #2
    537c:	e5941020 	ldr	r1, [r4, #32]
    5380:	e3510000 	cmp	r1, #0
    5384:	0a000004 	beq	539c <handleGetNetIfList+0xcbc>
    5388:	e59d005c 	ldr	r0, [sp, #92]	@ 0x5c
    538c:	ebfff1fe 	bl	1b8c <strcmp@plt>
    5390:	e3500000 	cmp	r0, #0
    5394:	05942034 	ldreq	r2, [r4, #52]	@ 0x34
    5398:	0a00000f 	beq	53dc <handleGetNetIfList+0xcfc>
    539c:	e59d405c 	ldr	r4, [sp, #92]	@ 0x5c
    53a0:	e3540000 	cmp	r4, #0
    53a4:	0a000028 	beq	544c <handleGetNetIfList+0xd6c>
    53a8:	e59dc028 	ldr	ip, [sp, #40]	@ 0x28
    53ac:	e59d1058 	ldr	r1, [sp, #88]	@ 0x58
    53b0:	e797300c 	ldr	r3, [r7, ip]
    53b4:	e0850001 	add	r0, r5, r1
    53b8:	e0834100 	add	r4, r3, r0, lsl #2
    53bc:	e5941024 	ldr	r1, [r4, #36]	@ 0x24
    53c0:	e3510000 	cmp	r1, #0
    53c4:	0a000020 	beq	544c <handleGetNetIfList+0xd6c>
    53c8:	e59d005c 	ldr	r0, [sp, #92]	@ 0x5c
    53cc:	ebfff1ee 	bl	1b8c <strcmp@plt>
    53d0:	e3500000 	cmp	r0, #0
    53d4:	05942038 	ldreq	r2, [r4, #56]	@ 0x38
    53d8:	1a00001b 	bne	544c <handleGetNetIfList+0xd6c>
    53dc:	e2524000 	subs	r4, r2, #0
    53e0:	0a00001e 	beq	5460 <handleGetNetIfList+0xd80>
    53e4:	e5d2e000 	ldrb	lr, [r2]
    53e8:	e35e0000 	cmp	lr, #0
    53ec:	0a00001b 	beq	5460 <handleGetNetIfList+0xd80>
    53f0:	e59d002c 	ldr	r0, [sp, #44]	@ 0x2c
    53f4:	e7973000 	ldr	r3, [r7, r0]
    53f8:	e5930000 	ldr	r0, [r3]
    53fc:	e3500000 	cmp	r0, #0
    5400:	0a000002 	beq	5410 <handleGetNetIfList+0xd30>
    5404:	e590c000 	ldr	ip, [r0]
    5408:	e35c0006 	cmp	ip, #6
    540c:	da000007 	ble	5430 <handleGetNetIfList+0xd50>
    5410:	e59be03c 	ldr	lr, [fp, #60]	@ 0x3c
    5414:	e3a01007 	mov	r1, #7
    5418:	e59f2100 	ldr	r2, [pc, #256]	@ 5520 <handleGetNetIfList+0xe40>
    541c:	e59d3020 	ldr	r3, [sp, #32]
    5420:	e0872002 	add	r2, r7, r2
    5424:	e58d4004 	str	r4, [sp, #4]
    5428:	e58de000 	str	lr, [sp]
    542c:	ebfff182 	bl	1a3c <PmLogPrint_@plt>
    5430:	e1a03004 	mov	r3, r4
    5434:	e59f40e8 	ldr	r4, [pc, #232]	@ 5524 <handleGetNetIfList+0xe44>
    5438:	e59d0054 	ldr	r0, [sp, #84]	@ 0x54
    543c:	e59b203c 	ldr	r2, [fp, #60]	@ 0x3c
    5440:	e0871004 	add	r1, r7, r4
    5444:	ebfff4b8 	bl	272c <write_vpnc_config>
    5448:	eaffff67 	b	51ec <handleGetNetIfList+0xb0c>
    544c:	e3a02000 	mov	r2, #0
    5450:	eaffffe1 	b	53dc <handleGetNetIfList+0xcfc>
    5454:	e59f10cc 	ldr	r1, [pc, #204]	@ 5528 <handleGetNetIfList+0xe48>
    5458:	e087c001 	add	ip, r7, r1
    545c:	eaffff55 	b	51b8 <handleGetNetIfList+0xad8>
    5460:	e59b4040 	ldr	r4, [fp, #64]	@ 0x40
    5464:	e3540000 	cmp	r4, #0
    5468:	0affff5f 	beq	51ec <handleGetNetIfList+0xb0c>
    546c:	e5d42000 	ldrb	r2, [r4]
    5470:	e3520000 	cmp	r2, #0
    5474:	0affff5c 	beq	51ec <handleGetNetIfList+0xb0c>
    5478:	eaffffdc 	b	53f0 <handleGetNetIfList+0xd10>
    547c:	0000ea44 	.word	0x0000ea44
    5480:	00000190 	.word	0x00000190
    5484:	ffff66b0 	.word	0xffff66b0
    5488:	ffff5740 	.word	0xffff5740
    548c:	ffff5cb4 	.word	0xffff5cb4
    5490:	00000178 	.word	0x00000178
    5494:	ffff64ac 	.word	0xffff64ac
    5498:	ffff6480 	.word	0xffff6480
    549c:	ffff64bc 	.word	0xffff64bc
    54a0:	ffff64c8 	.word	0xffff64c8
    54a4:	ffff64e0 	.word	0xffff64e0
    54a8:	ffff5ee0 	.word	0xffff5ee0
    54ac:	ffff64d4 	.word	0xffff64d4
    54b0:	ffff64e8 	.word	0xffff64e8
    54b4:	ffff64ec 	.word	0xffff64ec
    54b8:	ffff64f8 	.word	0xffff64f8
    54bc:	ffff64a4 	.word	0xffff64a4
    54c0:	ffff6528 	.word	0xffff6528
    54c4:	ffff655c 	.word	0xffff655c
    54c8:	ffff6580 	.word	0xffff6580
    54cc:	ffff65d0 	.word	0xffff65d0
    54d0:	ffff65b0 	.word	0xffff65b0
    54d4:	ffff6604 	.word	0xffff6604
    54d8:	ffff6610 	.word	0xffff6610
    54dc:	ffff6620 	.word	0xffff6620
    54e0:	ffff6624 	.word	0xffff6624
    54e4:	ffff6634 	.word	0xffff6634
    54e8:	ffff65e4 	.word	0xffff65e4
    54ec:	ffff65ac 	.word	0xffff65ac
    54f0:	ffff5fc0 	.word	0xffff5fc0
    54f4:	ffff5ff8 	.word	0xffff5ff8
    54f8:	ffff5da0 	.word	0xffff5da0
    54fc:	ffff5dac 	.word	0xffff5dac
    5500:	ffff6660 	.word	0xffff6660
    5504:	ffff6678 	.word	0xffff6678
    5508:	00000188 	.word	0x00000188
    550c:	ffff5dbc 	.word	0xffff5dbc
    5510:	ffff60f8 	.word	0xffff60f8
    5514:	ffff5dc0 	.word	0xffff5dc0
    5518:	ffff6104 	.word	0xffff6104
    551c:	ffff668c 	.word	0xffff668c
    5520:	ffff66a4 	.word	0xffff66a4
    5524:	ffff66a8 	.word	0xffff66a8
    5528:	ffff6694 	.word	0xffff6694

0000552c <vpnc_workq_add>:
    552c:	e92d41f0 	push	{r4, r5, r6, r7, r8, lr}
    5530:	e1a05001 	mov	r5, r1
    5534:	e1a06002 	mov	r6, r2
    5538:	e1a07003 	mov	r7, r3
    553c:	e1a08000 	mov	r8, r0
    5540:	ebfff137 	bl	1a24 <g_idle_source_new@plt>
    5544:	e1a01005 	mov	r1, r5
    5548:	e1a02006 	mov	r2, r6
    554c:	e1a03007 	mov	r3, r7
    5550:	e1a04000 	mov	r4, r0
    5554:	ebfff0c0 	bl	185c <g_source_set_callback@plt>
    5558:	e1a00004 	mov	r0, r4
    555c:	e5981004 	ldr	r1, [r8, #4]
    5560:	e8bd41f0 	pop	{r4, r5, r6, r7, r8, lr}
    5564:	eafff167 	b	1b08 <g_source_attach@plt>

00005568 <vpnc_workq_destroy>:
    5568:	e92d4070 	push	{r4, r5, r6, lr}
    556c:	e5902000 	ldr	r2, [r0]
    5570:	e59f30dc 	ldr	r3, [pc, #220]	@ 5654 <vpnc_workq_destroy+0xec>
    5574:	e24dd008 	sub	sp, sp, #8
    5578:	e3520000 	cmp	r2, #0
    557c:	e1a05000 	mov	r5, r0
    5580:	e08f4003 	add	r4, pc, r3
    5584:	0a00002e 	beq	5644 <vpnc_workq_destroy+0xdc>
    5588:	e5920000 	ldr	r0, [r2]
    558c:	e3500000 	cmp	r0, #0
    5590:	0a00002d 	beq	564c <vpnc_workq_destroy+0xe4>
    5594:	e59f60bc 	ldr	r6, [pc, #188]	@ 5658 <vpnc_workq_destroy+0xf0>
    5598:	e7941006 	ldr	r1, [r4, r6]
    559c:	e5910000 	ldr	r0, [r1]
    55a0:	e3500000 	cmp	r0, #0
    55a4:	0a00001e 	beq	5624 <vpnc_workq_destroy+0xbc>
    55a8:	e590c000 	ldr	ip, [r0]
    55ac:	e35c0006 	cmp	ip, #6
    55b0:	ca00001b 	bgt	5624 <vpnc_workq_destroy+0xbc>
    55b4:	e5920008 	ldr	r0, [r2, #8]
    55b8:	ebfff098 	bl	1820 <g_main_loop_quit@plt>
    55bc:	e5953000 	ldr	r3, [r5]
    55c0:	e5930000 	ldr	r0, [r3]
    55c4:	ebfff17f 	bl	1bc8 <g_thread_join@plt>
    55c8:	e5952000 	ldr	r2, [r5]
    55cc:	e1a00002 	mov	r0, r2
    55d0:	ebfff0e3 	bl	1964 <free@plt>
    55d4:	e3a00000 	mov	r0, #0
    55d8:	e5850000 	str	r0, [r5]
    55dc:	e7941006 	ldr	r1, [r4, r6]
    55e0:	e5910000 	ldr	r0, [r1]
    55e4:	e3500000 	cmp	r0, #0
    55e8:	0a000002 	beq	55f8 <vpnc_workq_destroy+0x90>
    55ec:	e590c000 	ldr	ip, [r0]
    55f0:	e35c0006 	cmp	ip, #6
    55f4:	da000008 	ble	561c <vpnc_workq_destroy+0xb4>
    55f8:	e59f205c 	ldr	r2, [pc, #92]	@ 565c <vpnc_workq_destroy+0xf4>
    55fc:	e3a01007 	mov	r1, #7
    5600:	e59f3058 	ldr	r3, [pc, #88]	@ 5660 <vpnc_workq_destroy+0xf8>
    5604:	e59fc058 	ldr	ip, [pc, #88]	@ 5664 <vpnc_workq_destroy+0xfc>
    5608:	e0842002 	add	r2, r4, r2
    560c:	e0843003 	add	r3, r4, r3
    5610:	e084e00c 	add	lr, r4, ip
    5614:	e58de000 	str	lr, [sp]
    5618:	ebfff107 	bl	1a3c <PmLogPrint_@plt>
    561c:	e28dd008 	add	sp, sp, #8
    5620:	e8bd8070 	pop	{r4, r5, r6, pc}
    5624:	e59fe034 	ldr	lr, [pc, #52]	@ 5660 <vpnc_workq_destroy+0xf8>
    5628:	e3a01007 	mov	r1, #7
    562c:	e59f2034 	ldr	r2, [pc, #52]	@ 5668 <vpnc_workq_destroy+0x100>
    5630:	e084300e 	add	r3, r4, lr
    5634:	e0842002 	add	r2, r4, r2
    5638:	ebfff0ff 	bl	1a3c <PmLogPrint_@plt>
    563c:	e5952000 	ldr	r2, [r5]
    5640:	eaffffdb 	b	55b4 <vpnc_workq_destroy+0x4c>
    5644:	e59f600c 	ldr	r6, [pc, #12]	@ 5658 <vpnc_workq_destroy+0xf0>
    5648:	eaffffe3 	b	55dc <vpnc_workq_destroy+0x74>
    564c:	e59f6004 	ldr	r6, [pc, #4]	@ 5658 <vpnc_workq_destroy+0xf0>
    5650:	eaffffdd 	b	55cc <vpnc_workq_destroy+0x64>
    5654:	0000dbb8 	.word	0x0000dbb8
    5658:	00000190 	.word	0x00000190
    565c:	ffff5cb4 	.word	0xffff5cb4
    5660:	ffff5a0c 	.word	0xffff5a0c
    5664:	ffff5eec 	.word	0xffff5eec
    5668:	ffff6854 	.word	0xffff6854

0000566c <vpnc_workq_create>:
    566c:	e92d40f0 	push	{r4, r5, r6, r7, lr}
    5670:	e59f31a8 	ldr	r3, [pc, #424]	@ 5820 <vpnc_workq_create+0x1b4>
    5674:	e24dd01c 	sub	sp, sp, #28
    5678:	e3a00001 	mov	r0, #1
    567c:	e3a0100c 	mov	r1, #12
    5680:	e08f6003 	add	r6, pc, r3
    5684:	e3a05000 	mov	r5, #0
    5688:	e58d5014 	str	r5, [sp, #20]
    568c:	ebfff08a 	bl	18bc <calloc@plt>
    5690:	e2507000 	subs	r7, r0, #0
    5694:	0a000029 	beq	5740 <vpnc_workq_create+0xd4>
    5698:	ebfff0bd 	bl	1994 <g_main_context_new@plt>
    569c:	e1a01005 	mov	r1, r5
    56a0:	e5870004 	str	r0, [r7, #4]
    56a4:	ebfff0a2 	bl	1934 <g_main_loop_new@plt>
    56a8:	e5972004 	ldr	r2, [r7, #4]
    56ac:	e3520000 	cmp	r2, #0
    56b0:	e5870008 	str	r0, [r7, #8]
    56b4:	0a000011 	beq	5700 <vpnc_workq_create+0x94>
    56b8:	e3500000 	cmp	r0, #0
    56bc:	0a00000f 	beq	5700 <vpnc_workq_create+0x94>
    56c0:	e59fe15c 	ldr	lr, [pc, #348]	@ 5824 <vpnc_workq_create+0x1b8>
    56c4:	e3a04001 	mov	r4, #1
    56c8:	e1a02005 	mov	r2, r5
    56cc:	e1a03004 	mov	r3, r4
    56d0:	e1a01007 	mov	r1, r7
    56d4:	e28dc014 	add	ip, sp, #20
    56d8:	e796000e 	ldr	r0, [r6, lr]
    56dc:	e58d5000 	str	r5, [sp]
    56e0:	e98d1010 	stmib	sp, {r4, ip}
    56e4:	ebfff0da 	bl	1a54 <g_thread_create_full@plt>
    56e8:	e3500000 	cmp	r0, #0
    56ec:	e5870000 	str	r0, [r7]
    56f0:	0a000022 	beq	5780 <vpnc_workq_create+0x114>
    56f4:	e1a00007 	mov	r0, r7
    56f8:	e28dd01c 	add	sp, sp, #28
    56fc:	e8bd80f0 	pop	{r4, r5, r6, r7, pc}
    5700:	e59f0120 	ldr	r0, [pc, #288]	@ 5828 <vpnc_workq_create+0x1bc>
    5704:	e7961000 	ldr	r1, [r6, r0]
    5708:	e5910000 	ldr	r0, [r1]
    570c:	e3500000 	cmp	r0, #0
    5710:	0a000002 	beq	5720 <vpnc_workq_create+0xb4>
    5714:	e590c000 	ldr	ip, [r0]
    5718:	e35c0002 	cmp	ip, #2
    571c:	dafffff4 	ble	56f4 <vpnc_workq_create+0x88>
    5720:	e59f3104 	ldr	r3, [pc, #260]	@ 582c <vpnc_workq_create+0x1c0>
    5724:	e3a01003 	mov	r1, #3
    5728:	e59f2100 	ldr	r2, [pc, #256]	@ 5830 <vpnc_workq_create+0x1c4>
    572c:	e086e003 	add	lr, r6, r3
    5730:	e0862002 	add	r2, r6, r2
    5734:	e28e3014 	add	r3, lr, #20
    5738:	ebfff0bf 	bl	1a3c <PmLogPrint_@plt>
    573c:	eaffffec 	b	56f4 <vpnc_workq_create+0x88>
    5740:	e59f00e0 	ldr	r0, [pc, #224]	@ 5828 <vpnc_workq_create+0x1bc>
    5744:	e7962000 	ldr	r2, [r6, r0]
    5748:	e5920000 	ldr	r0, [r2]
    574c:	e1500005 	cmp	r0, r5
    5750:	0a000002 	beq	5760 <vpnc_workq_create+0xf4>
    5754:	e5901000 	ldr	r1, [r0]
    5758:	e3510002 	cmp	r1, #2
    575c:	daffffe4 	ble	56f4 <vpnc_workq_create+0x88>
    5760:	e59f30c4 	ldr	r3, [pc, #196]	@ 582c <vpnc_workq_create+0x1c0>
    5764:	e3a01003 	mov	r1, #3
    5768:	e59fe0c4 	ldr	lr, [pc, #196]	@ 5834 <vpnc_workq_create+0x1c8>
    576c:	e086c003 	add	ip, r6, r3
    5770:	e086200e 	add	r2, r6, lr
    5774:	e28c3014 	add	r3, ip, #20
    5778:	ebfff0af 	bl	1a3c <PmLogPrint_@plt>
    577c:	eaffffdc 	b	56f4 <vpnc_workq_create+0x88>
    5780:	e59d1014 	ldr	r1, [sp, #20]
    5784:	e3510000 	cmp	r1, #0
    5788:	0a000014 	beq	57e0 <vpnc_workq_create+0x174>
    578c:	e59f0094 	ldr	r0, [pc, #148]	@ 5828 <vpnc_workq_create+0x1bc>
    5790:	e7962000 	ldr	r2, [r6, r0]
    5794:	e5920000 	ldr	r0, [r2]
    5798:	e3500000 	cmp	r0, #0
    579c:	0a000002 	beq	57ac <vpnc_workq_create+0x140>
    57a0:	e5903000 	ldr	r3, [r0]
    57a4:	e3530002 	cmp	r3, #2
    57a8:	da000009 	ble	57d4 <vpnc_workq_create+0x168>
    57ac:	e59f3078 	ldr	r3, [pc, #120]	@ 582c <vpnc_workq_create+0x1c0>
    57b0:	e591c008 	ldr	ip, [r1, #8]
    57b4:	e3a01003 	mov	r1, #3
    57b8:	e59fe078 	ldr	lr, [pc, #120]	@ 5838 <vpnc_workq_create+0x1cc>
    57bc:	e0862003 	add	r2, r6, r3
    57c0:	e2823014 	add	r3, r2, #20
    57c4:	e086200e 	add	r2, r6, lr
    57c8:	e58dc000 	str	ip, [sp]
    57cc:	ebfff09a 	bl	1a3c <PmLogPrint_@plt>
    57d0:	e59d1014 	ldr	r1, [sp, #20]
    57d4:	e1a00001 	mov	r0, r1
    57d8:	ebfff0d0 	bl	1b20 <g_error_free@plt>
    57dc:	eaffffc4 	b	56f4 <vpnc_workq_create+0x88>
    57e0:	e59f0040 	ldr	r0, [pc, #64]	@ 5828 <vpnc_workq_create+0x1bc>
    57e4:	e7961000 	ldr	r1, [r6, r0]
    57e8:	e5910000 	ldr	r0, [r1]
    57ec:	e3500000 	cmp	r0, #0
    57f0:	0a000002 	beq	5800 <vpnc_workq_create+0x194>
    57f4:	e590c000 	ldr	ip, [r0]
    57f8:	e35c0002 	cmp	ip, #2
    57fc:	daffffbc 	ble	56f4 <vpnc_workq_create+0x88>
    5800:	e59f3024 	ldr	r3, [pc, #36]	@ 582c <vpnc_workq_create+0x1c0>
    5804:	e3a01003 	mov	r1, #3
    5808:	e59f202c 	ldr	r2, [pc, #44]	@ 583c <vpnc_workq_create+0x1d0>
    580c:	e086e003 	add	lr, r6, r3
    5810:	e0862002 	add	r2, r6, r2
    5814:	e28e3014 	add	r3, lr, #20
    5818:	ebfff087 	bl	1a3c <PmLogPrint_@plt>
    581c:	eaffffb4 	b	56f4 <vpnc_workq_create+0x88>
    5820:	0000dab8 	.word	0x0000dab8
    5824:	00000198 	.word	0x00000198
    5828:	00000190 	.word	0x00000190
    582c:	ffff5a0c 	.word	0xffff5a0c
    5830:	ffff68cc 	.word	0xffff68cc
    5834:	ffff6874 	.word	0xffff6874
    5838:	ffff6890 	.word	0xffff6890
    583c:	ffff68b0 	.word	0xffff68b0

00005840 <agent_thread>:
    5840:	e92d40f0 	push	{r4, r5, r6, r7, lr}
    5844:	e1a07000 	mov	r7, r0
    5848:	e59f007c 	ldr	r0, [pc, #124]	@ 58cc <agent_thread+0x8c>
    584c:	e24dd00c 	sub	sp, sp, #12
    5850:	e59f3078 	ldr	r3, [pc, #120]	@ 58d0 <agent_thread+0x90>
    5854:	e08f5000 	add	r5, pc, r0
    5858:	e7952003 	ldr	r2, [r5, r3]
    585c:	e5926000 	ldr	r6, [r2]
    5860:	e3560000 	cmp	r6, #0
    5864:	0a000009 	beq	5890 <agent_thread+0x50>
    5868:	e5961000 	ldr	r1, [r6]
    586c:	e3510006 	cmp	r1, #6
    5870:	ca000006 	bgt	5890 <agent_thread+0x50>
    5874:	e3570000 	cmp	r7, #0
    5878:	0a000001 	beq	5884 <agent_thread+0x44>
    587c:	e5970008 	ldr	r0, [r7, #8]
    5880:	ebfff0b5 	bl	1b5c <g_main_loop_run@plt>
    5884:	e3a00000 	mov	r0, #0
    5888:	e28dd00c 	add	sp, sp, #12
    588c:	e8bd80f0 	pop	{r4, r5, r6, r7, pc}
    5890:	ebfff096 	bl	1af0 <getpid@plt>
    5894:	e1a04000 	mov	r4, r0
    5898:	e3a000e0 	mov	r0, #224	@ 0xe0
    589c:	ebfff0b1 	bl	1b68 <syscall@plt>
    58a0:	e59f302c 	ldr	r3, [pc, #44]	@ 58d4 <agent_thread+0x94>
    58a4:	e59f202c 	ldr	r2, [pc, #44]	@ 58d8 <agent_thread+0x98>
    58a8:	e3a01007 	mov	r1, #7
    58ac:	e085c003 	add	ip, r5, r3
    58b0:	e58d4000 	str	r4, [sp]
    58b4:	e0852002 	add	r2, r5, r2
    58b8:	e28c3028 	add	r3, ip, #40	@ 0x28
    58bc:	e58d0004 	str	r0, [sp, #4]
    58c0:	e1a00006 	mov	r0, r6
    58c4:	ebfff05c 	bl	1a3c <PmLogPrint_@plt>
    58c8:	eaffffe9 	b	5874 <agent_thread+0x34>
    58cc:	0000d8e4 	.word	0x0000d8e4
    58d0:	00000190 	.word	0x00000190
    58d4:	ffff5a0c 	.word	0xffff5a0c
    58d8:	ffff68f4 	.word	0xffff68f4

000058dc <cmd_request_get_request_id>:
    58dc:	e3500000 	cmp	r0, #0
    58e0:	15900000 	ldrne	r0, [r0]
    58e4:	e12fff1e 	bx	lr

000058e8 <cmd_request_get_callback_func>:
    58e8:	e3500000 	cmp	r0, #0
    58ec:	15900004 	ldrne	r0, [r0, #4]
    58f0:	e12fff1e 	bx	lr

000058f4 <cmd_request_get_json>:
    58f4:	e3500000 	cmp	r0, #0
    58f8:	15900008 	ldrne	r0, [r0, #8]
    58fc:	e12fff1e 	bx	lr

00005900 <cmd_request_send_response>:
    5900:	e250c000 	subs	ip, r0, #0
    5904:	e1a03002 	mov	r3, r2
    5908:	e92d4010 	push	{r4, lr}
    590c:	08bd8010 	popeq	{r4, pc}
    5910:	e1a02001 	mov	r2, r1
    5914:	e59c0000 	ldr	r0, [ip]
    5918:	e3a01000 	mov	r1, #0
    591c:	e1a0e00f 	mov	lr, pc
    5920:	e59cf004 	ldr	pc, [ip, #4]
    5924:	e8bd8010 	pop	{r4, pc}

00005928 <convertStrToLongInt>:
    5928:	e92d40f0 	push	{r4, r5, r6, r7, lr}
    592c:	e3510001 	cmp	r1, #1
    5930:	e1a07000 	mov	r7, r0
    5934:	e59f014c 	ldr	r0, [pc, #332]	@ 5a88 <convertStrToLongInt+0x160>
    5938:	e24dd014 	sub	sp, sp, #20
    593c:	c1a05001 	movgt	r5, r1
    5940:	d3a0500a 	movle	r5, #10
    5944:	e08f6000 	add	r6, pc, r0
    5948:	ebfff095 	bl	1ba4 <__errno_location@plt>
    594c:	e1a02005 	mov	r2, r5
    5950:	e3a03000 	mov	r3, #0
    5954:	e28d100c 	add	r1, sp, #12
    5958:	e1a04000 	mov	r4, r0
    595c:	e5803000 	str	r3, [r0]
    5960:	e1a00007 	mov	r0, r7
    5964:	ebfff037 	bl	1a48 <strtol@plt>
    5968:	e5944000 	ldr	r4, [r4]
    596c:	e3540022 	cmp	r4, #34	@ 0x22
    5970:	e1a05000 	mov	r5, r0
    5974:	1a000015 	bne	59d0 <convertStrToLongInt+0xa8>
    5978:	e2401106 	sub	r1, r0, #-2147483647	@ 0x80000001
    597c:	e3710003 	cmn	r1, #3
    5980:	9a000012 	bls	59d0 <convertStrToLongInt+0xa8>
    5984:	e59fc100 	ldr	ip, [pc, #256]	@ 5a8c <convertStrToLongInt+0x164>
    5988:	e796500c 	ldr	r5, [r6, ip]
    598c:	e5950000 	ldr	r0, [r5]
    5990:	e3500000 	cmp	r0, #0
    5994:	0a000002 	beq	59a4 <convertStrToLongInt+0x7c>
    5998:	e590e000 	ldr	lr, [r0]
    599c:	e35e0002 	cmp	lr, #2
    59a0:	da00002e 	ble	5a60 <convertStrToLongInt+0x138>
    59a4:	e59f20e4 	ldr	r2, [pc, #228]	@ 5a90 <convertStrToLongInt+0x168>
    59a8:	e3a01003 	mov	r1, #3
    59ac:	e59f30e0 	ldr	r3, [pc, #224]	@ 5a94 <convertStrToLongInt+0x16c>
    59b0:	e3a05000 	mov	r5, #0
    59b4:	e0862002 	add	r2, r6, r2
    59b8:	e58d4000 	str	r4, [sp]
    59bc:	e0863003 	add	r3, r6, r3
    59c0:	ebfff01d 	bl	1a3c <PmLogPrint_@plt>
    59c4:	e1a00005 	mov	r0, r5
    59c8:	e28dd014 	add	sp, sp, #20
    59cc:	e8bd80f0 	pop	{r4, r5, r6, r7, pc}
    59d0:	e2542000 	subs	r2, r4, #0
    59d4:	13a02001 	movne	r2, #1
    59d8:	e3550000 	cmp	r5, #0
    59dc:	13a02000 	movne	r2, #0
    59e0:	e3520000 	cmp	r2, #0
    59e4:	1affffe6 	bne	5984 <convertStrToLongInt+0x5c>
    59e8:	e59dc00c 	ldr	ip, [sp, #12]
    59ec:	e15c0007 	cmp	ip, r7
    59f0:	0a000012 	beq	5a40 <convertStrToLongInt+0x118>
    59f4:	e5dc3000 	ldrb	r3, [ip]
    59f8:	e3530000 	cmp	r3, #0
    59fc:	0afffff0 	beq	59c4 <convertStrToLongInt+0x9c>
    5a00:	e59f1084 	ldr	r1, [pc, #132]	@ 5a8c <convertStrToLongInt+0x164>
    5a04:	e7962001 	ldr	r2, [r6, r1]
    5a08:	e5920000 	ldr	r0, [r2]
    5a0c:	e3500000 	cmp	r0, #0
    5a10:	0a000002 	beq	5a20 <convertStrToLongInt+0xf8>
    5a14:	e590e000 	ldr	lr, [r0]
    5a18:	e35e0006 	cmp	lr, #6
    5a1c:	daffffe8 	ble	59c4 <convertStrToLongInt+0x9c>
    5a20:	e59f3070 	ldr	r3, [pc, #112]	@ 5a98 <convertStrToLongInt+0x170>
    5a24:	e3a01007 	mov	r1, #7
    5a28:	e58dc000 	str	ip, [sp]
    5a2c:	e59fc060 	ldr	ip, [pc, #96]	@ 5a94 <convertStrToLongInt+0x16c>
    5a30:	e0862003 	add	r2, r6, r3
    5a34:	e086300c 	add	r3, r6, ip
    5a38:	ebffefff 	bl	1a3c <PmLogPrint_@plt>
    5a3c:	eaffffe0 	b	59c4 <convertStrToLongInt+0x9c>
    5a40:	e59f0044 	ldr	r0, [pc, #68]	@ 5a8c <convertStrToLongInt+0x164>
    5a44:	e7961000 	ldr	r1, [r6, r0]
    5a48:	e5910000 	ldr	r0, [r1]
    5a4c:	e3500000 	cmp	r0, #0
    5a50:	0a000004 	beq	5a68 <convertStrToLongInt+0x140>
    5a54:	e5905000 	ldr	r5, [r0]
    5a58:	e3550002 	cmp	r5, #2
    5a5c:	ca000001 	bgt	5a68 <convertStrToLongInt+0x140>
    5a60:	e3a05000 	mov	r5, #0
    5a64:	eaffffd6 	b	59c4 <convertStrToLongInt+0x9c>
    5a68:	e59fe02c 	ldr	lr, [pc, #44]	@ 5a9c <convertStrToLongInt+0x174>
    5a6c:	e3a01003 	mov	r1, #3
    5a70:	e59fc01c 	ldr	ip, [pc, #28]	@ 5a94 <convertStrToLongInt+0x16c>
    5a74:	e3a05000 	mov	r5, #0
    5a78:	e086200e 	add	r2, r6, lr
    5a7c:	e086300c 	add	r3, r6, ip
    5a80:	ebffefed 	bl	1a3c <PmLogPrint_@plt>
    5a84:	eaffffce 	b	59c4 <convertStrToLongInt+0x9c>
    5a88:	0000d7f4 	.word	0x0000d7f4
    5a8c:	00000190 	.word	0x00000190
    5a90:	ffff691c 	.word	0xffff691c
    5a94:	ffff5a44 	.word	0xffff5a44
    5a98:	ffff694c 	.word	0xffff694c
    5a9c:	ffff6930 	.word	0xffff6930

00005aa0 <getLocalizedString>:
    5aa0:	e92d4070 	push	{r4, r5, r6, lr}
    5aa4:	e59f3090 	ldr	r3, [pc, #144]	@ 5b3c <getLocalizedString+0x9c>
    5aa8:	e2506000 	subs	r6, r0, #0
    5aac:	e24dd008 	sub	sp, sp, #8
    5ab0:	e08f4003 	add	r4, pc, r3
    5ab4:	0a000006 	beq	5ad4 <getLocalizedString+0x34>
    5ab8:	e59f5080 	ldr	r5, [pc, #128]	@ 5b40 <getLocalizedString+0xa0>
    5abc:	e7940005 	ldr	r0, [r4, r5]
    5ac0:	e3500000 	cmp	r0, #0
    5ac4:	0a000002 	beq	5ad4 <getLocalizedString+0x34>
    5ac8:	ebffefc0 	bl	19d0 <g_hash_table_size@plt>
    5acc:	e3500000 	cmp	r0, #0
    5ad0:	1a000002 	bne	5ae0 <getLocalizedString+0x40>
    5ad4:	e1a00006 	mov	r0, r6
    5ad8:	e28dd008 	add	sp, sp, #8
    5adc:	e8bd8070 	pop	{r4, r5, r6, pc}
    5ae0:	e7940005 	ldr	r0, [r4, r5]
    5ae4:	e1a01006 	mov	r1, r6
    5ae8:	ebffeffa 	bl	1ad8 <g_hash_table_lookup@plt>
    5aec:	e3500000 	cmp	r0, #0
    5af0:	1afffff8 	bne	5ad8 <getLocalizedString+0x38>
    5af4:	e59f0048 	ldr	r0, [pc, #72]	@ 5b44 <getLocalizedString+0xa4>
    5af8:	e7942000 	ldr	r2, [r4, r0]
    5afc:	e5920000 	ldr	r0, [r2]
    5b00:	e3500000 	cmp	r0, #0
    5b04:	0a000002 	beq	5b14 <getLocalizedString+0x74>
    5b08:	e5901000 	ldr	r1, [r0]
    5b0c:	e3510002 	cmp	r1, #2
    5b10:	daffffef 	ble	5ad4 <getLocalizedString+0x34>
    5b14:	e59f302c 	ldr	r3, [pc, #44]	@ 5b48 <getLocalizedString+0xa8>
    5b18:	e3a01003 	mov	r1, #3
    5b1c:	e59fe028 	ldr	lr, [pc, #40]	@ 5b4c <getLocalizedString+0xac>
    5b20:	e084c003 	add	ip, r4, r3
    5b24:	e58d6000 	str	r6, [sp]
    5b28:	e084200e 	add	r2, r4, lr
    5b2c:	e28c3014 	add	r3, ip, #20
    5b30:	ebffefc1 	bl	1a3c <PmLogPrint_@plt>
    5b34:	e1a00006 	mov	r0, r6
    5b38:	eaffffe6 	b	5ad8 <getLocalizedString+0x38>
    5b3c:	0000d688 	.word	0x0000d688
    5b40:	0000059c 	.word	0x0000059c
    5b44:	00000190 	.word	0x00000190
    5b48:	ffff5a44 	.word	0xffff5a44
    5b4c:	ffff6978 	.word	0xffff6978

00005b50 <LOCALIZED>:
    5b50:	eaffffd2 	b	5aa0 <getLocalizedString>

00005b54 <unloadLocalizedStrings>:
    5b54:	e59f0058 	ldr	r0, [pc, #88]	@ 5bb4 <unloadLocalizedStrings+0x60>
    5b58:	e92d4070 	push	{r4, r5, r6, lr}
    5b5c:	e59f5054 	ldr	r5, [pc, #84]	@ 5bb8 <unloadLocalizedStrings+0x64>
    5b60:	e08f4000 	add	r4, pc, r0
    5b64:	e7943005 	ldr	r3, [r4, r5]
    5b68:	e3530000 	cmp	r3, #0
    5b6c:	08bd8070 	popeq	{r4, r5, r6, pc}
    5b70:	e59f1044 	ldr	r1, [pc, #68]	@ 5bbc <unloadLocalizedStrings+0x68>
    5b74:	e7942001 	ldr	r2, [r4, r1]
    5b78:	e5920000 	ldr	r0, [r2]
    5b7c:	e3500000 	cmp	r0, #0
    5b80:	0a000002 	beq	5b90 <unloadLocalizedStrings+0x3c>
    5b84:	e590c000 	ldr	ip, [r0]
    5b88:	e35c0006 	cmp	ip, #6
    5b8c:	da000003 	ble	5ba0 <unloadLocalizedStrings+0x4c>
    5b90:	e59fe028 	ldr	lr, [pc, #40]	@ 5bc0 <unloadLocalizedStrings+0x6c>
    5b94:	e3a01007 	mov	r1, #7
    5b98:	e084200e 	add	r2, r4, lr
    5b9c:	ebffefa6 	bl	1a3c <PmLogPrint_@plt>
    5ba0:	e7940005 	ldr	r0, [r4, r5]
    5ba4:	ebffef1a 	bl	1814 <g_hash_table_destroy@plt>
    5ba8:	e3a03000 	mov	r3, #0
    5bac:	e7843005 	str	r3, [r4, r5]
    5bb0:	e8bd8070 	pop	{r4, r5, r6, pc}
    5bb4:	0000d5d8 	.word	0x0000d5d8
    5bb8:	0000059c 	.word	0x0000059c
    5bbc:	00000190 	.word	0x00000190
    5bc0:	ffff69a4 	.word	0xffff69a4

00005bc4 <free_interface_stats>:
    5bc4:	e92d4070 	push	{r4, r5, r6, lr}
    5bc8:	e24dd010 	sub	sp, sp, #16
    5bcc:	e1a04000 	mov	r4, r0
    5bd0:	e1a05003 	mov	r5, r3
    5bd4:	e1a0c00d 	mov	ip, sp
    5bd8:	e1a06002 	mov	r6, r2
    5bdc:	e88c000f 	stm	ip, {r0, r1, r2, r3}
    5be0:	e1a00001 	mov	r0, r1
    5be4:	ebffef01 	bl	17f0 <g_free@plt>
    5be8:	e1a00004 	mov	r0, r4
    5bec:	ebffeeff 	bl	17f0 <g_free@plt>
    5bf0:	e1a00005 	mov	r0, r5
    5bf4:	ebffeefd 	bl	17f0 <g_free@plt>
    5bf8:	e1a00006 	mov	r0, r6
    5bfc:	e28dd010 	add	sp, sp, #16
    5c00:	e8bd4070 	pop	{r4, r5, r6, lr}
    5c04:	eaffeef9 	b	17f0 <g_free@plt>

00005c08 <loadLocalizedStrings>:
    5c08:	e92d4ff0 	push	{r4, r5, r6, r7, r8, r9, sl, fp, lr}
    5c0c:	e1a07000 	mov	r7, r0
    5c10:	e59f03dc 	ldr	r0, [pc, #988]	@ 5ff4 <loadLocalizedStrings+0x3ec>
    5c14:	e24dd034 	sub	sp, sp, #52	@ 0x34
    5c18:	e59f83d8 	ldr	r8, [pc, #984]	@ 5ff8 <loadLocalizedStrings+0x3f0>
    5c1c:	e08f6000 	add	r6, pc, r0
    5c20:	e7963008 	ldr	r3, [r6, r8]
    5c24:	e5930000 	ldr	r0, [r3]
    5c28:	e3500000 	cmp	r0, #0
    5c2c:	0a00000a 	beq	5c5c <loadLocalizedStrings+0x54>
    5c30:	e5901000 	ldr	r1, [r0]
    5c34:	e3510006 	cmp	r1, #6
    5c38:	ca000007 	bgt	5c5c <loadLocalizedStrings+0x54>
    5c3c:	e59f33b8 	ldr	r3, [pc, #952]	@ 5ffc <loadLocalizedStrings+0x3f4>
    5c40:	e1a00007 	mov	r0, r7
    5c44:	e0861003 	add	r1, r6, r3
    5c48:	ebffefcf 	bl	1b8c <strcmp@plt>
    5c4c:	e3500000 	cmp	r0, #0
    5c50:	1a00000f 	bne	5c94 <loadLocalizedStrings+0x8c>
    5c54:	e28dd034 	add	sp, sp, #52	@ 0x34
    5c58:	e8bd8ff0 	pop	{r4, r5, r6, r7, r8, r9, sl, fp, pc}
    5c5c:	e59fe39c 	ldr	lr, [pc, #924]	@ 6000 <loadLocalizedStrings+0x3f8>
    5c60:	e3a01007 	mov	r1, #7
    5c64:	e59f2398 	ldr	r2, [pc, #920]	@ 6004 <loadLocalizedStrings+0x3fc>
    5c68:	e086c00e 	add	ip, r6, lr
    5c6c:	e58d7000 	str	r7, [sp]
    5c70:	e28c3028 	add	r3, ip, #40	@ 0x28
    5c74:	e0862002 	add	r2, r6, r2
    5c78:	ebffef6f 	bl	1a3c <PmLogPrint_@plt>
    5c7c:	e59f3378 	ldr	r3, [pc, #888]	@ 5ffc <loadLocalizedStrings+0x3f4>
    5c80:	e1a00007 	mov	r0, r7
    5c84:	e0861003 	add	r1, r6, r3
    5c88:	ebffefbf 	bl	1b8c <strcmp@plt>
    5c8c:	e3500000 	cmp	r0, #0
    5c90:	0affffef 	beq	5c54 <loadLocalizedStrings+0x4c>
    5c94:	e59fa36c 	ldr	sl, [pc, #876]	@ 6008 <loadLocalizedStrings+0x400>
    5c98:	e086000a 	add	r0, r6, sl
    5c9c:	ebffef6f 	bl	1a60 <g_getenv@plt>
    5ca0:	ebffef1d 	bl	191c <g_string_new@plt>
    5ca4:	e59f1360 	ldr	r1, [pc, #864]	@ 600c <loadLocalizedStrings+0x404>
    5ca8:	e1a02007 	mov	r2, r7
    5cac:	e0861001 	add	r1, r6, r1
    5cb0:	e1a0a000 	mov	sl, r0
    5cb4:	ebffefb1 	bl	1b80 <g_string_append_printf@plt>
    5cb8:	e59a0000 	ldr	r0, [sl]
    5cbc:	e3a01001 	mov	r1, #1
    5cc0:	ebffefb4 	bl	1b98 <g_file_test@plt>
    5cc4:	e3500000 	cmp	r0, #0
    5cc8:	1a000014 	bne	5d20 <loadLocalizedStrings+0x118>
    5ccc:	e7961008 	ldr	r1, [r6, r8]
    5cd0:	e5910000 	ldr	r0, [r1]
    5cd4:	e3500000 	cmp	r0, #0
    5cd8:	0a000002 	beq	5ce8 <loadLocalizedStrings+0xe0>
    5cdc:	e590c000 	ldr	ip, [r0]
    5ce0:	e35c0002 	cmp	ip, #2
    5ce4:	da000009 	ble	5d10 <loadLocalizedStrings+0x108>
    5ce8:	e59fc310 	ldr	ip, [pc, #784]	@ 6000 <loadLocalizedStrings+0x3f8>
    5cec:	e3a01003 	mov	r1, #3
    5cf0:	e59ae000 	ldr	lr, [sl]
    5cf4:	e59f2314 	ldr	r2, [pc, #788]	@ 6010 <loadLocalizedStrings+0x408>
    5cf8:	e086300c 	add	r3, r6, ip
    5cfc:	e2833028 	add	r3, r3, #40	@ 0x28
    5d00:	e58d7004 	str	r7, [sp, #4]
    5d04:	e0862002 	add	r2, r6, r2
    5d08:	e58de000 	str	lr, [sp]
    5d0c:	ebffef4a 	bl	1a3c <PmLogPrint_@plt>
    5d10:	e1a0000a 	mov	r0, sl
    5d14:	e3a01001 	mov	r1, #1
    5d18:	ebffef20 	bl	19a0 <g_string_free@plt>
    5d1c:	eaffffcc 	b	5c54 <loadLocalizedStrings+0x4c>
    5d20:	e28d9030 	add	r9, sp, #48	@ 0x30
    5d24:	e59f52e8 	ldr	r5, [pc, #744]	@ 6014 <loadLocalizedStrings+0x40c>
    5d28:	e3a00000 	mov	r0, #0
    5d2c:	e0861005 	add	r1, r6, r5
    5d30:	e5290004 	str	r0, [r9, #-4]!
    5d34:	e59a0000 	ldr	r0, [sl]
    5d38:	e1a02009 	mov	r2, r9
    5d3c:	ebffeef0 	bl	1904 <g_io_channel_new_file@plt>
    5d40:	e59dc02c 	ldr	ip, [sp, #44]	@ 0x2c
    5d44:	e35c0000 	cmp	ip, #0
    5d48:	e1a05000 	mov	r5, r0
    5d4c:	0a000015 	beq	5da8 <loadLocalizedStrings+0x1a0>
    5d50:	e7961008 	ldr	r1, [r6, r8]
    5d54:	e5910000 	ldr	r0, [r1]
    5d58:	e3500000 	cmp	r0, #0
    5d5c:	0a000002 	beq	5d6c <loadLocalizedStrings+0x164>
    5d60:	e590e000 	ldr	lr, [r0]
    5d64:	e35e0002 	cmp	lr, #2
    5d68:	da00000b 	ble	5d9c <loadLocalizedStrings+0x194>
    5d6c:	e59a2000 	ldr	r2, [sl]
    5d70:	e3a01003 	mov	r1, #3
    5d74:	e59fe284 	ldr	lr, [pc, #644]	@ 6000 <loadLocalizedStrings+0x3f8>
    5d78:	e88d0084 	stm	sp, {r2, r7}
    5d7c:	e086300e 	add	r3, r6, lr
    5d80:	e59cc008 	ldr	ip, [ip, #8]
    5d84:	e2833028 	add	r3, r3, #40	@ 0x28
    5d88:	e59f2288 	ldr	r2, [pc, #648]	@ 6018 <loadLocalizedStrings+0x410>
    5d8c:	e0862002 	add	r2, r6, r2
    5d90:	e58dc008 	str	ip, [sp, #8]
    5d94:	ebffef28 	bl	1a3c <PmLogPrint_@plt>
    5d98:	e59dc02c 	ldr	ip, [sp, #44]	@ 0x2c
    5d9c:	e1a0000c 	mov	r0, ip
    5da0:	ebffef5e 	bl	1b20 <g_error_free@plt>
    5da4:	eaffffd9 	b	5d10 <loadLocalizedStrings+0x108>
    5da8:	e28d1028 	add	r1, sp, #40	@ 0x28
    5dac:	e28d2024 	add	r2, sp, #36	@ 0x24
    5db0:	e1a03009 	mov	r3, r9
    5db4:	e58dc024 	str	ip, [sp, #36]	@ 0x24
    5db8:	e58dc028 	str	ip, [sp, #40]	@ 0x28
    5dbc:	ebffeebb 	bl	18b0 <g_io_channel_read_to_end@plt>
    5dc0:	e3500001 	cmp	r0, #1
    5dc4:	0a000009 	beq	5df0 <loadLocalizedStrings+0x1e8>
    5dc8:	e1a02009 	mov	r2, r9
    5dcc:	e3a01000 	mov	r1, #0
    5dd0:	e1a00005 	mov	r0, r5
    5dd4:	ebffee88 	bl	17fc <g_io_channel_shutdown@plt>
    5dd8:	e59d0028 	ldr	r0, [sp, #40]	@ 0x28
    5ddc:	ebffee83 	bl	17f0 <g_free@plt>
    5de0:	e59dc02c 	ldr	ip, [sp, #44]	@ 0x2c
    5de4:	e35c0000 	cmp	ip, #0
    5de8:	0affffc8 	beq	5d10 <loadLocalizedStrings+0x108>
    5dec:	eaffffd7 	b	5d50 <loadLocalizedStrings+0x148>
    5df0:	e59d0028 	ldr	r0, [sp, #40]	@ 0x28
    5df4:	ebffeeef 	bl	19b8 <json_tokener_parse@plt>
    5df8:	e3700efa 	cmn	r0, #4000	@ 0xfa0
    5dfc:	e58d001c 	str	r0, [sp, #28]
    5e00:	8a00005b 	bhi	5f74 <loadLocalizedStrings+0x36c>
    5e04:	e59fb210 	ldr	fp, [pc, #528]	@ 601c <loadLocalizedStrings+0x414>
    5e08:	e796400b 	ldr	r4, [r6, fp]
    5e0c:	e3540000 	cmp	r4, #0
    5e10:	0a00000e 	beq	5e50 <loadLocalizedStrings+0x248>
    5e14:	e796c008 	ldr	ip, [r6, r8]
    5e18:	e59c0000 	ldr	r0, [ip]
    5e1c:	e3500000 	cmp	r0, #0
    5e20:	0a000002 	beq	5e30 <loadLocalizedStrings+0x228>
    5e24:	e5902000 	ldr	r2, [r0]
    5e28:	e3520006 	cmp	r2, #6
    5e2c:	da000003 	ble	5e40 <loadLocalizedStrings+0x238>
    5e30:	e59fe1e8 	ldr	lr, [pc, #488]	@ 6020 <loadLocalizedStrings+0x418>
    5e34:	e3a01007 	mov	r1, #7
    5e38:	e086200e 	add	r2, r6, lr
    5e3c:	ebffeefe 	bl	1a3c <PmLogPrint_@plt>
    5e40:	e796000b 	ldr	r0, [r6, fp]
    5e44:	ebffee72 	bl	1814 <g_hash_table_destroy@plt>
    5e48:	e3a03000 	mov	r3, #0
    5e4c:	e786300b 	str	r3, [r6, fp]
    5e50:	e59f01cc 	ldr	r0, [pc, #460]	@ 6024 <loadLocalizedStrings+0x41c>
    5e54:	e086400b 	add	r4, r6, fp
    5e58:	e59f11c8 	ldr	r1, [pc, #456]	@ 6028 <loadLocalizedStrings+0x420>
    5e5c:	e59fc1c8 	ldr	ip, [pc, #456]	@ 602c <loadLocalizedStrings+0x424>
    5e60:	e7962000 	ldr	r2, [r6, r0]
    5e64:	e7960001 	ldr	r0, [r6, r1]
    5e68:	e796100c 	ldr	r1, [r6, ip]
    5e6c:	e1a03002 	mov	r3, r2
    5e70:	ebffeed9 	bl	19dc <g_hash_table_new_full@plt>
    5e74:	e3500000 	cmp	r0, #0
    5e78:	e786000b 	str	r0, [r6, fp]
    5e7c:	0a00004d 	beq	5fb8 <loadLocalizedStrings+0x3b0>
    5e80:	e59d001c 	ldr	r0, [sp, #28]
    5e84:	ebffeebf 	bl	1988 <json_object_get_object@plt>
    5e88:	e590b020 	ldr	fp, [r0, #32]
    5e8c:	e35b0000 	cmp	fp, #0
    5e90:	158d4014 	strne	r4, [sp, #20]
    5e94:	1a000003 	bne	5ea8 <loadLocalizedStrings+0x2a0>
    5e98:	ea000023 	b	5f2c <loadLocalizedStrings+0x324>
    5e9c:	e59bb008 	ldr	fp, [fp, #8]
    5ea0:	e35b0000 	cmp	fp, #0
    5ea4:	0a000020 	beq	5f2c <loadLocalizedStrings+0x324>
    5ea8:	e59b4000 	ldr	r4, [fp]
    5eac:	e59b2004 	ldr	r2, [fp, #4]
    5eb0:	e254c000 	subs	ip, r4, #0
    5eb4:	13a0c001 	movne	ip, #1
    5eb8:	e3740efa 	cmn	r4, #4000	@ 0xfa0
    5ebc:	83a0c000 	movhi	ip, #0
    5ec0:	e35c0000 	cmp	ip, #0
    5ec4:	0afffff4 	beq	5e9c <loadLocalizedStrings+0x294>
    5ec8:	e252e000 	subs	lr, r2, #0
    5ecc:	13a0e001 	movne	lr, #1
    5ed0:	e3720efa 	cmn	r2, #4000	@ 0xfa0
    5ed4:	83a0e000 	movhi	lr, #0
    5ed8:	e35e0000 	cmp	lr, #0
    5edc:	0affffee 	beq	5e9c <loadLocalizedStrings+0x294>
    5ee0:	e1a00002 	mov	r0, r2
    5ee4:	e58d2010 	str	r2, [sp, #16]
    5ee8:	ebffee79 	bl	18d4 <json_object_get_type@plt>
    5eec:	e3500006 	cmp	r0, #6
    5ef0:	1affffe9 	bne	5e9c <loadLocalizedStrings+0x294>
    5ef4:	e59d3014 	ldr	r3, [sp, #20]
    5ef8:	e1a00004 	mov	r0, r4
    5efc:	e5934000 	ldr	r4, [r3]
    5f00:	ebffee5e 	bl	1880 <g_strdup@plt>
    5f04:	e59d2010 	ldr	r2, [sp, #16]
    5f08:	e58d0018 	str	r0, [sp, #24]
    5f0c:	e1a00002 	mov	r0, r2
    5f10:	ebffee7e 	bl	1910 <json_object_get_string@plt>
    5f14:	ebffee59 	bl	1880 <g_strdup@plt>
    5f18:	e59d1018 	ldr	r1, [sp, #24]
    5f1c:	e1a02000 	mov	r2, r0
    5f20:	e1a00004 	mov	r0, r4
    5f24:	ebffee5e 	bl	18a4 <g_hash_table_insert@plt>
    5f28:	eaffffdb 	b	5e9c <loadLocalizedStrings+0x294>
    5f2c:	e7961008 	ldr	r1, [r6, r8]
    5f30:	e5910000 	ldr	r0, [r1]
    5f34:	e3500000 	cmp	r0, #0
    5f38:	0a000002 	beq	5f48 <loadLocalizedStrings+0x340>
    5f3c:	e5901000 	ldr	r1, [r0]
    5f40:	e3510006 	cmp	r1, #6
    5f44:	da000007 	ble	5f68 <loadLocalizedStrings+0x360>
    5f48:	e59f30b0 	ldr	r3, [pc, #176]	@ 6000 <loadLocalizedStrings+0x3f8>
    5f4c:	e3a01007 	mov	r1, #7
    5f50:	e59f20d8 	ldr	r2, [pc, #216]	@ 6030 <loadLocalizedStrings+0x428>
    5f54:	e086e003 	add	lr, r6, r3
    5f58:	e58d7000 	str	r7, [sp]
    5f5c:	e0862002 	add	r2, r6, r2
    5f60:	e28e3028 	add	r3, lr, #40	@ 0x28
    5f64:	ebffeeb4 	bl	1a3c <PmLogPrint_@plt>
    5f68:	e59d001c 	ldr	r0, [sp, #28]
    5f6c:	ebffef0f 	bl	1bb0 <json_object_put@plt>
    5f70:	eaffff94 	b	5dc8 <loadLocalizedStrings+0x1c0>
    5f74:	e796c008 	ldr	ip, [r6, r8]
    5f78:	e59c0000 	ldr	r0, [ip]
    5f7c:	e3500000 	cmp	r0, #0
    5f80:	0a000002 	beq	5f90 <loadLocalizedStrings+0x388>
    5f84:	e5901000 	ldr	r1, [r0]
    5f88:	e3510002 	cmp	r1, #2
    5f8c:	daffff8d 	ble	5dc8 <loadLocalizedStrings+0x1c0>
    5f90:	e59fc068 	ldr	ip, [pc, #104]	@ 6000 <loadLocalizedStrings+0x3f8>
    5f94:	e3a01003 	mov	r1, #3
    5f98:	e59de028 	ldr	lr, [sp, #40]	@ 0x28
    5f9c:	e59f2090 	ldr	r2, [pc, #144]	@ 6034 <loadLocalizedStrings+0x42c>
    5fa0:	e086300c 	add	r3, r6, ip
    5fa4:	e2833028 	add	r3, r3, #40	@ 0x28
    5fa8:	e0862002 	add	r2, r6, r2
    5fac:	e58de000 	str	lr, [sp]
    5fb0:	ebffeea1 	bl	1a3c <PmLogPrint_@plt>
    5fb4:	eaffff83 	b	5dc8 <loadLocalizedStrings+0x1c0>
    5fb8:	e796c008 	ldr	ip, [r6, r8]
    5fbc:	e59c0000 	ldr	r0, [ip]
    5fc0:	e3500000 	cmp	r0, #0
    5fc4:	0a000002 	beq	5fd4 <loadLocalizedStrings+0x3cc>
    5fc8:	e5901000 	ldr	r1, [r0]
    5fcc:	e3510002 	cmp	r1, #2
    5fd0:	daffffe4 	ble	5f68 <loadLocalizedStrings+0x360>
    5fd4:	e59f3024 	ldr	r3, [pc, #36]	@ 6000 <loadLocalizedStrings+0x3f8>
    5fd8:	e3a01003 	mov	r1, #3
    5fdc:	e59f2054 	ldr	r2, [pc, #84]	@ 6038 <loadLocalizedStrings+0x430>
    5fe0:	e086e003 	add	lr, r6, r3
    5fe4:	e0862002 	add	r2, r6, r2
    5fe8:	e28e3028 	add	r3, lr, #40	@ 0x28
    5fec:	ebffee92 	bl	1a3c <PmLogPrint_@plt>
    5ff0:	eaffffdc 	b	5f68 <loadLocalizedStrings+0x360>
    5ff4:	0000d51c 	.word	0x0000d51c
    5ff8:	00000190 	.word	0x00000190
    5ffc:	ffff69d8 	.word	0xffff69d8
    6000:	ffff5a44 	.word	0xffff5a44
    6004:	ffff69c0 	.word	0xffff69c0
    6008:	ffff69e0 	.word	0xffff69e0
    600c:	ffff69f4 	.word	0xffff69f4
    6010:	ffff6b14 	.word	0xffff6b14
    6014:	ffff6a14 	.word	0xffff6a14
    6018:	ffff6ad4 	.word	0xffff6ad4
    601c:	0000059c 	.word	0x0000059c
    6020:	ffff6a18 	.word	0xffff6a18
    6024:	00000164 	.word	0x00000164
    6028:	00000168 	.word	0x00000168
    602c:	000001a8 	.word	0x000001a8
    6030:	ffff6a48 	.word	0xffff6a48
    6034:	ffff6abc 	.word	0xffff6abc
    6038:	ffff6a80 	.word	0xffff6a80

0000603c <cmd_request_destroy>:
    603c:	e92d4010 	push	{r4, lr}
    6040:	e1a04000 	mov	r4, r0
    6044:	e5900000 	ldr	r0, [r0]
    6048:	e3500000 	cmp	r0, #0
    604c:	08bd8010 	popeq	{r4, pc}
    6050:	e5903008 	ldr	r3, [r0, #8]
    6054:	e3530000 	cmp	r3, #0
    6058:	0a000002 	beq	6068 <cmd_request_destroy+0x2c>
    605c:	e1a00003 	mov	r0, r3
    6060:	ebffeed2 	bl	1bb0 <json_object_put@plt>
    6064:	e5940000 	ldr	r0, [r4]
    6068:	ebffee3d 	bl	1964 <free@plt>
    606c:	e3a03000 	mov	r3, #0
    6070:	e5843000 	str	r3, [r4]
    6074:	e8bd8010 	pop	{r4, pc}

00006078 <cmd_request_init>:
    6078:	e3500000 	cmp	r0, #0
    607c:	13510000 	cmpne	r1, #0
    6080:	e59f30c8 	ldr	r3, [pc, #200]	@ 6150 <cmd_request_init+0xd8>
    6084:	e92d41f0 	push	{r4, r5, r6, r7, r8, lr}
    6088:	e1a07001 	mov	r7, r1
    608c:	e1a06000 	mov	r6, r0
    6090:	e1a08002 	mov	r8, r2
    6094:	e08f4003 	add	r4, pc, r3
    6098:	1a000014 	bne	60f0 <cmd_request_init+0x78>
    609c:	e59f00b0 	ldr	r0, [pc, #176]	@ 6154 <cmd_request_init+0xdc>
    60a0:	e7942000 	ldr	r2, [r4, r0]
    60a4:	e5920000 	ldr	r0, [r2]
    60a8:	e3500000 	cmp	r0, #0
    60ac:	0a000005 	beq	60c8 <cmd_request_init+0x50>
    60b0:	e5901000 	ldr	r1, [r0]
    60b4:	e3510002 	cmp	r1, #2
    60b8:	d3a05000 	movle	r5, #0
    60bc:	ca000001 	bgt	60c8 <cmd_request_init+0x50>
    60c0:	e1a00005 	mov	r0, r5
    60c4:	e8bd81f0 	pop	{r4, r5, r6, r7, r8, pc}
    60c8:	e59f5088 	ldr	r5, [pc, #136]	@ 6158 <cmd_request_init+0xe0>
    60cc:	e3a01003 	mov	r1, #3
    60d0:	e59fe084 	ldr	lr, [pc, #132]	@ 615c <cmd_request_init+0xe4>
    60d4:	e084c005 	add	ip, r4, r5
    60d8:	e3a05000 	mov	r5, #0
    60dc:	e084200e 	add	r2, r4, lr
    60e0:	e28c3040 	add	r3, ip, #64	@ 0x40
    60e4:	ebffee54 	bl	1a3c <PmLogPrint_@plt>
    60e8:	e1a00005 	mov	r0, r5
    60ec:	e8bd81f0 	pop	{r4, r5, r6, r7, r8, pc}
    60f0:	e3a00001 	mov	r0, #1
    60f4:	e3a0100c 	mov	r1, #12
    60f8:	ebffedef 	bl	18bc <calloc@plt>
    60fc:	e2505000 	subs	r5, r0, #0
    6100:	15856000 	strne	r6, [r5]
    6104:	15857004 	strne	r7, [r5, #4]
    6108:	15858008 	strne	r8, [r5, #8]
    610c:	1affffeb 	bne	60c0 <cmd_request_init+0x48>
    6110:	e59f303c 	ldr	r3, [pc, #60]	@ 6154 <cmd_request_init+0xdc>
    6114:	e7942003 	ldr	r2, [r4, r3]
    6118:	e5920000 	ldr	r0, [r2]
    611c:	e3500000 	cmp	r0, #0
    6120:	0a000002 	beq	6130 <cmd_request_init+0xb8>
    6124:	e5901000 	ldr	r1, [r0]
    6128:	e3510002 	cmp	r1, #2
    612c:	daffffe3 	ble	60c0 <cmd_request_init+0x48>
    6130:	e59f2020 	ldr	r2, [pc, #32]	@ 6158 <cmd_request_init+0xe0>
    6134:	e3a01003 	mov	r1, #3
    6138:	e59fe020 	ldr	lr, [pc, #32]	@ 6160 <cmd_request_init+0xe8>
    613c:	e084c002 	add	ip, r4, r2
    6140:	e28c3040 	add	r3, ip, #64	@ 0x40
    6144:	e084200e 	add	r2, r4, lr
    6148:	ebffee3b 	bl	1a3c <PmLogPrint_@plt>
    614c:	eaffffdb 	b	60c0 <cmd_request_init+0x48>
    6150:	0000d0a4 	.word	0x0000d0a4
    6154:	00000190 	.word	0x00000190
    6158:	ffff5a44 	.word	0xffff5a44
    615c:	ffff6b64 	.word	0xffff6b64
    6160:	ffff6b88 	.word	0xffff6b88

00006164 <vpnc_init_logging>:
    6164:	e59f3098 	ldr	r3, [pc, #152]	@ 6204 <vpnc_init_logging+0xa0>
    6168:	e92d40f0 	push	{r4, r5, r6, r7, lr}
    616c:	e59f7094 	ldr	r7, [pc, #148]	@ 6208 <vpnc_init_logging+0xa4>
    6170:	e08f4003 	add	r4, pc, r3
    6174:	e59f0090 	ldr	r0, [pc, #144]	@ 620c <vpnc_init_logging+0xa8>
    6178:	e24dd00c 	sub	sp, sp, #12
    617c:	e7946007 	ldr	r6, [r4, r7]
    6180:	e0840000 	add	r0, r4, r0
    6184:	e1a01006 	mov	r1, r6
    6188:	ebffee61 	bl	1b14 <PmLogGetContext@plt>
    618c:	e2505000 	subs	r5, r0, #0
    6190:	0a00000a 	beq	61c0 <vpnc_init_logging+0x5c>
    6194:	e59f1074 	ldr	r1, [pc, #116]	@ 6210 <vpnc_init_logging+0xac>
    6198:	e3a0c000 	mov	ip, #0
    619c:	e59f2070 	ldr	r2, [pc, #112]	@ 6214 <vpnc_init_logging+0xb0>
    61a0:	e1a0000c 	mov	r0, ip
    61a4:	e084e001 	add	lr, r4, r1
    61a8:	e586c000 	str	ip, [r6]
    61ac:	e3a01003 	mov	r1, #3
    61b0:	e0842002 	add	r2, r4, r2
    61b4:	e28e3054 	add	r3, lr, #84	@ 0x54
    61b8:	e58d5000 	str	r5, [sp]
    61bc:	ebffee1e 	bl	1a3c <PmLogPrint_@plt>
    61c0:	e7943007 	ldr	r3, [r4, r7]
    61c4:	e5930000 	ldr	r0, [r3]
    61c8:	e3500000 	cmp	r0, #0
    61cc:	0a000002 	beq	61dc <vpnc_init_logging+0x78>
    61d0:	e590c000 	ldr	ip, [r0]
    61d4:	e35c0006 	cmp	ip, #6
    61d8:	da000006 	ble	61f8 <vpnc_init_logging+0x94>
    61dc:	e59f302c 	ldr	r3, [pc, #44]	@ 6210 <vpnc_init_logging+0xac>
    61e0:	e3a01007 	mov	r1, #7
    61e4:	e59f202c 	ldr	r2, [pc, #44]	@ 6218 <vpnc_init_logging+0xb4>
    61e8:	e084e003 	add	lr, r4, r3
    61ec:	e0842002 	add	r2, r4, r2
    61f0:	e28e3054 	add	r3, lr, #84	@ 0x54
    61f4:	ebffee10 	bl	1a3c <PmLogPrint_@plt>
    61f8:	e1a00005 	mov	r0, r5
    61fc:	e28dd00c 	add	sp, sp, #12
    6200:	e8bd80f0 	pop	{r4, r5, r6, r7, pc}
    6204:	0000cfc8 	.word	0x0000cfc8
    6208:	00000190 	.word	0x00000190
    620c:	ffff6bb8 	.word	0xffff6bb8
    6210:	ffff5a44 	.word	0xffff5a44
    6214:	ffff6bc8 	.word	0xffff6bc8
    6218:	ffff6be4 	.word	0xffff6be4

0000621c <get_interface_stats>:
    621c:	e92d4ff0 	push	{r4, r5, r6, r7, r8, r9, sl, fp, lr}
    6220:	e59f3300 	ldr	r3, [pc, #768]	@ 6528 <get_interface_stats+0x30c>
    6224:	e2508000 	subs	r8, r0, #0
    6228:	e24dd01c 	sub	sp, sp, #28
    622c:	e1a07001 	mov	r7, r1
    6230:	e08f6003 	add	r6, pc, r3
    6234:	1a000020 	bne	62bc <get_interface_stats+0xa0>
    6238:	e59f02ec 	ldr	r0, [pc, #748]	@ 652c <get_interface_stats+0x310>
    623c:	e7961000 	ldr	r1, [r6, r0]
    6240:	e5910000 	ldr	r0, [r1]
    6244:	e3500000 	cmp	r0, #0
    6248:	0a000012 	beq	6298 <get_interface_stats+0x7c>
    624c:	e590c000 	ldr	ip, [r0]
    6250:	e35c0006 	cmp	ip, #6
    6254:	ca00000f 	bgt	6298 <get_interface_stats+0x7c>
    6258:	e5971000 	ldr	r1, [r7]
    625c:	e3510000 	cmp	r1, #0
    6260:	0a000073 	beq	6434 <get_interface_stats+0x218>
    6264:	e597c004 	ldr	ip, [r7, #4]
    6268:	e35c0000 	cmp	ip, #0
    626c:	0a000075 	beq	6448 <get_interface_stats+0x22c>
    6270:	e5972008 	ldr	r2, [r7, #8]
    6274:	e3520000 	cmp	r2, #0
    6278:	0a000077 	beq	645c <get_interface_stats+0x240>
    627c:	e597300c 	ldr	r3, [r7, #12]
    6280:	e3530000 	cmp	r3, #0
    6284:	13e03000 	mvnne	r3, #0
    6288:	0a000063 	beq	641c <get_interface_stats+0x200>
    628c:	e1a00003 	mov	r0, r3
    6290:	e28dd01c 	add	sp, sp, #28
    6294:	e8bd8ff0 	pop	{r4, r5, r6, r7, r8, r9, sl, fp, pc}
    6298:	e59f3290 	ldr	r3, [pc, #656]	@ 6530 <get_interface_stats+0x314>
    629c:	e3a01007 	mov	r1, #7
    62a0:	e59f228c 	ldr	r2, [pc, #652]	@ 6534 <get_interface_stats+0x318>
    62a4:	e086e003 	add	lr, r6, r3
    62a8:	e58d8000 	str	r8, [sp]
    62ac:	e0862002 	add	r2, r6, r2
    62b0:	e28e3068 	add	r3, lr, #104	@ 0x68
    62b4:	ebffede0 	bl	1a3c <PmLogPrint_@plt>
    62b8:	eaffffe6 	b	6258 <get_interface_stats+0x3c>
    62bc:	e5d81000 	ldrb	r1, [r8]
    62c0:	e3510000 	cmp	r1, #0
    62c4:	0affffdb 	beq	6238 <get_interface_stats+0x1c>
    62c8:	ebffed93 	bl	191c <g_string_new@plt>
    62cc:	e59f5264 	ldr	r5, [pc, #612]	@ 6538 <get_interface_stats+0x31c>
    62d0:	e0861005 	add	r1, r6, r5
    62d4:	e1a09000 	mov	r9, r0
    62d8:	ebffee25 	bl	1b74 <g_string_append@plt>
    62dc:	e3590000 	cmp	r9, #0
    62e0:	0affffd4 	beq	6238 <get_interface_stats+0x1c>
    62e4:	e5990004 	ldr	r0, [r9, #4]
    62e8:	e3500000 	cmp	r0, #0
    62ec:	0affffd1 	beq	6238 <get_interface_stats+0x1c>
    62f0:	e59fc244 	ldr	ip, [pc, #580]	@ 653c <get_interface_stats+0x320>
    62f4:	e3a02000 	mov	r2, #0
    62f8:	e59fb240 	ldr	fp, [pc, #576]	@ 6540 <get_interface_stats+0x324>
    62fc:	e086000c 	add	r0, r6, ip
    6300:	e086100b 	add	r1, r6, fp
    6304:	ebffed7e 	bl	1904 <g_io_channel_new_file@plt>
    6308:	e250b000 	subs	fp, r0, #0
    630c:	0a000065 	beq	64a8 <get_interface_stats+0x28c>
    6310:	e59f222c 	ldr	r2, [pc, #556]	@ 6544 <get_interface_stats+0x328>
    6314:	e0860002 	add	r0, r6, r2
    6318:	ebffed7f 	bl	191c <g_string_new@plt>
    631c:	e1a0a000 	mov	sl, r0
    6320:	e3a02000 	mov	r2, #0
    6324:	e1a0100a 	mov	r1, sl
    6328:	e1a03002 	mov	r3, r2
    632c:	e1a0000b 	mov	r0, fp
    6330:	ebffed2b 	bl	17e4 <g_io_channel_read_line_string@plt>
    6334:	e3500001 	cmp	r0, #1
    6338:	e1a04000 	mov	r4, r0
    633c:	1a000054 	bne	6494 <get_interface_stats+0x278>
    6340:	e59a1004 	ldr	r1, [sl, #4]
    6344:	e3510000 	cmp	r1, #0
    6348:	0afffff4 	beq	6320 <get_interface_stats+0x104>
    634c:	e59a0000 	ldr	r0, [sl]
    6350:	e5992000 	ldr	r2, [r9]
    6354:	ebffed94 	bl	19ac <g_strstr_len@plt>
    6358:	e3500000 	cmp	r0, #0
    635c:	0affffef 	beq	6320 <get_interface_stats+0x104>
    6360:	e0862005 	add	r2, r6, r5
    6364:	e89a0003 	ldm	sl, {r0, r1}
    6368:	ebffed8f 	bl	19ac <g_strstr_len@plt>
    636c:	e2800001 	add	r0, r0, #1
    6370:	e5d03000 	ldrb	r3, [r0]
    6374:	e3530020 	cmp	r3, #32
    6378:	1a000002 	bne	6388 <get_interface_stats+0x16c>
    637c:	e5f03001 	ldrb	r3, [r0, #1]!
    6380:	e3530020 	cmp	r3, #32
    6384:	0afffffc 	beq	637c <get_interface_stats+0x160>
    6388:	e3530000 	cmp	r3, #0
    638c:	1a000037 	bne	6470 <get_interface_stats+0x254>
    6390:	e3540009 	cmp	r4, #9
    6394:	da00003e 	ble	6494 <get_interface_stats+0x278>
    6398:	e59f318c 	ldr	r3, [pc, #396]	@ 652c <get_interface_stats+0x310>
    639c:	e7961003 	ldr	r1, [r6, r3]
    63a0:	e5910000 	ldr	r0, [r1]
    63a4:	e3500000 	cmp	r0, #0
    63a8:	0a000002 	beq	63b8 <get_interface_stats+0x19c>
    63ac:	e590c000 	ldr	ip, [r0]
    63b0:	e35c0006 	cmp	ip, #6
    63b4:	da00000e 	ble	63f4 <get_interface_stats+0x1d8>
    63b8:	e59f3170 	ldr	r3, [pc, #368]	@ 6530 <get_interface_stats+0x314>
    63bc:	e3a01007 	mov	r1, #7
    63c0:	e5975008 	ldr	r5, [r7, #8]
    63c4:	e0864003 	add	r4, r6, r3
    63c8:	e597e004 	ldr	lr, [r7, #4]
    63cc:	e597c00c 	ldr	ip, [r7, #12]
    63d0:	e2843068 	add	r3, r4, #104	@ 0x68
    63d4:	e59f216c 	ldr	r2, [pc, #364]	@ 6548 <get_interface_stats+0x32c>
    63d8:	e5974000 	ldr	r4, [r7]
    63dc:	e0862002 	add	r2, r6, r2
    63e0:	e88d4100 	stm	sp, {r8, lr}
    63e4:	e58d4008 	str	r4, [sp, #8]
    63e8:	e58dc00c 	str	ip, [sp, #12]
    63ec:	e58d5010 	str	r5, [sp, #16]
    63f0:	ebffed91 	bl	1a3c <PmLogPrint_@plt>
    63f4:	e3a01001 	mov	r1, #1
    63f8:	e1a0000a 	mov	r0, sl
    63fc:	ebffed67 	bl	19a0 <g_string_free@plt>
    6400:	e1a0000b 	mov	r0, fp
    6404:	ebffedb6 	bl	1ae4 <g_io_channel_close@plt>
    6408:	e1a00009 	mov	r0, r9
    640c:	e3a01001 	mov	r1, #1
    6410:	ebffed62 	bl	19a0 <g_string_free@plt>
    6414:	e3a03000 	mov	r3, #0
    6418:	eaffff9b 	b	628c <get_interface_stats+0x70>
    641c:	e59f1128 	ldr	r1, [pc, #296]	@ 654c <get_interface_stats+0x330>
    6420:	e0860001 	add	r0, r6, r1
    6424:	ebffed15 	bl	1880 <g_strdup@plt>
    6428:	e3e03000 	mvn	r3, #0
    642c:	e587000c 	str	r0, [r7, #12]
    6430:	eaffff95 	b	628c <get_interface_stats+0x70>
    6434:	e59f0110 	ldr	r0, [pc, #272]	@ 654c <get_interface_stats+0x330>
    6438:	e0860000 	add	r0, r6, r0
    643c:	ebffed0f 	bl	1880 <g_strdup@plt>
    6440:	e5870000 	str	r0, [r7]
    6444:	eaffff86 	b	6264 <get_interface_stats+0x48>
    6448:	e59fe0fc 	ldr	lr, [pc, #252]	@ 654c <get_interface_stats+0x330>
    644c:	e086000e 	add	r0, r6, lr
    6450:	ebffed0a 	bl	1880 <g_strdup@plt>
    6454:	e5870004 	str	r0, [r7, #4]
    6458:	eaffff84 	b	6270 <get_interface_stats+0x54>
    645c:	e59f30e8 	ldr	r3, [pc, #232]	@ 654c <get_interface_stats+0x330>
    6460:	e0860003 	add	r0, r6, r3
    6464:	ebffed05 	bl	1880 <g_strdup@plt>
    6468:	e5870008 	str	r0, [r7, #8]
    646c:	eaffff82 	b	627c <get_interface_stats+0x60>
    6470:	e2803001 	add	r3, r0, #1
    6474:	e5d32000 	ldrb	r2, [r3]
    6478:	e2835001 	add	r5, r3, #1
    647c:	e3520000 	cmp	r2, #0
    6480:	0a000026 	beq	6520 <get_interface_stats+0x304>
    6484:	e3520020 	cmp	r2, #32
    6488:	0a00000a 	beq	64b8 <get_interface_stats+0x29c>
    648c:	e1a03005 	mov	r3, r5
    6490:	eafffff7 	b	6474 <get_interface_stats+0x258>
    6494:	e1a0000a 	mov	r0, sl
    6498:	e3a01001 	mov	r1, #1
    649c:	ebffed3f 	bl	19a0 <g_string_free@plt>
    64a0:	e1a0000b 	mov	r0, fp
    64a4:	ebffed8e 	bl	1ae4 <g_io_channel_close@plt>
    64a8:	e1a00009 	mov	r0, r9
    64ac:	e3a01001 	mov	r1, #1
    64b0:	ebffed3a 	bl	19a0 <g_string_free@plt>
    64b4:	eaffff5f 	b	6238 <get_interface_stats+0x1c>
    64b8:	e3a0e000 	mov	lr, #0
    64bc:	e5c3e000 	strb	lr, [r3]
    64c0:	e3500000 	cmp	r0, #0
    64c4:	0affffb1 	beq	6390 <get_interface_stats+0x174>
    64c8:	e3540001 	cmp	r4, #1
    64cc:	0a000010 	beq	6514 <get_interface_stats+0x2f8>
    64d0:	e3540009 	cmp	r4, #9
    64d4:	0a000006 	beq	64f4 <get_interface_stats+0x2d8>
    64d8:	e3540002 	cmp	r4, #2
    64dc:	0a000009 	beq	6508 <get_interface_stats+0x2ec>
    64e0:	e354000a 	cmp	r4, #10
    64e4:	1a000004 	bne	64fc <get_interface_stats+0x2e0>
    64e8:	ebffece4 	bl	1880 <g_strdup@plt>
    64ec:	e587000c 	str	r0, [r7, #12]
    64f0:	eaffffa8 	b	6398 <get_interface_stats+0x17c>
    64f4:	ebffece1 	bl	1880 <g_strdup@plt>
    64f8:	e5870004 	str	r0, [r7, #4]
    64fc:	e2844001 	add	r4, r4, #1
    6500:	e1a00005 	mov	r0, r5
    6504:	eaffff99 	b	6370 <get_interface_stats+0x154>
    6508:	ebffecdc 	bl	1880 <g_strdup@plt>
    650c:	e5870008 	str	r0, [r7, #8]
    6510:	eafffff9 	b	64fc <get_interface_stats+0x2e0>
    6514:	ebffecd9 	bl	1880 <g_strdup@plt>
    6518:	e5870000 	str	r0, [r7]
    651c:	eafffff6 	b	64fc <get_interface_stats+0x2e0>
    6520:	e1a05003 	mov	r5, r3
    6524:	eaffffe5 	b	64c0 <get_interface_stats+0x2a4>
    6528:	0000cf08 	.word	0x0000cf08
    652c:	00000190 	.word	0x00000190
    6530:	ffff5a44 	.word	0xffff5a44
    6534:	ffff6c68 	.word	0xffff6c68
    6538:	ffff6bfc 	.word	0xffff6bfc
    653c:	ffff6c00 	.word	0xffff6c00
    6540:	ffff6a14 	.word	0xffff6a14
    6544:	ffff6fdc 	.word	0xffff6fdc
    6548:	ffff6c10 	.word	0xffff6c10
    654c:	ffff6738 	.word	0xffff6738

00006550 <get_profile>:
    6550:	e5900004 	ldr	r0, [r0, #4]
    6554:	e12fff1e 	bx	lr

00006558 <get_host_name>:
    6558:	e5900008 	ldr	r0, [r0, #8]
    655c:	e12fff1e 	bx	lr

00006560 <get_active_profile_name>:
    6560:	e5900000 	ldr	r0, [r0]
    6564:	e12fff1e 	bx	lr

00006568 <get_preferred_if_type>:
    6568:	e5900030 	ldr	r0, [r0, #48]	@ 0x30
    656c:	e12fff1e 	bx	lr

00006570 <get_preferred_if_addr>:
    6570:	e5900034 	ldr	r0, [r0, #52]	@ 0x34
    6574:	e12fff1e 	bx	lr

00006578 <get_connection_state_str>:
    6578:	e59f305c 	ldr	r3, [pc, #92]	@ 65dc <get_connection_state_str+0x64>
    657c:	e2400001 	sub	r0, r0, #1
    6580:	e08f2003 	add	r2, pc, r3
    6584:	e3500003 	cmp	r0, #3
    6588:	908ff100 	addls	pc, pc, r0, lsl #2
    658c:	ea00000f 	b	65d0 <get_connection_state_str+0x58>
    6590:	ea00000b 	b	65c4 <get_connection_state_str+0x4c>
    6594:	ea000007 	b	65b8 <get_connection_state_str+0x40>
    6598:	ea000003 	b	65ac <get_connection_state_str+0x34>
    659c:	eaffffff 	b	65a0 <get_connection_state_str+0x28>
    65a0:	e59fc038 	ldr	ip, [pc, #56]	@ 65e0 <get_connection_state_str+0x68>
    65a4:	e082000c 	add	r0, r2, ip
    65a8:	e12fff1e 	bx	lr
    65ac:	e59f1030 	ldr	r1, [pc, #48]	@ 65e4 <get_connection_state_str+0x6c>
    65b0:	e0820001 	add	r0, r2, r1
    65b4:	e12fff1e 	bx	lr
    65b8:	e59f3028 	ldr	r3, [pc, #40]	@ 65e8 <get_connection_state_str+0x70>
    65bc:	e0820003 	add	r0, r2, r3
    65c0:	e12fff1e 	bx	lr
    65c4:	e59f1020 	ldr	r1, [pc, #32]	@ 65ec <get_connection_state_str+0x74>
    65c8:	e0820001 	add	r0, r2, r1
    65cc:	e12fff1e 	bx	lr
    65d0:	e59fc018 	ldr	ip, [pc, #24]	@ 65f0 <get_connection_state_str+0x78>
    65d4:	e082000c 	add	r0, r2, ip
    65d8:	e12fff1e 	bx	lr
    65dc:	0000cbb8 	.word	0x0000cbb8
    65e0:	ffff6cc0 	.word	0xffff6cc0
    65e4:	ffff6cb0 	.word	0xffff6cb0
    65e8:	ffff6ca4 	.word	0xffff6ca4
    65ec:	ffff64d4 	.word	0xffff64d4
    65f0:	ffff62cc 	.word	0xffff62cc

000065f4 <removeTunnelInterface>:
    65f4:	e92d41f0 	push	{r4, r5, r6, r7, r8, lr}
    65f8:	e1a06000 	mov	r6, r0
    65fc:	e59f01b0 	ldr	r0, [pc, #432]	@ 67b4 <removeTunnelInterface+0x1c0>
    6600:	e24dd008 	sub	sp, sp, #8
    6604:	e59f41ac 	ldr	r4, [pc, #428]	@ 67b8 <removeTunnelInterface+0x1c4>
    6608:	e08f5000 	add	r5, pc, r0
    660c:	e7953004 	ldr	r3, [r5, r4]
    6610:	e5930000 	ldr	r0, [r3]
    6614:	e3500000 	cmp	r0, #0
    6618:	0a000025 	beq	66b4 <removeTunnelInterface+0xc0>
    661c:	e5901000 	ldr	r1, [r0]
    6620:	e3510006 	cmp	r1, #6
    6624:	ca000022 	bgt	66b4 <removeTunnelInterface+0xc0>
    6628:	e59f718c 	ldr	r7, [pc, #396]	@ 67bc <removeTunnelInterface+0x1c8>
    662c:	e7d5c007 	ldrb	ip, [r5, r7]
    6630:	e35c0000 	cmp	ip, #0
    6634:	0a000028 	beq	66dc <removeTunnelInterface+0xe8>
    6638:	e596c018 	ldr	ip, [r6, #24]
    663c:	e35c0000 	cmp	ip, #0
    6640:	0a000025 	beq	66dc <removeTunnelInterface+0xe8>
    6644:	e59f0174 	ldr	r0, [pc, #372]	@ 67c0 <removeTunnelInterface+0x1cc>
    6648:	e7958000 	ldr	r8, [r5, r0]
    664c:	e5983010 	ldr	r3, [r8, #16]
    6650:	e3530000 	cmp	r3, #0
    6654:	0a000038 	beq	673c <removeTunnelInterface+0x148>
    6658:	ebffed3c 	bl	1b50 <json_object_new_object@plt>
    665c:	e2507000 	subs	r7, r0, #0
    6660:	0a000044 	beq	6778 <removeTunnelInterface+0x184>
    6664:	e5960018 	ldr	r0, [r6, #24]
    6668:	ebffec7e 	bl	1868 <json_object_new_string@plt>
    666c:	e59f4150 	ldr	r4, [pc, #336]	@ 67c4 <removeTunnelInterface+0x1d0>
    6670:	e0851004 	add	r1, r5, r4
    6674:	e1a02000 	mov	r2, r0
    6678:	e1a00007 	mov	r0, r7
    667c:	ebffece2 	bl	1a0c <json_object_object_add@plt>
    6680:	e1a00007 	mov	r0, r7
    6684:	e5984010 	ldr	r4, [r8, #16]
    6688:	ebffed51 	bl	1bd4 <json_object_to_json_string@plt>
    668c:	e5961040 	ldr	r1, [r6, #64]	@ 0x40
    6690:	e3510000 	cmp	r1, #0
    6694:	13a01000 	movne	r1, #0
    6698:	0a000024 	beq	6730 <removeTunnelInterface+0x13c>
    669c:	e1a02006 	mov	r2, r6
    66a0:	e12fff34 	blx	r4
    66a4:	e1a00007 	mov	r0, r7
    66a8:	e28dd008 	add	sp, sp, #8
    66ac:	e8bd41f0 	pop	{r4, r5, r6, r7, r8, lr}
    66b0:	eaffed3e 	b	1bb0 <json_object_put@plt>
    66b4:	e59f710c 	ldr	r7, [pc, #268]	@ 67c8 <removeTunnelInterface+0x1d4>
    66b8:	e3a01007 	mov	r1, #7
    66bc:	e59f2108 	ldr	r2, [pc, #264]	@ 67cc <removeTunnelInterface+0x1d8>
    66c0:	e0853007 	add	r3, r5, r7
    66c4:	e59f70f0 	ldr	r7, [pc, #240]	@ 67bc <removeTunnelInterface+0x1c8>
    66c8:	e0852002 	add	r2, r5, r2
    66cc:	ebffecda 	bl	1a3c <PmLogPrint_@plt>
    66d0:	e7d5c007 	ldrb	ip, [r5, r7]
    66d4:	e35c0000 	cmp	ip, #0
    66d8:	1affffd6 	bne	6638 <removeTunnelInterface+0x44>
    66dc:	e795e004 	ldr	lr, [r5, r4]
    66e0:	e59e0000 	ldr	r0, [lr]
    66e4:	e3500000 	cmp	r0, #0
    66e8:	0a000009 	beq	6714 <removeTunnelInterface+0x120>
    66ec:	e5904000 	ldr	r4, [r0]
    66f0:	e3540006 	cmp	r4, #6
    66f4:	ca000006 	bgt	6714 <removeTunnelInterface+0x120>
    66f8:	e3a04000 	mov	r4, #0
    66fc:	e1a00006 	mov	r0, r6
    6700:	e586400c 	str	r4, [r6, #12]
    6704:	ebfff0ea 	bl	2ab4 <notify_connection_state>
    6708:	e7c54007 	strb	r4, [r5, r7]
    670c:	e28dd008 	add	sp, sp, #8
    6710:	e8bd81f0 	pop	{r4, r5, r6, r7, r8, pc}
    6714:	e59fc0ac 	ldr	ip, [pc, #172]	@ 67c8 <removeTunnelInterface+0x1d4>
    6718:	e3a01007 	mov	r1, #7
    671c:	e59f20ac 	ldr	r2, [pc, #172]	@ 67d0 <removeTunnelInterface+0x1dc>
    6720:	e085300c 	add	r3, r5, ip
    6724:	e0852002 	add	r2, r5, r2
    6728:	ebffecc3 	bl	1a3c <PmLogPrint_@plt>
    672c:	eafffff1 	b	66f8 <removeTunnelInterface+0x104>
    6730:	e59fe09c 	ldr	lr, [pc, #156]	@ 67d4 <removeTunnelInterface+0x1e0>
    6734:	e085100e 	add	r1, r5, lr
    6738:	eaffffd7 	b	669c <removeTunnelInterface+0xa8>
    673c:	e7951004 	ldr	r1, [r5, r4]
    6740:	e5910000 	ldr	r0, [r1]
    6744:	e3500000 	cmp	r0, #0
    6748:	0a000002 	beq	6758 <removeTunnelInterface+0x164>
    674c:	e5902000 	ldr	r2, [r0]
    6750:	e3520002 	cmp	r2, #2
    6754:	daffffec 	ble	670c <removeTunnelInterface+0x118>
    6758:	e59f3078 	ldr	r3, [pc, #120]	@ 67d8 <removeTunnelInterface+0x1e4>
    675c:	e3a01003 	mov	r1, #3
    6760:	e58dc000 	str	ip, [sp]
    6764:	e59fc05c 	ldr	ip, [pc, #92]	@ 67c8 <removeTunnelInterface+0x1d4>
    6768:	e0852003 	add	r2, r5, r3
    676c:	e085300c 	add	r3, r5, ip
    6770:	ebffecb1 	bl	1a3c <PmLogPrint_@plt>
    6774:	eaffffe4 	b	670c <removeTunnelInterface+0x118>
    6778:	e7952004 	ldr	r2, [r5, r4]
    677c:	e5920000 	ldr	r0, [r2]
    6780:	e3500000 	cmp	r0, #0
    6784:	0a000002 	beq	6794 <removeTunnelInterface+0x1a0>
    6788:	e590c000 	ldr	ip, [r0]
    678c:	e35c0002 	cmp	ip, #2
    6790:	daffffdd 	ble	670c <removeTunnelInterface+0x118>
    6794:	e59fe040 	ldr	lr, [pc, #64]	@ 67dc <removeTunnelInterface+0x1e8>
    6798:	e3a01003 	mov	r1, #3
    679c:	e59f3024 	ldr	r3, [pc, #36]	@ 67c8 <removeTunnelInterface+0x1d4>
    67a0:	e085200e 	add	r2, r5, lr
    67a4:	e0853003 	add	r3, r5, r3
    67a8:	e28dd008 	add	sp, sp, #8
    67ac:	e8bd41f0 	pop	{r4, r5, r6, r7, r8, lr}
    67b0:	eaffeca1 	b	1a3c <PmLogPrint_@plt>
    67b4:	0000cb30 	.word	0x0000cb30
    67b8:	00000190 	.word	0x00000190
    67bc:	000005a4 	.word	0x000005a4
    67c0:	000001a0 	.word	0x000001a0
    67c4:	ffff6cf0 	.word	0xffff6cf0
    67c8:	ffff5ac0 	.word	0xffff5ac0
    67cc:	ffff6cd0 	.word	0xffff6cd0
    67d0:	ffff6d50 	.word	0xffff6d50
    67d4:	ffff36c4 	.word	0xffff36c4
    67d8:	ffff6d24 	.word	0xffff6d24
    67dc:	ffff6cf8 	.word	0xffff6cf8

000067e0 <clear_interface_json_obj>:
    67e0:	e92d4010 	push	{r4, lr}
    67e4:	e1a04000 	mov	r4, r0
    67e8:	e590002c 	ldr	r0, [r0, #44]	@ 0x2c
    67ec:	e3500000 	cmp	r0, #0
    67f0:	08bd8010 	popeq	{r4, pc}
    67f4:	ebffeced 	bl	1bb0 <json_object_put@plt>
    67f8:	e3a03000 	mov	r3, #0
    67fc:	e584302c 	str	r3, [r4, #44]	@ 0x2c
    6800:	e8bd8010 	pop	{r4, pc}

00006804 <handleRemoveInterfaceResponse>:
    6804:	e59f311c 	ldr	r3, [pc, #284]	@ 6928 <handleRemoveInterfaceResponse+0x124>
    6808:	e92d40f0 	push	{r4, r5, r6, r7, lr}
    680c:	e24dd00c 	sub	sp, sp, #12
    6810:	e1a07001 	mov	r7, r1
    6814:	e08f5003 	add	r5, pc, r3
    6818:	ebffec66 	bl	19b8 <json_tokener_parse@plt>
    681c:	e3700efa 	cmn	r0, #4000	@ 0xfa0
    6820:	e1a06000 	mov	r6, r0
    6824:	9a000001 	bls	6830 <handleRemoveInterfaceResponse+0x2c>
    6828:	e28dd00c 	add	sp, sp, #12
    682c:	e8bd80f0 	pop	{r4, r5, r6, r7, pc}
    6830:	e59f10f4 	ldr	r1, [pc, #244]	@ 692c <handleRemoveInterfaceResponse+0x128>
    6834:	e0851001 	add	r1, r5, r1
    6838:	ebffec9a 	bl	1aa8 <json_object_object_get@plt>
    683c:	ebffebfd 	bl	1838 <json_object_get_boolean@plt>
    6840:	e3500000 	cmp	r0, #0
    6844:	0a000018 	beq	68ac <handleRemoveInterfaceResponse+0xa8>
    6848:	e59f00e0 	ldr	r0, [pc, #224]	@ 6930 <handleRemoveInterfaceResponse+0x12c>
    684c:	e7952000 	ldr	r2, [r5, r0]
    6850:	e5920000 	ldr	r0, [r2]
    6854:	e3500000 	cmp	r0, #0
    6858:	0a000002 	beq	6868 <handleRemoveInterfaceResponse+0x64>
    685c:	e5904000 	ldr	r4, [r0]
    6860:	e3540006 	cmp	r4, #6
    6864:	da000006 	ble	6884 <handleRemoveInterfaceResponse+0x80>
    6868:	e59f30c4 	ldr	r3, [pc, #196]	@ 6934 <handleRemoveInterfaceResponse+0x130>
    686c:	e3a01007 	mov	r1, #7
    6870:	e59fe0c0 	ldr	lr, [pc, #192]	@ 6938 <handleRemoveInterfaceResponse+0x134>
    6874:	e085c003 	add	ip, r5, r3
    6878:	e085200e 	add	r2, r5, lr
    687c:	e28c3018 	add	r3, ip, #24
    6880:	ebffec6d 	bl	1a3c <PmLogPrint_@plt>
    6884:	e1a00007 	mov	r0, r7
    6888:	e3a04000 	mov	r4, #0
    688c:	e587400c 	str	r4, [r7, #12]
    6890:	ebfff087 	bl	2ab4 <notify_connection_state>
    6894:	e59f10a0 	ldr	r1, [pc, #160]	@ 693c <handleRemoveInterfaceResponse+0x138>
    6898:	e1a00006 	mov	r0, r6
    689c:	e7c54001 	strb	r4, [r5, r1]
    68a0:	e28dd00c 	add	sp, sp, #12
    68a4:	e8bd40f0 	pop	{r4, r5, r6, r7, lr}
    68a8:	eaffecc0 	b	1bb0 <json_object_put@plt>
    68ac:	e59f208c 	ldr	r2, [pc, #140]	@ 6940 <handleRemoveInterfaceResponse+0x13c>
    68b0:	e1a00006 	mov	r0, r6
    68b4:	e0851002 	add	r1, r5, r2
    68b8:	ebffec7a 	bl	1aa8 <json_object_object_get@plt>
    68bc:	ebffec13 	bl	1910 <json_object_get_string@plt>
    68c0:	ebffebee 	bl	1880 <g_strdup@plt>
    68c4:	e1a04000 	mov	r4, r0
    68c8:	e1a00006 	mov	r0, r6
    68cc:	ebffecb7 	bl	1bb0 <json_object_put@plt>
    68d0:	e3540000 	cmp	r4, #0
    68d4:	0affffd3 	beq	6828 <handleRemoveInterfaceResponse+0x24>
    68d8:	e59f0050 	ldr	r0, [pc, #80]	@ 6930 <handleRemoveInterfaceResponse+0x12c>
    68dc:	e795c000 	ldr	ip, [r5, r0]
    68e0:	e59c0000 	ldr	r0, [ip]
    68e4:	e3500000 	cmp	r0, #0
    68e8:	0a000002 	beq	68f8 <handleRemoveInterfaceResponse+0xf4>
    68ec:	e590e000 	ldr	lr, [r0]
    68f0:	e35e0002 	cmp	lr, #2
    68f4:	da000007 	ble	6918 <handleRemoveInterfaceResponse+0x114>
    68f8:	e59fc034 	ldr	ip, [pc, #52]	@ 6934 <handleRemoveInterfaceResponse+0x130>
    68fc:	e3a01003 	mov	r1, #3
    6900:	e59f203c 	ldr	r2, [pc, #60]	@ 6944 <handleRemoveInterfaceResponse+0x140>
    6904:	e085300c 	add	r3, r5, ip
    6908:	e58d4000 	str	r4, [sp]
    690c:	e0852002 	add	r2, r5, r2
    6910:	e2833018 	add	r3, r3, #24
    6914:	ebffec48 	bl	1a3c <PmLogPrint_@plt>
    6918:	e1a00004 	mov	r0, r4
    691c:	e28dd00c 	add	sp, sp, #12
    6920:	e8bd40f0 	pop	{r4, r5, r6, r7, lr}
    6924:	eaffebb1 	b	17f0 <g_free@plt>
    6928:	0000c924 	.word	0x0000c924
    692c:	ffff64bc 	.word	0xffff64bc
    6930:	00000190 	.word	0x00000190
    6934:	ffff5ac0 	.word	0xffff5ac0
    6938:	ffff6d74 	.word	0xffff6d74
    693c:	000005a4 	.word	0x000005a4
    6940:	ffff6da0 	.word	0xffff6da0
    6944:	ffff6dac 	.word	0xffff6dac

00006948 <clear_preferred_if_addr>:
    6948:	e92d4010 	push	{r4, lr}
    694c:	e1a04000 	mov	r4, r0
    6950:	e5900034 	ldr	r0, [r0, #52]	@ 0x34
    6954:	e3500000 	cmp	r0, #0
    6958:	08bd8010 	popeq	{r4, pc}
    695c:	ebffeba3 	bl	17f0 <g_free@plt>
    6960:	e3a03000 	mov	r3, #0
    6964:	e5843034 	str	r3, [r4, #52]	@ 0x34
    6968:	e8bd8010 	pop	{r4, pc}

0000696c <set_preferred_if_addr>:
    696c:	e92d4070 	push	{r4, r5, r6, lr}
    6970:	e1a04001 	mov	r4, r1
    6974:	e1a05000 	mov	r5, r0
    6978:	ebfffff2 	bl	6948 <clear_preferred_if_addr>
    697c:	e1a00004 	mov	r0, r4
    6980:	ebffebbe 	bl	1880 <g_strdup@plt>
    6984:	e5850034 	str	r0, [r5, #52]	@ 0x34
    6988:	e8bd8070 	pop	{r4, r5, r6, pc}

0000698c <clear_preferred_if_type>:
    698c:	e92d4010 	push	{r4, lr}
    6990:	e1a04000 	mov	r4, r0
    6994:	e5900030 	ldr	r0, [r0, #48]	@ 0x30
    6998:	e3500000 	cmp	r0, #0
    699c:	08bd8010 	popeq	{r4, pc}
    69a0:	ebffeb92 	bl	17f0 <g_free@plt>
    69a4:	e3a03000 	mov	r3, #0
    69a8:	e5843030 	str	r3, [r4, #48]	@ 0x30
    69ac:	e8bd8010 	pop	{r4, pc}

000069b0 <set_preferred_if_type>:
    69b0:	e92d4070 	push	{r4, r5, r6, lr}
    69b4:	e1a04001 	mov	r4, r1
    69b8:	e1a05000 	mov	r5, r0
    69bc:	ebfffff2 	bl	698c <clear_preferred_if_type>
    69c0:	e1a00004 	mov	r0, r4
    69c4:	ebffebad 	bl	1880 <g_strdup@plt>
    69c8:	e5850030 	str	r0, [r5, #48]	@ 0x30
    69cc:	e8bd8070 	pop	{r4, r5, r6, pc}

000069d0 <clear_active_profile_name>:
    69d0:	e92d4010 	push	{r4, lr}
    69d4:	e1a04000 	mov	r4, r0
    69d8:	e5900000 	ldr	r0, [r0]
    69dc:	e3500000 	cmp	r0, #0
    69e0:	08bd8010 	popeq	{r4, pc}
    69e4:	ebffeb81 	bl	17f0 <g_free@plt>
    69e8:	e3a03000 	mov	r3, #0
    69ec:	e5843000 	str	r3, [r4]
    69f0:	e8bd8010 	pop	{r4, pc}

000069f4 <set_active_profile_name>:
    69f4:	e92d4070 	push	{r4, r5, r6, lr}
    69f8:	e1a04001 	mov	r4, r1
    69fc:	e1a05000 	mov	r5, r0
    6a00:	ebfffff2 	bl	69d0 <clear_active_profile_name>
    6a04:	e1a00004 	mov	r0, r4
    6a08:	ebffeb9c 	bl	1880 <g_strdup@plt>
    6a0c:	e5850000 	str	r0, [r5]
    6a10:	e8bd8070 	pop	{r4, r5, r6, pc}

00006a14 <clear_host_name>:
    6a14:	e92d4010 	push	{r4, lr}
    6a18:	e1a04000 	mov	r4, r0
    6a1c:	e5900008 	ldr	r0, [r0, #8]
    6a20:	e3500000 	cmp	r0, #0
    6a24:	08bd8010 	popeq	{r4, pc}
    6a28:	ebffeb70 	bl	17f0 <g_free@plt>
    6a2c:	e3a03000 	mov	r3, #0
    6a30:	e5843008 	str	r3, [r4, #8]
    6a34:	e8bd8010 	pop	{r4, pc}

00006a38 <clear_profile>:
    6a38:	e92d4010 	push	{r4, lr}
    6a3c:	e1a04000 	mov	r4, r0
    6a40:	e5900004 	ldr	r0, [r0, #4]
    6a44:	e3500000 	cmp	r0, #0
    6a48:	08bd8010 	popeq	{r4, pc}
    6a4c:	ebffeb67 	bl	17f0 <g_free@plt>
    6a50:	e3a03000 	mov	r3, #0
    6a54:	e5843004 	str	r3, [r4, #4]
    6a58:	e8bd8010 	pop	{r4, pc}

00006a5c <set_profile>:
    6a5c:	e92d4070 	push	{r4, r5, r6, lr}
    6a60:	e1a04001 	mov	r4, r1
    6a64:	e1a05000 	mov	r5, r0
    6a68:	ebfffff2 	bl	6a38 <clear_profile>
    6a6c:	e1a00004 	mov	r0, r4
    6a70:	ebffeb82 	bl	1880 <g_strdup@plt>
    6a74:	e5850004 	str	r0, [r5, #4]
    6a78:	e8bd8070 	pop	{r4, r5, r6, pc}

00006a7c <destroy_connection>:
    6a7c:	e92d4070 	push	{r4, r5, r6, lr}
    6a80:	e1a04000 	mov	r4, r0
    6a84:	e5900018 	ldr	r0, [r0, #24]
    6a88:	e59f30ac 	ldr	r3, [pc, #172]	@ 6b3c <destroy_connection+0xc0>
    6a8c:	e3500000 	cmp	r0, #0
    6a90:	e08f5003 	add	r5, pc, r3
    6a94:	0a000002 	beq	6aa4 <destroy_connection+0x28>
    6a98:	ebffeb54 	bl	17f0 <g_free@plt>
    6a9c:	e3a00000 	mov	r0, #0
    6aa0:	e5840018 	str	r0, [r4, #24]
    6aa4:	e594001c 	ldr	r0, [r4, #28]
    6aa8:	e3500000 	cmp	r0, #0
    6aac:	0a000002 	beq	6abc <destroy_connection+0x40>
    6ab0:	ebffeb4e 	bl	17f0 <g_free@plt>
    6ab4:	e3a01000 	mov	r1, #0
    6ab8:	e584101c 	str	r1, [r4, #28]
    6abc:	e5940020 	ldr	r0, [r4, #32]
    6ac0:	e3500000 	cmp	r0, #0
    6ac4:	0a000002 	beq	6ad4 <destroy_connection+0x58>
    6ac8:	ebffeb48 	bl	17f0 <g_free@plt>
    6acc:	e3a02000 	mov	r2, #0
    6ad0:	e5842020 	str	r2, [r4, #32]
    6ad4:	e5940024 	ldr	r0, [r4, #36]	@ 0x24
    6ad8:	e3500000 	cmp	r0, #0
    6adc:	0a000002 	beq	6aec <destroy_connection+0x70>
    6ae0:	ebffeb42 	bl	17f0 <g_free@plt>
    6ae4:	e3a0c000 	mov	ip, #0
    6ae8:	e584c024 	str	ip, [r4, #36]	@ 0x24
    6aec:	e5940028 	ldr	r0, [r4, #40]	@ 0x28
    6af0:	e3500000 	cmp	r0, #0
    6af4:	0a000002 	beq	6b04 <destroy_connection+0x88>
    6af8:	ebffeb3c 	bl	17f0 <g_free@plt>
    6afc:	e3a03000 	mov	r3, #0
    6b00:	e5843028 	str	r3, [r4, #40]	@ 0x28
    6b04:	e1a00004 	mov	r0, r4
    6b08:	ebffff9f 	bl	698c <clear_preferred_if_type>
    6b0c:	e1a00004 	mov	r0, r4
    6b10:	ebffff8c 	bl	6948 <clear_preferred_if_addr>
    6b14:	e1a00004 	mov	r0, r4
    6b18:	ebffff30 	bl	67e0 <clear_interface_json_obj>
    6b1c:	e1a00004 	mov	r0, r4
    6b20:	ebffffc4 	bl	6a38 <clear_profile>
    6b24:	e1a00004 	mov	r0, r4
    6b28:	ebffffa8 	bl	69d0 <clear_active_profile_name>
    6b2c:	e59f100c 	ldr	r1, [pc, #12]	@ 6b40 <destroy_connection+0xc4>
    6b30:	e7950001 	ldr	r0, [r5, r1]
    6b34:	e8bd4070 	pop	{r4, r5, r6, lr}
    6b38:	eaffffb5 	b	6a14 <clear_host_name>
    6b3c:	0000c6a8 	.word	0x0000c6a8
    6b40:	00000178 	.word	0x00000178

00006b44 <VpnDisconnected>:
    6b44:	e59f0184 	ldr	r0, [pc, #388]	@ 6cd0 <VpnDisconnected+0x18c>
    6b48:	e92d47f0 	push	{r4, r5, r6, r7, r8, r9, sl, lr}
    6b4c:	e59fa180 	ldr	sl, [pc, #384]	@ 6cd4 <VpnDisconnected+0x190>
    6b50:	e08f5000 	add	r5, pc, r0
    6b54:	e1a06001 	mov	r6, r1
    6b58:	e1a08002 	mov	r8, r2
    6b5c:	e795300a 	ldr	r3, [r5, sl]
    6b60:	e5930000 	ldr	r0, [r3]
    6b64:	e3500000 	cmp	r0, #0
    6b68:	0a000022 	beq	6bf8 <VpnDisconnected+0xb4>
    6b6c:	e5901000 	ldr	r1, [r0]
    6b70:	e3510006 	cmp	r1, #6
    6b74:	ca00001f 	bgt	6bf8 <VpnDisconnected+0xb4>
    6b78:	e59f7158 	ldr	r7, [pc, #344]	@ 6cd8 <VpnDisconnected+0x194>
    6b7c:	e795c007 	ldr	ip, [r5, r7]
    6b80:	e59c400c 	ldr	r4, [ip, #12]
    6b84:	e3540001 	cmp	r4, #1
    6b88:	0a000026 	beq	6c28 <VpnDisconnected+0xe4>
    6b8c:	3a000017 	bcc	6bf0 <VpnDisconnected+0xac>
    6b90:	e3540003 	cmp	r4, #3
    6b94:	0a000023 	beq	6c28 <VpnDisconnected+0xe4>
    6b98:	e3540001 	cmp	r4, #1
    6b9c:	0a000025 	beq	6c38 <VpnDisconnected+0xf4>
    6ba0:	e3540002 	cmp	r4, #2
    6ba4:	0a00002f 	beq	6c68 <VpnDisconnected+0x124>
    6ba8:	e3540003 	cmp	r4, #3
    6bac:	0a000027 	beq	6c50 <VpnDisconnected+0x10c>
    6bb0:	e795100a 	ldr	r1, [r5, sl]
    6bb4:	e5910000 	ldr	r0, [r1]
    6bb8:	e3500000 	cmp	r0, #0
    6bbc:	0a000002 	beq	6bcc <VpnDisconnected+0x88>
    6bc0:	e5902000 	ldr	r2, [r0]
    6bc4:	e3520006 	cmp	r2, #6
    6bc8:	da000006 	ble	6be8 <VpnDisconnected+0xa4>
    6bcc:	e59f3108 	ldr	r3, [pc, #264]	@ 6cdc <VpnDisconnected+0x198>
    6bd0:	e3a01007 	mov	r1, #7
    6bd4:	e59fe104 	ldr	lr, [pc, #260]	@ 6ce0 <VpnDisconnected+0x19c>
    6bd8:	e085c003 	add	ip, r5, r3
    6bdc:	e085200e 	add	r2, r5, lr
    6be0:	e28c3038 	add	r3, ip, #56	@ 0x38
    6be4:	ebffeb94 	bl	1a3c <PmLogPrint_@plt>
    6be8:	e7950007 	ldr	r0, [r5, r7]
    6bec:	ebffffa2 	bl	6a7c <destroy_connection>
    6bf0:	e3a00000 	mov	r0, #0
    6bf4:	e8bd87f0 	pop	{r4, r5, r6, r7, r8, r9, sl, pc}
    6bf8:	e59f70dc 	ldr	r7, [pc, #220]	@ 6cdc <VpnDisconnected+0x198>
    6bfc:	e3a01007 	mov	r1, #7
    6c00:	e59f20dc 	ldr	r2, [pc, #220]	@ 6ce4 <VpnDisconnected+0x1a0>
    6c04:	e0854007 	add	r4, r5, r7
    6c08:	e59f70c8 	ldr	r7, [pc, #200]	@ 6cd8 <VpnDisconnected+0x194>
    6c0c:	e2843038 	add	r3, r4, #56	@ 0x38
    6c10:	e0852002 	add	r2, r5, r2
    6c14:	ebffeb88 	bl	1a3c <PmLogPrint_@plt>
    6c18:	e795c007 	ldr	ip, [r5, r7]
    6c1c:	e59c400c 	ldr	r4, [ip, #12]
    6c20:	e3540001 	cmp	r4, #1
    6c24:	1affffd8 	bne	6b8c <VpnDisconnected+0x48>
    6c28:	e7950007 	ldr	r0, [r5, r7]
    6c2c:	ebfffe70 	bl	65f4 <removeTunnelInterface>
    6c30:	e3540001 	cmp	r4, #1
    6c34:	1affffd9 	bne	6ba0 <VpnDisconnected+0x5c>
    6c38:	e1a00006 	mov	r0, r6
    6c3c:	ebfffbc3 	bl	5b50 <LOCALIZED>
    6c40:	e1a01000 	mov	r1, r0
    6c44:	e3a00003 	mov	r0, #3
    6c48:	ebfff0cc 	bl	2f80 <notify_notice_message>
    6c4c:	eaffffd7 	b	6bb0 <VpnDisconnected+0x6c>
    6c50:	e1a00006 	mov	r0, r6
    6c54:	ebfffbbd 	bl	5b50 <LOCALIZED>
    6c58:	e1a01000 	mov	r1, r0
    6c5c:	e3a00000 	mov	r0, #0
    6c60:	ebffef4c 	bl	2998 <send_vpnd_connect_cmd_response>
    6c64:	eaffffd1 	b	6bb0 <VpnDisconnected+0x6c>
    6c68:	e795e007 	ldr	lr, [r5, r7]
    6c6c:	e3a03000 	mov	r3, #0
    6c70:	e1a0000e 	mov	r0, lr
    6c74:	e58e300c 	str	r3, [lr, #12]
    6c78:	ebffef8d 	bl	2ab4 <notify_connection_state>
    6c7c:	e3580000 	cmp	r8, #0
    6c80:	1a000008 	bne	6ca8 <VpnDisconnected+0x164>
    6c84:	e3560000 	cmp	r6, #0
    6c88:	e1a00006 	mov	r0, r6
    6c8c:	01a04006 	moveq	r4, r6
    6c90:	13e04000 	mvnne	r4, #0
    6c94:	ebfffbad 	bl	5b50 <LOCALIZED>
    6c98:	e1a01000 	mov	r1, r0
    6c9c:	e1a00004 	mov	r0, r4
    6ca0:	ebffef3c 	bl	2998 <send_vpnd_connect_cmd_response>
    6ca4:	eaffffc1 	b	6bb0 <VpnDisconnected+0x6c>
    6ca8:	e59f0038 	ldr	r0, [pc, #56]	@ 6ce8 <VpnDisconnected+0x1a4>
    6cac:	e0850000 	add	r0, r5, r0
    6cb0:	ebfffba6 	bl	5b50 <LOCALIZED>
    6cb4:	e1a01000 	mov	r1, r0
    6cb8:	e3e00006 	mvn	r0, #6
    6cbc:	ebffef35 	bl	2998 <send_vpnd_connect_cmd_response>
    6cc0:	e1a00006 	mov	r0, r6
    6cc4:	ebfffba1 	bl	5b50 <LOCALIZED>
    6cc8:	ebfff345 	bl	39e4 <promptUserForCredentials>
    6ccc:	eaffffb7 	b	6bb0 <VpnDisconnected+0x6c>
    6cd0:	0000c5e8 	.word	0x0000c5e8
    6cd4:	00000190 	.word	0x00000190
    6cd8:	00000178 	.word	0x00000178
    6cdc:	ffff5ac0 	.word	0xffff5ac0
    6ce0:	ffff6de0 	.word	0xffff6de0
    6ce4:	ffff5ee8 	.word	0xffff5ee8
    6ce8:	ffff63f8 	.word	0xffff63f8

00006cec <VpnConnected>:
    6cec:	e92d40f0 	push	{r4, r5, r6, r7, lr}
    6cf0:	e1a05000 	mov	r5, r0
    6cf4:	e59f0104 	ldr	r0, [pc, #260]	@ 6e00 <VpnConnected+0x114>
    6cf8:	e24dd00c 	sub	sp, sp, #12
    6cfc:	e59f7100 	ldr	r7, [pc, #256]	@ 6e04 <VpnConnected+0x118>
    6d00:	e08f4000 	add	r4, pc, r0
    6d04:	e7943007 	ldr	r3, [r4, r7]
    6d08:	e593e008 	ldr	lr, [r3, #8]
    6d0c:	e35e0000 	cmp	lr, #0
    6d10:	0a00001f 	beq	6d94 <VpnConnected+0xa8>
    6d14:	e595002c 	ldr	r0, [r5, #44]	@ 0x2c
    6d18:	e3500000 	cmp	r0, #0
    6d1c:	0a00001c 	beq	6d94 <VpnConnected+0xa8>
    6d20:	ebffebab 	bl	1bd4 <json_object_to_json_string@plt>
    6d24:	e59f10dc 	ldr	r1, [pc, #220]	@ 6e08 <VpnConnected+0x11c>
    6d28:	e7942001 	ldr	r2, [r4, r1]
    6d2c:	e1a06000 	mov	r6, r0
    6d30:	e5920000 	ldr	r0, [r2]
    6d34:	e3500000 	cmp	r0, #0
    6d38:	0a000002 	beq	6d48 <VpnConnected+0x5c>
    6d3c:	e590c000 	ldr	ip, [r0]
    6d40:	e35c0006 	cmp	ip, #6
    6d44:	da000007 	ble	6d68 <VpnConnected+0x7c>
    6d48:	e59f30bc 	ldr	r3, [pc, #188]	@ 6e0c <VpnConnected+0x120>
    6d4c:	e3a01007 	mov	r1, #7
    6d50:	e59f20b8 	ldr	r2, [pc, #184]	@ 6e10 <VpnConnected+0x124>
    6d54:	e084e003 	add	lr, r4, r3
    6d58:	e58d6000 	str	r6, [sp]
    6d5c:	e0842002 	add	r2, r4, r2
    6d60:	e28e3048 	add	r3, lr, #72	@ 0x48
    6d64:	ebffeb34 	bl	1a3c <PmLogPrint_@plt>
    6d68:	e59f10a4 	ldr	r1, [pc, #164]	@ 6e14 <VpnConnected+0x128>
    6d6c:	e1a00006 	mov	r0, r6
    6d70:	e794c007 	ldr	ip, [r4, r7]
    6d74:	e1a02005 	mov	r2, r5
    6d78:	e0841001 	add	r1, r4, r1
    6d7c:	e1a0e00f 	mov	lr, pc
    6d80:	e59cf008 	ldr	pc, [ip, #8]
    6d84:	e1a00005 	mov	r0, r5
    6d88:	e28dd00c 	add	sp, sp, #12
    6d8c:	e8bd40f0 	pop	{r4, r5, r6, r7, lr}
    6d90:	eafffe92 	b	67e0 <clear_interface_json_obj>
    6d94:	e59f006c 	ldr	r0, [pc, #108]	@ 6e08 <VpnConnected+0x11c>
    6d98:	e7942000 	ldr	r2, [r4, r0]
    6d9c:	e5920000 	ldr	r0, [r2]
    6da0:	e3500000 	cmp	r0, #0
    6da4:	0a000002 	beq	6db4 <VpnConnected+0xc8>
    6da8:	e5903000 	ldr	r3, [r0]
    6dac:	e3530002 	cmp	r3, #2
    6db0:	da000009 	ble	6ddc <VpnConnected+0xf0>
    6db4:	e59f3050 	ldr	r3, [pc, #80]	@ 6e0c <VpnConnected+0x120>
    6db8:	e3a01003 	mov	r1, #3
    6dbc:	e595c02c 	ldr	ip, [r5, #44]	@ 0x2c
    6dc0:	e58de000 	str	lr, [sp]
    6dc4:	e0842003 	add	r2, r4, r3
    6dc8:	e59fe048 	ldr	lr, [pc, #72]	@ 6e18 <VpnConnected+0x12c>
    6dcc:	e2823048 	add	r3, r2, #72	@ 0x48
    6dd0:	e58dc004 	str	ip, [sp, #4]
    6dd4:	e084200e 	add	r2, r4, lr
    6dd8:	ebffeb17 	bl	1a3c <PmLogPrint_@plt>
    6ddc:	e59f1038 	ldr	r1, [pc, #56]	@ 6e1c <VpnConnected+0x130>
    6de0:	e0840001 	add	r0, r4, r1
    6de4:	ebfffb59 	bl	5b50 <LOCALIZED>
    6de8:	e1a01000 	mov	r1, r0
    6dec:	e3e00000 	mvn	r0, #0
    6df0:	ebffeee8 	bl	2998 <send_vpnd_connect_cmd_response>
    6df4:	e28dd00c 	add	sp, sp, #12
    6df8:	e8bd40f0 	pop	{r4, r5, r6, r7, lr}
    6dfc:	ea0000af 	b	70c0 <teardown_vpnc>
    6e00:	0000c438 	.word	0x0000c438
    6e04:	000001a0 	.word	0x000001a0
    6e08:	00000190 	.word	0x00000190
    6e0c:	ffff5ac0 	.word	0xffff5ac0
    6e10:	ffff6dfc 	.word	0xffff6dfc
    6e14:	ffff3d24 	.word	0xffff3d24
    6e18:	ffff6e1c 	.word	0xffff6e1c
    6e1c:	ffff6e64 	.word	0xffff6e64

00006e20 <disconnect_vpn>:
    6e20:	e92d4010 	push	{r4, lr}
    6e24:	e1a04000 	mov	r4, r0
    6e28:	ebfffdcc 	bl	6560 <get_active_profile_name>
    6e2c:	e3500000 	cmp	r0, #0
    6e30:	1a000001 	bne	6e3c <disconnect_vpn+0x1c>
    6e34:	e3e00000 	mvn	r0, #0
    6e38:	e8bd8010 	pop	{r4, pc}
    6e3c:	e5d03000 	ldrb	r3, [r0]
    6e40:	e3530000 	cmp	r3, #0
    6e44:	0afffffa 	beq	6e34 <disconnect_vpn+0x14>
    6e48:	e1a00004 	mov	r0, r4
    6e4c:	e3a01003 	mov	r1, #3
    6e50:	e584100c 	str	r1, [r4, #12]
    6e54:	ebffef16 	bl	2ab4 <notify_connection_state>
    6e58:	eb000098 	bl	70c0 <teardown_vpnc>
    6e5c:	e3a00000 	mov	r0, #0
    6e60:	e8bd8010 	pop	{r4, pc}

00006e64 <handleAddInterfaceResponse>:
    6e64:	e92d4ff0 	push	{r4, r5, r6, r7, r8, r9, sl, fp, lr}
    6e68:	e1a0b001 	mov	fp, r1
    6e6c:	e59f11f0 	ldr	r1, [pc, #496]	@ 7064 <handleAddInterfaceResponse+0x200>
    6e70:	e24dd00c 	sub	sp, sp, #12
    6e74:	e1a07000 	mov	r7, r0
    6e78:	e59fa1e8 	ldr	sl, [pc, #488]	@ 7068 <handleAddInterfaceResponse+0x204>
    6e7c:	e08f5001 	add	r5, pc, r1
    6e80:	ebffeacc 	bl	19b8 <json_tokener_parse@plt>
    6e84:	e795300a 	ldr	r3, [r5, sl]
    6e88:	e5936000 	ldr	r6, [r3]
    6e8c:	e3560000 	cmp	r6, #0
    6e90:	e1a08000 	mov	r8, r0
    6e94:	0a00001f 	beq	6f18 <handleAddInterfaceResponse+0xb4>
    6e98:	e5960000 	ldr	r0, [r6]
    6e9c:	e3500006 	cmp	r0, #6
    6ea0:	ca00001c 	bgt	6f18 <handleAddInterfaceResponse+0xb4>
    6ea4:	e3780efa 	cmn	r8, #4000	@ 0xfa0
    6ea8:	8a00003a 	bhi	6f98 <handleAddInterfaceResponse+0x134>
    6eac:	e59fc1b8 	ldr	ip, [pc, #440]	@ 706c <handleAddInterfaceResponse+0x208>
    6eb0:	e1a00008 	mov	r0, r8
    6eb4:	e085100c 	add	r1, r5, ip
    6eb8:	ebffeafa 	bl	1aa8 <json_object_object_get@plt>
    6ebc:	ebffea5d 	bl	1838 <json_object_get_boolean@plt>
    6ec0:	e3500000 	cmp	r0, #0
    6ec4:	0a00005b 	beq	7038 <handleAddInterfaceResponse+0x1d4>
    6ec8:	e795400a 	ldr	r4, [r5, sl]
    6ecc:	e5940000 	ldr	r0, [r4]
    6ed0:	e3500000 	cmp	r0, #0
    6ed4:	0a00004f 	beq	7018 <handleAddInterfaceResponse+0x1b4>
    6ed8:	e5903000 	ldr	r3, [r0]
    6edc:	e3530006 	cmp	r3, #6
    6ee0:	ca00004c 	bgt	7018 <handleAddInterfaceResponse+0x1b4>
    6ee4:	e1a0000b 	mov	r0, fp
    6ee8:	e3a04001 	mov	r4, #1
    6eec:	e58b400c 	str	r4, [fp, #12]
    6ef0:	e3a06000 	mov	r6, #0
    6ef4:	ebffeeee 	bl	2ab4 <notify_connection_state>
    6ef8:	e59f0170 	ldr	r0, [pc, #368]	@ 7070 <handleAddInterfaceResponse+0x20c>
    6efc:	e7c54000 	strb	r4, [r5, r0]
    6f00:	e1a00008 	mov	r0, r8
    6f04:	ebffeb29 	bl	1bb0 <json_object_put@plt>
    6f08:	e3560000 	cmp	r6, #0
    6f0c:	1a000027 	bne	6fb0 <handleAddInterfaceResponse+0x14c>
    6f10:	e28dd00c 	add	sp, sp, #12
    6f14:	e8bd8ff0 	pop	{r4, r5, r6, r7, r8, r9, sl, fp, pc}
    6f18:	ebffeaf4 	bl	1af0 <getpid@plt>
    6f1c:	e59f9150 	ldr	r9, [pc, #336]	@ 7074 <handleAddInterfaceResponse+0x210>
    6f20:	e1a04000 	mov	r4, r0
    6f24:	e3a000e0 	mov	r0, #224	@ 0xe0
    6f28:	ebffeb0e 	bl	1b68 <syscall@plt>
    6f2c:	e59f3144 	ldr	r3, [pc, #324]	@ 7078 <handleAddInterfaceResponse+0x214>
    6f30:	e085c009 	add	ip, r5, r9
    6f34:	e3a01007 	mov	r1, #7
    6f38:	e0852003 	add	r2, r5, r3
    6f3c:	e28c3058 	add	r3, ip, #88	@ 0x58
    6f40:	e58d4000 	str	r4, [sp]
    6f44:	e58d0004 	str	r0, [sp, #4]
    6f48:	e1a00006 	mov	r0, r6
    6f4c:	ebffeaba 	bl	1a3c <PmLogPrint_@plt>
    6f50:	e795200a 	ldr	r2, [r5, sl]
    6f54:	e5920000 	ldr	r0, [r2]
    6f58:	e3500000 	cmp	r0, #0
    6f5c:	0a000002 	beq	6f6c <handleAddInterfaceResponse+0x108>
    6f60:	e5906000 	ldr	r6, [r0]
    6f64:	e3560006 	cmp	r6, #6
    6f68:	daffffcd 	ble	6ea4 <handleAddInterfaceResponse+0x40>
    6f6c:	e3570000 	cmp	r7, #0
    6f70:	0a000038 	beq	7058 <handleAddInterfaceResponse+0x1f4>
    6f74:	e59f1100 	ldr	r1, [pc, #256]	@ 707c <handleAddInterfaceResponse+0x218>
    6f78:	e0852009 	add	r2, r5, r9
    6f7c:	e2823058 	add	r3, r2, #88	@ 0x58
    6f80:	e58d7000 	str	r7, [sp]
    6f84:	e0852001 	add	r2, r5, r1
    6f88:	e3a01007 	mov	r1, #7
    6f8c:	ebffeaaa 	bl	1a3c <PmLogPrint_@plt>
    6f90:	e3780efa 	cmn	r8, #4000	@ 0xfa0
    6f94:	9affffc4 	bls	6eac <handleAddInterfaceResponse+0x48>
    6f98:	e59fc0e0 	ldr	ip, [pc, #224]	@ 7080 <handleAddInterfaceResponse+0x21c>
    6f9c:	e085000c 	add	r0, r5, ip
    6fa0:	ebffea36 	bl	1880 <g_strdup@plt>
    6fa4:	e1a06000 	mov	r6, r0
    6fa8:	e3560000 	cmp	r6, #0
    6fac:	0affffd7 	beq	6f10 <handleAddInterfaceResponse+0xac>
    6fb0:	e795300a 	ldr	r3, [r5, sl]
    6fb4:	e5930000 	ldr	r0, [r3]
    6fb8:	e3500000 	cmp	r0, #0
    6fbc:	0a000002 	beq	6fcc <handleAddInterfaceResponse+0x168>
    6fc0:	e590e000 	ldr	lr, [r0]
    6fc4:	e35e0002 	cmp	lr, #2
    6fc8:	da000007 	ble	6fec <handleAddInterfaceResponse+0x188>
    6fcc:	e59f30a0 	ldr	r3, [pc, #160]	@ 7074 <handleAddInterfaceResponse+0x210>
    6fd0:	e3a01003 	mov	r1, #3
    6fd4:	e59f20a8 	ldr	r2, [pc, #168]	@ 7084 <handleAddInterfaceResponse+0x220>
    6fd8:	e085c003 	add	ip, r5, r3
    6fdc:	e58d6000 	str	r6, [sp]
    6fe0:	e0852002 	add	r2, r5, r2
    6fe4:	e28c3058 	add	r3, ip, #88	@ 0x58
    6fe8:	ebffea93 	bl	1a3c <PmLogPrint_@plt>
    6fec:	e1a00006 	mov	r0, r6
    6ff0:	ebffe9fe 	bl	17f0 <g_free@plt>
    6ff4:	e59f008c 	ldr	r0, [pc, #140]	@ 7088 <handleAddInterfaceResponse+0x224>
    6ff8:	e0850000 	add	r0, r5, r0
    6ffc:	ebfffad3 	bl	5b50 <LOCALIZED>
    7000:	e1a01000 	mov	r1, r0
    7004:	e3e00000 	mvn	r0, #0
    7008:	ebffee62 	bl	2998 <send_vpnd_connect_cmd_response>
    700c:	e28dd00c 	add	sp, sp, #12
    7010:	e8bd4ff0 	pop	{r4, r5, r6, r7, r8, r9, sl, fp, lr}
    7014:	ea000029 	b	70c0 <teardown_vpnc>
    7018:	e59f2054 	ldr	r2, [pc, #84]	@ 7074 <handleAddInterfaceResponse+0x210>
    701c:	e3a01007 	mov	r1, #7
    7020:	e59fe064 	ldr	lr, [pc, #100]	@ 708c <handleAddInterfaceResponse+0x228>
    7024:	e0856002 	add	r6, r5, r2
    7028:	e2863058 	add	r3, r6, #88	@ 0x58
    702c:	e085200e 	add	r2, r5, lr
    7030:	ebffea81 	bl	1a3c <PmLogPrint_@plt>
    7034:	eaffffaa 	b	6ee4 <handleAddInterfaceResponse+0x80>
    7038:	e59f1050 	ldr	r1, [pc, #80]	@ 7090 <handleAddInterfaceResponse+0x22c>
    703c:	e1a00008 	mov	r0, r8
    7040:	e0851001 	add	r1, r5, r1
    7044:	ebffea97 	bl	1aa8 <json_object_object_get@plt>
    7048:	ebffea30 	bl	1910 <json_object_get_string@plt>
    704c:	ebffea0b 	bl	1880 <g_strdup@plt>
    7050:	e1a06000 	mov	r6, r0
    7054:	eaffffa9 	b	6f00 <handleAddInterfaceResponse+0x9c>
    7058:	e59fe034 	ldr	lr, [pc, #52]	@ 7094 <handleAddInterfaceResponse+0x230>
    705c:	e085700e 	add	r7, r5, lr
    7060:	eaffffc3 	b	6f74 <handleAddInterfaceResponse+0x110>
    7064:	0000c2bc 	.word	0x0000c2bc
    7068:	00000190 	.word	0x00000190
    706c:	ffff64bc 	.word	0xffff64bc
    7070:	000005a4 	.word	0x000005a4
    7074:	ffff5ac0 	.word	0xffff5ac0
    7078:	ffff5b84 	.word	0xffff5b84
    707c:	ffff6e84 	.word	0xffff6e84
    7080:	ffff6ed0 	.word	0xffff6ed0
    7084:	ffff6ee4 	.word	0xffff6ee4
    7088:	ffff6e64 	.word	0xffff6e64
    708c:	ffff6ea0 	.word	0xffff6ea0
    7090:	ffff6da0 	.word	0xffff6da0
    7094:	ffff6200 	.word	0xffff6200

00007098 <set_host_name>:
    7098:	e92d4070 	push	{r4, r5, r6, lr}
    709c:	e1a04001 	mov	r4, r1
    70a0:	e1a05000 	mov	r5, r0
    70a4:	ebfffe5a 	bl	6a14 <clear_host_name>
    70a8:	e1a00004 	mov	r0, r4
    70ac:	ebffe9f3 	bl	1880 <g_strdup@plt>
    70b0:	e5850008 	str	r0, [r5, #8]
    70b4:	ebffea81 	bl	1ac0 <g_strchug@plt>
    70b8:	e8bd4070 	pop	{r4, r5, r6, lr}
    70bc:	eaffea70 	b	1a84 <g_strchomp@plt>

000070c0 <teardown_vpnc>:
    70c0:	e59f0044 	ldr	r0, [pc, #68]	@ 710c <teardown_vpnc+0x4c>
    70c4:	e59f3044 	ldr	r3, [pc, #68]	@ 7110 <teardown_vpnc+0x50>
    70c8:	e92d4010 	push	{r4, lr}
    70cc:	e08f4000 	add	r4, pc, r0
    70d0:	e7942003 	ldr	r2, [r4, r3]
    70d4:	e5920000 	ldr	r0, [r2]
    70d8:	e3500000 	cmp	r0, #0
    70dc:	0a000002 	beq	70ec <teardown_vpnc+0x2c>
    70e0:	e5901000 	ldr	r1, [r0]
    70e4:	e3510006 	cmp	r1, #6
    70e8:	da000003 	ble	70fc <teardown_vpnc+0x3c>
    70ec:	e59fc020 	ldr	ip, [pc, #32]	@ 7114 <teardown_vpnc+0x54>
    70f0:	e3a01007 	mov	r1, #7
    70f4:	e084200c 	add	r2, r4, ip
    70f8:	ebffea4f 	bl	1a3c <PmLogPrint_@plt>
    70fc:	e59f2014 	ldr	r2, [pc, #20]	@ 7118 <teardown_vpnc+0x58>
    7100:	e0840002 	add	r0, r4, r2
    7104:	e8bd4010 	pop	{r4, lr}
    7108:	eaffe9e2 	b	1898 <system@plt>
    710c:	0000c06c 	.word	0x0000c06c
    7110:	00000190 	.word	0x00000190
    7114:	ffff6f14 	.word	0xffff6f14
    7118:	ffff6f28 	.word	0xffff6f28

0000711c <VpnVpncStart>:
    711c:	e59f22e8 	ldr	r2, [pc, #744]	@ 740c <VpnVpncStart+0x2f0>
    7120:	e3a01000 	mov	r1, #0
    7124:	e92d4ff0 	push	{r4, r5, r6, r7, r8, r9, sl, fp, lr}
    7128:	e1a0a000 	mov	sl, r0
    712c:	e59f02dc 	ldr	r0, [pc, #732]	@ 7410 <VpnVpncStart+0x2f4>
    7130:	e08f5002 	add	r5, pc, r2
    7134:	e24dd02c 	sub	sp, sp, #44	@ 0x2c
    7138:	e59f92d4 	ldr	r9, [pc, #724]	@ 7414 <VpnVpncStart+0x2f8>
    713c:	e0850000 	add	r0, r5, r0
    7140:	e58d1024 	str	r1, [sp, #36]	@ 0x24
    7144:	ebffe9f4 	bl	191c <g_string_new@plt>
    7148:	e7953009 	ldr	r3, [r5, r9]
    714c:	e1a08000 	mov	r8, r0
    7150:	e5930000 	ldr	r0, [r3]
    7154:	e3500000 	cmp	r0, #0
    7158:	0a000069 	beq	7304 <VpnVpncStart+0x1e8>
    715c:	e5904000 	ldr	r4, [r0]
    7160:	e3540006 	cmp	r4, #6
    7164:	ca000066 	bgt	7304 <VpnVpncStart+0x1e8>
    7168:	e59fb2a8 	ldr	fp, [pc, #680]	@ 7418 <VpnVpncStart+0x2fc>
    716c:	e3a01010 	mov	r1, #16
    7170:	e085400b 	add	r4, r5, fp
    7174:	e1a00004 	mov	r0, r4
    7178:	ebffea86 	bl	1b98 <g_file_test@plt>
    717c:	e3500000 	cmp	r0, #0
    7180:	0a00006c 	beq	7338 <VpnVpncStart+0x21c>
    7184:	e59fc290 	ldr	ip, [pc, #656]	@ 741c <VpnVpncStart+0x300>
    7188:	e1a02004 	mov	r2, r4
    718c:	e1a00008 	mov	r0, r8
    7190:	e085100c 	add	r1, r5, ip
    7194:	ebffe9d4 	bl	18ec <g_string_printf@plt>
    7198:	ebffea66 	bl	1b38 <g_ptr_array_new@plt>
    719c:	e5981000 	ldr	r1, [r8]
    71a0:	e3a07000 	mov	r7, #0
    71a4:	e59fb274 	ldr	fp, [pc, #628]	@ 7420 <VpnVpncStart+0x304>
    71a8:	e28a403c 	add	r4, sl, #60	@ 0x3c
    71ac:	e1a06000 	mov	r6, r0
    71b0:	ebffe9e5 	bl	194c <g_ptr_array_add@plt>
    71b4:	e59f3268 	ldr	r3, [pc, #616]	@ 7424 <VpnVpncStart+0x308>
    71b8:	e1a00006 	mov	r0, r6
    71bc:	e0851003 	add	r1, r5, r3
    71c0:	ebffe9e1 	bl	194c <g_ptr_array_add@plt>
    71c4:	e59f225c 	ldr	r2, [pc, #604]	@ 7428 <VpnVpncStart+0x30c>
    71c8:	e1a00006 	mov	r0, r6
    71cc:	e0851002 	add	r1, r5, r2
    71d0:	ebffe9dd 	bl	194c <g_ptr_array_add@plt>
    71d4:	e59f1250 	ldr	r1, [pc, #592]	@ 742c <VpnVpncStart+0x310>
    71d8:	e1a00006 	mov	r0, r6
    71dc:	e0851001 	add	r1, r5, r1
    71e0:	ebffe9d9 	bl	194c <g_ptr_array_add@plt>
    71e4:	e1a00006 	mov	r0, r6
    71e8:	e1a01007 	mov	r1, r7
    71ec:	ebffe9d6 	bl	194c <g_ptr_array_add@plt>
    71f0:	e59f0238 	ldr	r0, [pc, #568]	@ 7430 <VpnVpncStart+0x314>
    71f4:	e5961000 	ldr	r1, [r6]
    71f8:	e1a02007 	mov	r2, r7
    71fc:	e3a03008 	mov	r3, #8
    7200:	e0850000 	add	r0, r5, r0
    7204:	e58d4008 	str	r4, [sp, #8]
    7208:	e28ac038 	add	ip, sl, #56	@ 0x38
    720c:	e085400b 	add	r4, r5, fp
    7210:	e58d7000 	str	r7, [sp]
    7214:	e58d4014 	str	r4, [sp, #20]
    7218:	e28d4024 	add	r4, sp, #36	@ 0x24
    721c:	e58d7004 	str	r7, [sp, #4]
    7220:	e58d4018 	str	r4, [sp, #24]
    7224:	e58dc00c 	str	ip, [sp, #12]
    7228:	e58d7010 	str	r7, [sp, #16]
    722c:	ebffe9bd 	bl	1928 <g_spawn_async_with_pipes@plt>
    7230:	e1500007 	cmp	r0, r7
    7234:	11a04007 	movne	r4, r7
    7238:	1a00000f 	bne	727c <VpnVpncStart+0x160>
    723c:	e795e009 	ldr	lr, [r5, r9]
    7240:	e59e0000 	ldr	r0, [lr]
    7244:	e3500000 	cmp	r0, #0
    7248:	0a000003 	beq	725c <VpnVpncStart+0x140>
    724c:	e590c000 	ldr	ip, [r0]
    7250:	e35c0002 	cmp	ip, #2
    7254:	d3e04000 	mvnle	r4, #0
    7258:	da000007 	ble	727c <VpnVpncStart+0x160>
    725c:	e59f41d0 	ldr	r4, [pc, #464]	@ 7434 <VpnVpncStart+0x318>
    7260:	e3a01003 	mov	r1, #3
    7264:	e59f21cc 	ldr	r2, [pc, #460]	@ 7438 <VpnVpncStart+0x31c>
    7268:	e0853004 	add	r3, r5, r4
    726c:	e3e04000 	mvn	r4, #0
    7270:	e0852002 	add	r2, r5, r2
    7274:	e2833010 	add	r3, r3, #16
    7278:	ebffe9ef 	bl	1a3c <PmLogPrint_@plt>
    727c:	e3a01001 	mov	r1, #1
    7280:	e1a00006 	mov	r0, r6
    7284:	ebffe9ce 	bl	19c4 <g_ptr_array_free@plt>
    7288:	e1a00008 	mov	r0, r8
    728c:	e3a01001 	mov	r1, #1
    7290:	ebffe9c2 	bl	19a0 <g_string_free@plt>
    7294:	e59d0024 	ldr	r0, [sp, #36]	@ 0x24
    7298:	e3500000 	cmp	r0, #0
    729c:	0a000000 	beq	72a4 <VpnVpncStart+0x188>
    72a0:	ebffea1e 	bl	1b20 <g_error_free@plt>
    72a4:	e3540000 	cmp	r4, #0
    72a8:	1a000040 	bne	73b0 <VpnVpncStart+0x294>
    72ac:	e7956009 	ldr	r6, [r5, r9]
    72b0:	e58d4024 	str	r4, [sp, #36]	@ 0x24
    72b4:	e5960000 	ldr	r0, [r6]
    72b8:	e3500000 	cmp	r0, #0
    72bc:	0a000026 	beq	735c <VpnVpncStart+0x240>
    72c0:	e5901000 	ldr	r1, [r0]
    72c4:	e3510006 	cmp	r1, #6
    72c8:	ca000023 	bgt	735c <VpnVpncStart+0x240>
    72cc:	e795000b 	ldr	r0, [r5, fp]
    72d0:	ebffe955 	bl	182c <g_io_channel_unix_new@plt>
    72d4:	e2506000 	subs	r6, r0, #0
    72d8:	0a000025 	beq	7374 <VpnVpncStart+0x258>
    72dc:	e59fc158 	ldr	ip, [pc, #344]	@ 743c <VpnVpncStart+0x320>
    72e0:	e1a0300a 	mov	r3, sl
    72e4:	e3a01011 	mov	r1, #17
    72e8:	e085200c 	add	r2, r5, ip
    72ec:	ebffe9c3 	bl	1a00 <g_io_add_watch@plt>
    72f0:	e3500000 	cmp	r0, #0
    72f4:	0a00002f 	beq	73b8 <VpnVpncStart+0x29c>
    72f8:	e1a00004 	mov	r0, r4
    72fc:	e28dd02c 	add	sp, sp, #44	@ 0x2c
    7300:	e8bd8ff0 	pop	{r4, r5, r6, r7, r8, r9, sl, fp, pc}
    7304:	e59fb10c 	ldr	fp, [pc, #268]	@ 7418 <VpnVpncStart+0x2fc>
    7308:	e3a01007 	mov	r1, #7
    730c:	e59f712c 	ldr	r7, [pc, #300]	@ 7440 <VpnVpncStart+0x324>
    7310:	e59f611c 	ldr	r6, [pc, #284]	@ 7434 <VpnVpncStart+0x318>
    7314:	e085400b 	add	r4, r5, fp
    7318:	e0852007 	add	r2, r5, r7
    731c:	e0853006 	add	r3, r5, r6
    7320:	ebffe9c5 	bl	1a3c <PmLogPrint_@plt>
    7324:	e3a01010 	mov	r1, #16
    7328:	e1a00004 	mov	r0, r4
    732c:	ebffea19 	bl	1b98 <g_file_test@plt>
    7330:	e3500000 	cmp	r0, #0
    7334:	1affff92 	bne	7184 <VpnVpncStart+0x68>
    7338:	e59fe104 	ldr	lr, [pc, #260]	@ 7444 <VpnVpncStart+0x328>
    733c:	e085000e 	add	r0, r5, lr
    7340:	ebffe9c6 	bl	1a60 <g_getenv@plt>
    7344:	e59f30fc 	ldr	r3, [pc, #252]	@ 7448 <VpnVpncStart+0x32c>
    7348:	e0851003 	add	r1, r5, r3
    734c:	e1a02000 	mov	r2, r0
    7350:	e1a00008 	mov	r0, r8
    7354:	ebffe964 	bl	18ec <g_string_printf@plt>
    7358:	eaffff8e 	b	7198 <VpnVpncStart+0x7c>
    735c:	e59fe0e8 	ldr	lr, [pc, #232]	@ 744c <VpnVpncStart+0x330>
    7360:	e3a01007 	mov	r1, #7
    7364:	e59a303c 	ldr	r3, [sl, #60]	@ 0x3c
    7368:	e085200e 	add	r2, r5, lr
    736c:	ebffe9b2 	bl	1a3c <PmLogPrint_@plt>
    7370:	eaffffd5 	b	72cc <VpnVpncStart+0x1b0>
    7374:	e795c009 	ldr	ip, [r5, r9]
    7378:	e59c0000 	ldr	r0, [ip]
    737c:	e3500000 	cmp	r0, #0
    7380:	0a000002 	beq	7390 <VpnVpncStart+0x274>
    7384:	e5903000 	ldr	r3, [r0]
    7388:	e3530002 	cmp	r3, #2
    738c:	da000006 	ble	73ac <VpnVpncStart+0x290>
    7390:	e59fe09c 	ldr	lr, [pc, #156]	@ 7434 <VpnVpncStart+0x318>
    7394:	e3a01003 	mov	r1, #3
    7398:	e59f20b0 	ldr	r2, [pc, #176]	@ 7450 <VpnVpncStart+0x334>
    739c:	e085400e 	add	r4, r5, lr
    73a0:	e0852002 	add	r2, r5, r2
    73a4:	e2843010 	add	r3, r4, #16
    73a8:	ebffe9a3 	bl	1a3c <PmLogPrint_@plt>
    73ac:	ebffff43 	bl	70c0 <teardown_vpnc>
    73b0:	e3e04000 	mvn	r4, #0
    73b4:	eaffffcf 	b	72f8 <VpnVpncStart+0x1dc>
    73b8:	e7951009 	ldr	r1, [r5, r9]
    73bc:	e5910000 	ldr	r0, [r1]
    73c0:	e3500000 	cmp	r0, #0
    73c4:	0a000002 	beq	73d4 <VpnVpncStart+0x2b8>
    73c8:	e5903000 	ldr	r3, [r0]
    73cc:	e3530002 	cmp	r3, #2
    73d0:	da000006 	ble	73f0 <VpnVpncStart+0x2d4>
    73d4:	e59fe058 	ldr	lr, [pc, #88]	@ 7434 <VpnVpncStart+0x318>
    73d8:	e3a01003 	mov	r1, #3
    73dc:	e59f2070 	ldr	r2, [pc, #112]	@ 7454 <VpnVpncStart+0x338>
    73e0:	e085400e 	add	r4, r5, lr
    73e4:	e0852002 	add	r2, r5, r2
    73e8:	e2843010 	add	r3, r4, #16
    73ec:	ebffe992 	bl	1a3c <PmLogPrint_@plt>
    73f0:	e3a01001 	mov	r1, #1
    73f4:	e3a02000 	mov	r2, #0
    73f8:	e1a00006 	mov	r0, r6
    73fc:	e3e04000 	mvn	r4, #0
    7400:	ebffe8fd 	bl	17fc <g_io_channel_shutdown@plt>
    7404:	ebffff2d 	bl	70c0 <teardown_vpnc>
    7408:	eaffffba 	b	72f8 <VpnVpncStart+0x1dc>
    740c:	0000c008 	.word	0x0000c008
    7410:	ffff6fdc 	.word	0xffff6fdc
    7414:	00000190 	.word	0x00000190
    7418:	ffff6f60 	.word	0xffff6f60
    741c:	ffff6b10 	.word	0xffff6b10
    7420:	000005a8 	.word	0x000005a8
    7424:	ffff6f80 	.word	0xffff6f80
    7428:	ffff6f8c 	.word	0xffff6f8c
    742c:	ffff6f98 	.word	0xffff6f98
    7430:	ffff6f9c 	.word	0xffff6f9c
    7434:	ffff5b34 	.word	0xffff5b34
    7438:	ffff6fa4 	.word	0xffff6fa4
    743c:	ffff5290 	.word	0xffff5290
    7440:	ffff6f50 	.word	0xffff6f50
    7444:	ffff65e4 	.word	0xffff65e4
    7448:	ffff6f70 	.word	0xffff6f70
    744c:	ffff6fc8 	.word	0xffff6fc8
    7450:	ffff6fe0 	.word	0xffff6fe0
    7454:	ffff7004 	.word	0xffff7004

00007458 <MatchPatterns>:
    7458:	e92d4ff0 	push	{r4, r5, r6, r7, r8, r9, sl, fp, lr}
    745c:	e1a0a001 	mov	sl, r1
    7460:	e59f1168 	ldr	r1, [pc, #360]	@ 75d0 <MatchPatterns+0x178>
    7464:	e1a08000 	mov	r8, r0
    7468:	e59f0164 	ldr	r0, [pc, #356]	@ 75d4 <MatchPatterns+0x17c>
    746c:	e24dd014 	sub	sp, sp, #20
    7470:	e08f7001 	add	r7, pc, r1
    7474:	e59f915c 	ldr	r9, [pc, #348]	@ 75d8 <MatchPatterns+0x180>
    7478:	e0870000 	add	r0, r7, r0
    747c:	e58d200c 	str	r2, [sp, #12]
    7480:	ebffe925 	bl	191c <g_string_new@plt>
    7484:	e59f3150 	ldr	r3, [pc, #336]	@ 75dc <MatchPatterns+0x184>
    7488:	e087b003 	add	fp, r7, r3
    748c:	e1a06000 	mov	r6, r0
    7490:	e3a02000 	mov	r2, #0
    7494:	e1a00008 	mov	r0, r8
    7498:	e1a01006 	mov	r1, r6
    749c:	e1a03002 	mov	r3, r2
    74a0:	ebffe8cf 	bl	17e4 <g_io_channel_read_line_string@plt>
    74a4:	e3500001 	cmp	r0, #1
    74a8:	0a000010 	beq	74f0 <MatchPatterns+0x98>
    74ac:	e3500003 	cmp	r0, #3
    74b0:	0afffff6 	beq	7490 <MatchPatterns+0x38>
    74b4:	e7972009 	ldr	r2, [r7, r9]
    74b8:	e5920000 	ldr	r0, [r2]
    74bc:	e3500000 	cmp	r0, #0
    74c0:	0a000003 	beq	74d4 <MatchPatterns+0x7c>
    74c4:	e590e000 	ldr	lr, [r0]
    74c8:	e35e0006 	cmp	lr, #6
    74cc:	d3e04000 	mvnle	r4, #0
    74d0:	da00002b 	ble	7584 <MatchPatterns+0x12c>
    74d4:	e59fc104 	ldr	ip, [pc, #260]	@ 75e0 <MatchPatterns+0x188>
    74d8:	e3a01007 	mov	r1, #7
    74dc:	e5963000 	ldr	r3, [r6]
    74e0:	e3e04000 	mvn	r4, #0
    74e4:	e087200c 	add	r2, r7, ip
    74e8:	ebffe953 	bl	1a3c <PmLogPrint_@plt>
    74ec:	ea000024 	b	7584 <MatchPatterns+0x12c>
    74f0:	e596c004 	ldr	ip, [r6, #4]
    74f4:	e1a00006 	mov	r0, r6
    74f8:	e24c1001 	sub	r1, ip, #1
    74fc:	ebffe97e 	bl	1afc <g_string_truncate@plt>
    7500:	e7972009 	ldr	r2, [r7, r9]
    7504:	e5920000 	ldr	r0, [r2]
    7508:	e3500000 	cmp	r0, #0
    750c:	0a000002 	beq	751c <MatchPatterns+0xc4>
    7510:	e590e000 	ldr	lr, [r0]
    7514:	e35e0006 	cmp	lr, #6
    7518:	da000003 	ble	752c <MatchPatterns+0xd4>
    751c:	e3a01007 	mov	r1, #7
    7520:	e1a0200b 	mov	r2, fp
    7524:	e5963000 	ldr	r3, [r6]
    7528:	ebffe943 	bl	1a3c <PmLogPrint_@plt>
    752c:	e59a2000 	ldr	r2, [sl]
    7530:	e3520000 	cmp	r2, #0
    7534:	0affffd5 	beq	7490 <MatchPatterns+0x38>
    7538:	e1a0400a 	mov	r4, sl
    753c:	e3a05000 	mov	r5, #0
    7540:	ea000003 	b	7554 <MatchPatterns+0xfc>
    7544:	e5b42004 	ldr	r2, [r4, #4]!
    7548:	e2855001 	add	r5, r5, #1
    754c:	e3520000 	cmp	r2, #0
    7550:	0affffce 	beq	7490 <MatchPatterns+0x38>
    7554:	e8960003 	ldm	r6, {r0, r1}
    7558:	ebffe913 	bl	19ac <g_strstr_len@plt>
    755c:	e3500000 	cmp	r0, #0
    7560:	0afffff7 	beq	7544 <MatchPatterns+0xec>
    7564:	e7973009 	ldr	r3, [r7, r9]
    7568:	e5930000 	ldr	r0, [r3]
    756c:	e3500000 	cmp	r0, #0
    7570:	0a00000a 	beq	75a0 <MatchPatterns+0x148>
    7574:	e5901000 	ldr	r1, [r0]
    7578:	e3510006 	cmp	r1, #6
    757c:	ca000007 	bgt	75a0 <MatchPatterns+0x148>
    7580:	e1a04005 	mov	r4, r5
    7584:	e59d000c 	ldr	r0, [sp, #12]
    7588:	e3500000 	cmp	r0, #0
    758c:	15806000 	strne	r6, [r0]
    7590:	0a00000a 	beq	75c0 <MatchPatterns+0x168>
    7594:	e1a00004 	mov	r0, r4
    7598:	e28dd014 	add	sp, sp, #20
    759c:	e8bd8ff0 	pop	{r4, r5, r6, r7, r8, r9, sl, fp, pc}
    75a0:	e594c000 	ldr	ip, [r4]
    75a4:	e3a01007 	mov	r1, #7
    75a8:	e59f4034 	ldr	r4, [pc, #52]	@ 75e4 <MatchPatterns+0x18c>
    75ac:	e1a03005 	mov	r3, r5
    75b0:	e0872004 	add	r2, r7, r4
    75b4:	e58dc000 	str	ip, [sp]
    75b8:	ebffe91f 	bl	1a3c <PmLogPrint_@plt>
    75bc:	eaffffef 	b	7580 <MatchPatterns+0x128>
    75c0:	e1a00006 	mov	r0, r6
    75c4:	e3a01001 	mov	r1, #1
    75c8:	ebffe8f4 	bl	19a0 <g_string_free@plt>
    75cc:	eafffff0 	b	7594 <MatchPatterns+0x13c>
    75d0:	0000bcc8 	.word	0x0000bcc8
    75d4:	ffff6fdc 	.word	0xffff6fdc
    75d8:	00000190 	.word	0x00000190
    75dc:	ffff702c 	.word	0xffff702c
    75e0:	ffff7068 	.word	0xffff7068
    75e4:	ffff7044 	.word	0xffff7044

000075e8 <vpnc_get_interface_info>:
    75e8:	e92d4ff0 	push	{r4, r5, r6, r7, r8, r9, sl, fp, lr}
    75ec:	e24dd09c 	sub	sp, sp, #156	@ 0x9c
    75f0:	e59f3d30 	ldr	r3, [pc, #3376]	@ 8328 <vpnc_get_interface_info+0xd40>
    75f4:	e1a09000 	mov	r9, r0
    75f8:	e58d1038 	str	r1, [sp, #56]	@ 0x38
    75fc:	e28db054 	add	fp, sp, #84	@ 0x54
    7600:	e59f2d24 	ldr	r2, [pc, #3364]	@ 832c <vpnc_get_interface_info+0xd44>
    7604:	e08f7003 	add	r7, pc, r3
    7608:	e59f1d20 	ldr	r1, [pc, #3360]	@ 8330 <vpnc_get_interface_info+0xd48>
    760c:	e1a0c00b 	mov	ip, fp
    7610:	e0870001 	add	r0, r7, r1
    7614:	e58d2030 	str	r2, [sp, #48]	@ 0x30
    7618:	e59d6030 	ldr	r6, [sp, #48]	@ 0x30
    761c:	e1a05000 	mov	r5, r0
    7620:	e8b5000f 	ldm	r5!, {r0, r1, r2, r3}
    7624:	e7974006 	ldr	r4, [r7, r6]
    7628:	e5946000 	ldr	r6, [r4]
    762c:	e1a04005 	mov	r4, r5
    7630:	e8ac000f 	stmia	ip!, {r0, r1, r2, r3}
    7634:	e3560000 	cmp	r6, #0
    7638:	e8b4000f 	ldm	r4!, {r0, r1, r2, r3}
    763c:	e1a0e00c 	mov	lr, ip
    7640:	e5945000 	ldr	r5, [r4]
    7644:	e8ae000f 	stmia	lr!, {r0, r1, r2, r3}
    7648:	e58e5000 	str	r5, [lr]
    764c:	0a000058 	beq	77b4 <vpnc_get_interface_info+0x1cc>
    7650:	e596e000 	ldr	lr, [r6]
    7654:	e35e0006 	cmp	lr, #6
    7658:	ca000055 	bgt	77b4 <vpnc_get_interface_info+0x1cc>
    765c:	ebffe93b 	bl	1b50 <json_object_new_object@plt>
    7660:	e3500000 	cmp	r0, #0
    7664:	e58d0040 	str	r0, [sp, #64]	@ 0x40
    7668:	0a00005d 	beq	77e4 <vpnc_get_interface_info+0x1fc>
    766c:	ebffe937 	bl	1b50 <json_object_new_object@plt>
    7670:	e3500000 	cmp	r0, #0
    7674:	e58d0044 	str	r0, [sp, #68]	@ 0x44
    7678:	0a000080 	beq	7880 <vpnc_get_interface_info+0x298>
    767c:	e59f1cb0 	ldr	r1, [pc, #3248]	@ 8334 <vpnc_get_interface_info+0xd4c>
    7680:	e1a02000 	mov	r2, r0
    7684:	e59d0040 	ldr	r0, [sp, #64]	@ 0x40
    7688:	e0871001 	add	r1, r7, r1
    768c:	ebffe8de 	bl	1a0c <json_object_object_add@plt>
    7690:	e1a00009 	mov	r0, r9
    7694:	e1a0100b 	mov	r1, fp
    7698:	e28d2094 	add	r2, sp, #148	@ 0x94
    769c:	ebffff6d 	bl	7458 <MatchPatterns>
    76a0:	e3500000 	cmp	r0, #0
    76a4:	0a000085 	beq	78c0 <vpnc_get_interface_info+0x2d8>
    76a8:	e1a00009 	mov	r0, r9
    76ac:	e1a0100b 	mov	r1, fp
    76b0:	e28d2090 	add	r2, sp, #144	@ 0x90
    76b4:	ebffff67 	bl	7458 <MatchPatterns>
    76b8:	e3500001 	cmp	r0, #1
    76bc:	0a000133 	beq	7b90 <vpnc_get_interface_info+0x5a8>
    76c0:	e1a00009 	mov	r0, r9
    76c4:	e1a0100b 	mov	r1, fp
    76c8:	e28d208c 	add	r2, sp, #140	@ 0x8c
    76cc:	ebffff61 	bl	7458 <MatchPatterns>
    76d0:	e3500002 	cmp	r0, #2
    76d4:	0a000149 	beq	7c00 <vpnc_get_interface_info+0x618>
    76d8:	e1a00009 	mov	r0, r9
    76dc:	e1a0100b 	mov	r1, fp
    76e0:	e28d2088 	add	r2, sp, #136	@ 0x88
    76e4:	ebffff5b 	bl	7458 <MatchPatterns>
    76e8:	e3500003 	cmp	r0, #3
    76ec:	13a03000 	movne	r3, #0
    76f0:	158d303c 	strne	r3, [sp, #60]	@ 0x3c
    76f4:	0a00016b 	beq	7ca8 <vpnc_get_interface_info+0x6c0>
    76f8:	e1a00009 	mov	r0, r9
    76fc:	e1a0100b 	mov	r1, fp
    7700:	e28d2084 	add	r2, sp, #132	@ 0x84
    7704:	ebffff53 	bl	7458 <MatchPatterns>
    7708:	e3500004 	cmp	r0, #4
    770c:	0a0001c3 	beq	7e20 <vpnc_get_interface_info+0x838>
    7710:	e1a00009 	mov	r0, r9
    7714:	e1a0100b 	mov	r1, fp
    7718:	e28d2080 	add	r2, sp, #128	@ 0x80
    771c:	ebffff4d 	bl	7458 <MatchPatterns>
    7720:	e3500005 	cmp	r0, #5
    7724:	0a00008f 	beq	7968 <vpnc_get_interface_info+0x380>
    7728:	e59d103c 	ldr	r1, [sp, #60]	@ 0x3c
    772c:	e3510000 	cmp	r1, #0
    7730:	0a00003b 	beq	7824 <vpnc_get_interface_info+0x23c>
    7734:	e59d0030 	ldr	r0, [sp, #48]	@ 0x30
    7738:	e7972000 	ldr	r2, [r7, r0]
    773c:	e5920000 	ldr	r0, [r2]
    7740:	e3500000 	cmp	r0, #0
    7744:	0a000002 	beq	7754 <vpnc_get_interface_info+0x16c>
    7748:	e590c000 	ldr	ip, [r0]
    774c:	e35c0002 	cmp	ip, #2
    7750:	da000006 	ble	7770 <vpnc_get_interface_info+0x188>
    7754:	e59f3bdc 	ldr	r3, [pc, #3036]	@ 8338 <vpnc_get_interface_info+0xd50>
    7758:	e3a01003 	mov	r1, #3
    775c:	e59f2bd8 	ldr	r2, [pc, #3032]	@ 833c <vpnc_get_interface_info+0xd54>
    7760:	e087e003 	add	lr, r7, r3
    7764:	e0872002 	add	r2, r7, r2
    7768:	e28e3020 	add	r3, lr, #32
    776c:	ebffe8b2 	bl	1a3c <PmLogPrint_@plt>
    7770:	e59d0040 	ldr	r0, [sp, #64]	@ 0x40
    7774:	e3a01000 	mov	r1, #0
    7778:	e58d1040 	str	r1, [sp, #64]	@ 0x40
    777c:	ebffe90b 	bl	1bb0 <json_object_put@plt>
    7780:	e59d1040 	ldr	r1, [sp, #64]	@ 0x40
    7784:	e28d207c 	add	r2, sp, #124	@ 0x7c
    7788:	e59d0038 	ldr	r0, [sp, #56]	@ 0x38
    778c:	e580102c 	str	r1, [r0, #44]	@ 0x2c
    7790:	e1a00009 	mov	r0, r9
    7794:	e1a0100b 	mov	r1, fp
    7798:	ebffff2e 	bl	7458 <MatchPatterns>
    779c:	e3500007 	cmp	r0, #7
    77a0:	0a0001f4 	beq	7f78 <vpnc_get_interface_info+0x990>
    77a4:	e59d0038 	ldr	r0, [sp, #56]	@ 0x38
    77a8:	ebfffd4f 	bl	6cec <VpnConnected>
    77ac:	e28dd09c 	add	sp, sp, #156	@ 0x9c
    77b0:	e8bd8ff0 	pop	{r4, r5, r6, r7, r8, r9, sl, fp, pc}
    77b4:	e59f3b7c 	ldr	r3, [pc, #2940]	@ 8338 <vpnc_get_interface_info+0xd50>
    77b8:	e3a01007 	mov	r1, #7
    77bc:	e59f2b7c 	ldr	r2, [pc, #2940]	@ 8340 <vpnc_get_interface_info+0xd58>
    77c0:	e1a00006 	mov	r0, r6
    77c4:	e087c003 	add	ip, r7, r3
    77c8:	e0872002 	add	r2, r7, r2
    77cc:	e28c3020 	add	r3, ip, #32
    77d0:	ebffe899 	bl	1a3c <PmLogPrint_@plt>
    77d4:	ebffe8dd 	bl	1b50 <json_object_new_object@plt>
    77d8:	e3500000 	cmp	r0, #0
    77dc:	e58d0040 	str	r0, [sp, #64]	@ 0x40
    77e0:	1affffa1 	bne	766c <vpnc_get_interface_info+0x84>
    77e4:	e59d0030 	ldr	r0, [sp, #48]	@ 0x30
    77e8:	e7971000 	ldr	r1, [r7, r0]
    77ec:	e5910000 	ldr	r0, [r1]
    77f0:	e3500000 	cmp	r0, #0
    77f4:	0a000002 	beq	7804 <vpnc_get_interface_info+0x21c>
    77f8:	e590e000 	ldr	lr, [r0]
    77fc:	e35e0002 	cmp	lr, #2
    7800:	daffffde 	ble	7780 <vpnc_get_interface_info+0x198>
    7804:	e59fcb2c 	ldr	ip, [pc, #2860]	@ 8338 <vpnc_get_interface_info+0xd50>
    7808:	e3a01003 	mov	r1, #3
    780c:	e59f2b30 	ldr	r2, [pc, #2864]	@ 8344 <vpnc_get_interface_info+0xd5c>
    7810:	e087300c 	add	r3, r7, ip
    7814:	e0872002 	add	r2, r7, r2
    7818:	e2833020 	add	r3, r3, #32
    781c:	ebffe886 	bl	1a3c <PmLogPrint_@plt>
    7820:	eaffffd6 	b	7780 <vpnc_get_interface_info+0x198>
    7824:	e3a00005 	mov	r0, #5
    7828:	ebffe88f 	bl	1a6c <json_object_new_int@plt>
    782c:	e59fcb14 	ldr	ip, [pc, #2836]	@ 8348 <vpnc_get_interface_info+0xd60>
    7830:	e087100c 	add	r1, r7, ip
    7834:	e1a02000 	mov	r2, r0
    7838:	e59d0040 	ldr	r0, [sp, #64]	@ 0x40
    783c:	ebffe872 	bl	1a0c <json_object_object_add@plt>
    7840:	e59d0030 	ldr	r0, [sp, #48]	@ 0x30
    7844:	e7972000 	ldr	r2, [r7, r0]
    7848:	e5920000 	ldr	r0, [r2]
    784c:	e3500000 	cmp	r0, #0
    7850:	0a000002 	beq	7860 <vpnc_get_interface_info+0x278>
    7854:	e590e000 	ldr	lr, [r0]
    7858:	e35e0006 	cmp	lr, #6
    785c:	daffffc7 	ble	7780 <vpnc_get_interface_info+0x198>
    7860:	e59fcad0 	ldr	ip, [pc, #2768]	@ 8338 <vpnc_get_interface_info+0xd50>
    7864:	e3a01007 	mov	r1, #7
    7868:	e59f2adc 	ldr	r2, [pc, #2780]	@ 834c <vpnc_get_interface_info+0xd64>
    786c:	e087300c 	add	r3, r7, ip
    7870:	e0872002 	add	r2, r7, r2
    7874:	e2833020 	add	r3, r3, #32
    7878:	ebffe86f 	bl	1a3c <PmLogPrint_@plt>
    787c:	eaffffbf 	b	7780 <vpnc_get_interface_info+0x198>
    7880:	e59d0030 	ldr	r0, [sp, #48]	@ 0x30
    7884:	e797e000 	ldr	lr, [r7, r0]
    7888:	e59e0000 	ldr	r0, [lr]
    788c:	e3500000 	cmp	r0, #0
    7890:	0a000002 	beq	78a0 <vpnc_get_interface_info+0x2b8>
    7894:	e5902000 	ldr	r2, [r0]
    7898:	e3520002 	cmp	r2, #2
    789c:	daffffa4 	ble	7734 <vpnc_get_interface_info+0x14c>
    78a0:	e59f3a90 	ldr	r3, [pc, #2704]	@ 8338 <vpnc_get_interface_info+0xd50>
    78a4:	e3a01003 	mov	r1, #3
    78a8:	e59feaa0 	ldr	lr, [pc, #2720]	@ 8350 <vpnc_get_interface_info+0xd68>
    78ac:	e087c003 	add	ip, r7, r3
    78b0:	e087200e 	add	r2, r7, lr
    78b4:	e28c3020 	add	r3, ip, #32
    78b8:	ebffe85f 	bl	1a3c <PmLogPrint_@plt>
    78bc:	eaffff9c 	b	7734 <vpnc_get_interface_info+0x14c>
    78c0:	e59d2094 	ldr	r2, [sp, #148]	@ 0x94
    78c4:	e59fea88 	ldr	lr, [pc, #2696]	@ 8354 <vpnc_get_interface_info+0xd6c>
    78c8:	e5920000 	ldr	r0, [r2]
    78cc:	e087100e 	add	r1, r7, lr
    78d0:	ebffe7e7 	bl	1874 <g_strrstr@plt>
    78d4:	e59dc030 	ldr	ip, [sp, #48]	@ 0x30
    78d8:	e797400c 	ldr	r4, [r7, ip]
    78dc:	e5942000 	ldr	r2, [r4]
    78e0:	e3520000 	cmp	r2, #0
    78e4:	e2804001 	add	r4, r0, #1
    78e8:	0a000002 	beq	78f8 <vpnc_get_interface_info+0x310>
    78ec:	e5920000 	ldr	r0, [r2]
    78f0:	e3500006 	cmp	r0, #6
    78f4:	da000005 	ble	7910 <vpnc_get_interface_info+0x328>
    78f8:	e59fca58 	ldr	ip, [pc, #2648]	@ 8358 <vpnc_get_interface_info+0xd70>
    78fc:	e1a00002 	mov	r0, r2
    7900:	e3a01007 	mov	r1, #7
    7904:	e1a03004 	mov	r3, r4
    7908:	e087200c 	add	r2, r7, ip
    790c:	ebffe84a 	bl	1a3c <PmLogPrint_@plt>
    7910:	e1a00004 	mov	r0, r4
    7914:	ebffe7d9 	bl	1880 <g_strdup@plt>
    7918:	e59d2038 	ldr	r2, [sp, #56]	@ 0x38
    791c:	e3a01001 	mov	r1, #1
    7920:	e5820018 	str	r0, [r2, #24]
    7924:	e59d0094 	ldr	r0, [sp, #148]	@ 0x94
    7928:	ebffe81c 	bl	19a0 <g_string_free@plt>
    792c:	e59d1038 	ldr	r1, [sp, #56]	@ 0x38
    7930:	e5910018 	ldr	r0, [r1, #24]
    7934:	ebffe7cb 	bl	1868 <json_object_new_string@plt>
    7938:	e59f3a1c 	ldr	r3, [pc, #2588]	@ 835c <vpnc_get_interface_info+0xd74>
    793c:	e0871003 	add	r1, r7, r3
    7940:	e1a02000 	mov	r2, r0
    7944:	e59d0040 	ldr	r0, [sp, #64]	@ 0x40
    7948:	ebffe82f 	bl	1a0c <json_object_object_add@plt>
    794c:	e1a00009 	mov	r0, r9
    7950:	e1a0100b 	mov	r1, fp
    7954:	e28d2090 	add	r2, sp, #144	@ 0x90
    7958:	ebfffebe 	bl	7458 <MatchPatterns>
    795c:	e3500001 	cmp	r0, #1
    7960:	1affff56 	bne	76c0 <vpnc_get_interface_info+0xd8>
    7964:	ea000089 	b	7b90 <vpnc_get_interface_info+0x5a8>
    7968:	e59f89e4 	ldr	r8, [pc, #2532]	@ 8354 <vpnc_get_interface_info+0xd6c>
    796c:	e59d1080 	ldr	r1, [sp, #128]	@ 0x80
    7970:	e58d802c 	str	r8, [sp, #44]	@ 0x2c
    7974:	e5910000 	ldr	r0, [r1]
    7978:	e0871008 	add	r1, r7, r8
    797c:	ebffe7bc 	bl	1874 <g_strrstr@plt>
    7980:	e3a0100a 	mov	r1, #10
    7984:	e2800001 	add	r0, r0, #1
    7988:	ebfff7e6 	bl	5928 <convertStrToLongInt>
    798c:	e2508000 	subs	r8, r0, #0
    7990:	da000195 	ble	7fec <vpnc_get_interface_info+0xa04>
    7994:	ebffe846 	bl	1ab4 <json_object_new_array@plt>
    7998:	e250a000 	subs	sl, r0, #0
    799c:	0a00020d 	beq	81d8 <vpnc_get_interface_info+0xbf0>
    79a0:	e59d0030 	ldr	r0, [sp, #48]	@ 0x30
    79a4:	e7974000 	ldr	r4, [r7, r0]
    79a8:	e5940000 	ldr	r0, [r4]
    79ac:	e3500000 	cmp	r0, #0
    79b0:	0a000002 	beq	79c0 <vpnc_get_interface_info+0x3d8>
    79b4:	e590e000 	ldr	lr, [r0]
    79b8:	e35e0006 	cmp	lr, #6
    79bc:	da000007 	ble	79e0 <vpnc_get_interface_info+0x3f8>
    79c0:	e59f3970 	ldr	r3, [pc, #2416]	@ 8338 <vpnc_get_interface_info+0xd50>
    79c4:	e3a01007 	mov	r1, #7
    79c8:	e59f2990 	ldr	r2, [pc, #2448]	@ 8360 <vpnc_get_interface_info+0xd78>
    79cc:	e087c003 	add	ip, r7, r3
    79d0:	e58d8000 	str	r8, [sp]
    79d4:	e0872002 	add	r2, r7, r2
    79d8:	e28c3020 	add	r3, ip, #32
    79dc:	ebffe816 	bl	1a3c <PmLogPrint_@plt>
    79e0:	e59fe97c 	ldr	lr, [pc, #2428]	@ 8364 <vpnc_get_interface_info+0xd7c>
    79e4:	e28d4078 	add	r4, sp, #120	@ 0x78
    79e8:	e59f1948 	ldr	r1, [pc, #2376]	@ 8338 <vpnc_get_interface_info+0xd50>
    79ec:	e087000e 	add	r0, r7, lr
    79f0:	e59f3970 	ldr	r3, [pc, #2416]	@ 8368 <vpnc_get_interface_info+0xd80>
    79f4:	e58d0028 	str	r0, [sp, #40]	@ 0x28
    79f8:	e087c001 	add	ip, r7, r1
    79fc:	e59f0968 	ldr	r0, [pc, #2408]	@ 836c <vpnc_get_interface_info+0xd84>
    7a00:	e0872003 	add	r2, r7, r3
    7a04:	e58d4034 	str	r4, [sp, #52]	@ 0x34
    7a08:	e28ce020 	add	lr, ip, #32
    7a0c:	e0871000 	add	r1, r7, r0
    7a10:	e3a04000 	mov	r4, #0
    7a14:	e58d2024 	str	r2, [sp, #36]	@ 0x24
    7a18:	e58de020 	str	lr, [sp, #32]
    7a1c:	e58d101c 	str	r1, [sp, #28]
    7a20:	ea000007 	b	7a44 <vpnc_get_interface_info+0x45c>
    7a24:	e2844001 	add	r4, r4, #1
    7a28:	e1580004 	cmp	r8, r4
    7a2c:	d3a0c000 	movle	ip, #0
    7a30:	c3a0c001 	movgt	ip, #1
    7a34:	e3540063 	cmp	r4, #99	@ 0x63
    7a38:	c3a0c000 	movgt	ip, #0
    7a3c:	e35c0000 	cmp	ip, #0
    7a40:	0a00019b 	beq	80b4 <vpnc_get_interface_info+0xacc>
    7a44:	e1a00009 	mov	r0, r9
    7a48:	e1a0100b 	mov	r1, fp
    7a4c:	e59d2034 	ldr	r2, [sp, #52]	@ 0x34
    7a50:	ebfffe80 	bl	7458 <MatchPatterns>
    7a54:	e3500006 	cmp	r0, #6
    7a58:	1afffff1 	bne	7a24 <vpnc_get_interface_info+0x43c>
    7a5c:	e59d5078 	ldr	r5, [sp, #120]	@ 0x78
    7a60:	e59dc02c 	ldr	ip, [sp, #44]	@ 0x2c
    7a64:	e5950000 	ldr	r0, [r5]
    7a68:	e087100c 	add	r1, r7, ip
    7a6c:	ebffe780 	bl	1874 <g_strrstr@plt>
    7a70:	e59d1028 	ldr	r1, [sp, #40]	@ 0x28
    7a74:	e3a02003 	mov	r2, #3
    7a78:	e2800001 	add	r0, r0, #1
    7a7c:	ebffe812 	bl	1acc <g_strsplit@plt>
    7a80:	e590c000 	ldr	ip, [r0]
    7a84:	e1a05000 	mov	r5, r0
    7a88:	e35c0000 	cmp	ip, #0
    7a8c:	0a000171 	beq	8058 <vpnc_get_interface_info+0xa70>
    7a90:	e5dc2000 	ldrb	r2, [ip]
    7a94:	e3520000 	cmp	r2, #0
    7a98:	0a00016e 	beq	8058 <vpnc_get_interface_info+0xa70>
    7a9c:	e590e004 	ldr	lr, [r0, #4]
    7aa0:	e35e0000 	cmp	lr, #0
    7aa4:	0a00016b 	beq	8058 <vpnc_get_interface_info+0xa70>
    7aa8:	e5de3000 	ldrb	r3, [lr]
    7aac:	e3530000 	cmp	r3, #0
    7ab0:	0a000168 	beq	8058 <vpnc_get_interface_info+0xa70>
    7ab4:	e5906008 	ldr	r6, [r0, #8]
    7ab8:	e3560000 	cmp	r6, #0
    7abc:	0a000165 	beq	8058 <vpnc_get_interface_info+0xa70>
    7ac0:	e5d60000 	ldrb	r0, [r6]
    7ac4:	e3500000 	cmp	r0, #0
    7ac8:	0a000162 	beq	8058 <vpnc_get_interface_info+0xa70>
    7acc:	e59d2030 	ldr	r2, [sp, #48]	@ 0x30
    7ad0:	e7971002 	ldr	r1, [r7, r2]
    7ad4:	e5910000 	ldr	r0, [r1]
    7ad8:	e3500000 	cmp	r0, #0
    7adc:	0a000002 	beq	7aec <vpnc_get_interface_info+0x504>
    7ae0:	e5903000 	ldr	r3, [r0]
    7ae4:	e3530006 	cmp	r3, #6
    7ae8:	da000008 	ble	7b10 <vpnc_get_interface_info+0x528>
    7aec:	e59f287c 	ldr	r2, [pc, #2172]	@ 8370 <vpnc_get_interface_info+0xd88>
    7af0:	e3a01007 	mov	r1, #7
    7af4:	e1a03004 	mov	r3, r4
    7af8:	e58dc000 	str	ip, [sp]
    7afc:	e0872002 	add	r2, r7, r2
    7b00:	e58de004 	str	lr, [sp, #4]
    7b04:	e58d6008 	str	r6, [sp, #8]
    7b08:	ebffe7cb 	bl	1a3c <PmLogPrint_@plt>
    7b0c:	e595c000 	ldr	ip, [r5]
    7b10:	e1a0000c 	mov	r0, ip
    7b14:	e59d101c 	ldr	r1, [sp, #28]
    7b18:	ebffe81b 	bl	1b8c <strcmp@plt>
    7b1c:	e3500000 	cmp	r0, #0
    7b20:	1a0001c3 	bne	8234 <vpnc_get_interface_info+0xc4c>
    7b24:	e59de030 	ldr	lr, [sp, #48]	@ 0x30
    7b28:	e797300e 	ldr	r3, [r7, lr]
    7b2c:	e5930000 	ldr	r0, [r3]
    7b30:	e3500000 	cmp	r0, #0
    7b34:	0a000002 	beq	7b44 <vpnc_get_interface_info+0x55c>
    7b38:	e5901000 	ldr	r1, [r0]
    7b3c:	e3510006 	cmp	r1, #6
    7b40:	da000004 	ble	7b58 <vpnc_get_interface_info+0x570>
    7b44:	e59fc828 	ldr	ip, [pc, #2088]	@ 8374 <vpnc_get_interface_info+0xd8c>
    7b48:	e3a01007 	mov	r1, #7
    7b4c:	e59d3020 	ldr	r3, [sp, #32]
    7b50:	e087200c 	add	r2, r7, ip
    7b54:	ebffe7b8 	bl	1a3c <PmLogPrint_@plt>
    7b58:	e59d2038 	ldr	r2, [sp, #56]	@ 0x38
    7b5c:	e592001c 	ldr	r0, [r2, #28]
    7b60:	ebffe740 	bl	1868 <json_object_new_string@plt>
    7b64:	e59f380c 	ldr	r3, [pc, #2060]	@ 8378 <vpnc_get_interface_info+0xd90>
    7b68:	e0871003 	add	r1, r7, r3
    7b6c:	e1a02000 	mov	r2, r0
    7b70:	e59d0044 	ldr	r0, [sp, #68]	@ 0x44
    7b74:	ebffe7a4 	bl	1a0c <json_object_object_add@plt>
    7b78:	e1a00005 	mov	r0, r5
    7b7c:	ebffe7ea 	bl	1b2c <g_strfreev@plt>
    7b80:	e59d0078 	ldr	r0, [sp, #120]	@ 0x78
    7b84:	e3a01001 	mov	r1, #1
    7b88:	ebffe784 	bl	19a0 <g_string_free@plt>
    7b8c:	eaffffa4 	b	7a24 <vpnc_get_interface_info+0x43c>
    7b90:	e59d3090 	ldr	r3, [sp, #144]	@ 0x90
    7b94:	e59fe7b8 	ldr	lr, [pc, #1976]	@ 8354 <vpnc_get_interface_info+0xd6c>
    7b98:	e5930000 	ldr	r0, [r3]
    7b9c:	e087100e 	add	r1, r7, lr
    7ba0:	ebffe733 	bl	1874 <g_strrstr@plt>
    7ba4:	e59dc030 	ldr	ip, [sp, #48]	@ 0x30
    7ba8:	e797400c 	ldr	r4, [r7, ip]
    7bac:	e5942000 	ldr	r2, [r4]
    7bb0:	e3520000 	cmp	r2, #0
    7bb4:	e2804001 	add	r4, r0, #1
    7bb8:	0a000002 	beq	7bc8 <vpnc_get_interface_info+0x5e0>
    7bbc:	e5920000 	ldr	r0, [r2]
    7bc0:	e3500006 	cmp	r0, #6
    7bc4:	da000005 	ble	7be0 <vpnc_get_interface_info+0x5f8>
    7bc8:	e1a00002 	mov	r0, r2
    7bcc:	e59f27a8 	ldr	r2, [pc, #1960]	@ 837c <vpnc_get_interface_info+0xd94>
    7bd0:	e3a01007 	mov	r1, #7
    7bd4:	e1a03004 	mov	r3, r4
    7bd8:	e0872002 	add	r2, r7, r2
    7bdc:	ebffe796 	bl	1a3c <PmLogPrint_@plt>
    7be0:	e1a00004 	mov	r0, r4
    7be4:	ebffe725 	bl	1880 <g_strdup@plt>
    7be8:	e59dc038 	ldr	ip, [sp, #56]	@ 0x38
    7bec:	e3a01001 	mov	r1, #1
    7bf0:	e58c0024 	str	r0, [ip, #36]	@ 0x24
    7bf4:	e59d0090 	ldr	r0, [sp, #144]	@ 0x90
    7bf8:	ebffe768 	bl	19a0 <g_string_free@plt>
    7bfc:	eafffeaf 	b	76c0 <vpnc_get_interface_info+0xd8>
    7c00:	e59d308c 	ldr	r3, [sp, #140]	@ 0x8c
    7c04:	e59fe748 	ldr	lr, [pc, #1864]	@ 8354 <vpnc_get_interface_info+0xd6c>
    7c08:	e5930000 	ldr	r0, [r3]
    7c0c:	e087100e 	add	r1, r7, lr
    7c10:	ebffe717 	bl	1874 <g_strrstr@plt>
    7c14:	e59d4030 	ldr	r4, [sp, #48]	@ 0x30
    7c18:	e7971004 	ldr	r1, [r7, r4]
    7c1c:	e5912000 	ldr	r2, [r1]
    7c20:	e3520000 	cmp	r2, #0
    7c24:	e2804001 	add	r4, r0, #1
    7c28:	0a000002 	beq	7c38 <vpnc_get_interface_info+0x650>
    7c2c:	e5920000 	ldr	r0, [r2]
    7c30:	e3500006 	cmp	r0, #6
    7c34:	da000005 	ble	7c50 <vpnc_get_interface_info+0x668>
    7c38:	e1a00002 	mov	r0, r2
    7c3c:	e59f273c 	ldr	r2, [pc, #1852]	@ 8380 <vpnc_get_interface_info+0xd98>
    7c40:	e3a01007 	mov	r1, #7
    7c44:	e1a03004 	mov	r3, r4
    7c48:	e0872002 	add	r2, r7, r2
    7c4c:	ebffe77a 	bl	1a3c <PmLogPrint_@plt>
    7c50:	e1a00004 	mov	r0, r4
    7c54:	ebffe709 	bl	1880 <g_strdup@plt>
    7c58:	e59d2038 	ldr	r2, [sp, #56]	@ 0x38
    7c5c:	e582001c 	str	r0, [r2, #28]
    7c60:	ebffe700 	bl	1868 <json_object_new_string@plt>
    7c64:	e59f3718 	ldr	r3, [pc, #1816]	@ 8384 <vpnc_get_interface_info+0xd9c>
    7c68:	e0871003 	add	r1, r7, r3
    7c6c:	e1a02000 	mov	r2, r0
    7c70:	e59d0044 	ldr	r0, [sp, #68]	@ 0x44
    7c74:	ebffe764 	bl	1a0c <json_object_object_add@plt>
    7c78:	e59f1708 	ldr	r1, [pc, #1800]	@ 8388 <vpnc_get_interface_info+0xda0>
    7c7c:	e0870001 	add	r0, r7, r1
    7c80:	ebffe6f8 	bl	1868 <json_object_new_string@plt>
    7c84:	e59fc700 	ldr	ip, [pc, #1792]	@ 838c <vpnc_get_interface_info+0xda4>
    7c88:	e087100c 	add	r1, r7, ip
    7c8c:	e1a02000 	mov	r2, r0
    7c90:	e59d0044 	ldr	r0, [sp, #68]	@ 0x44
    7c94:	ebffe75c 	bl	1a0c <json_object_object_add@plt>
    7c98:	e59d008c 	ldr	r0, [sp, #140]	@ 0x8c
    7c9c:	e3a01001 	mov	r1, #1
    7ca0:	ebffe73e 	bl	19a0 <g_string_free@plt>
    7ca4:	eafffe8b 	b	76d8 <vpnc_get_interface_info+0xf0>
    7ca8:	ebffe781 	bl	1ab4 <json_object_new_array@plt>
    7cac:	e250a000 	subs	sl, r0, #0
    7cb0:	0a000118 	beq	8118 <vpnc_get_interface_info+0xb30>
    7cb4:	e59dc088 	ldr	ip, [sp, #136]	@ 0x88
    7cb8:	e59fe694 	ldr	lr, [pc, #1684]	@ 8354 <vpnc_get_interface_info+0xd6c>
    7cbc:	e59f46a0 	ldr	r4, [pc, #1696]	@ 8364 <vpnc_get_interface_info+0xd7c>
    7cc0:	e087100e 	add	r1, r7, lr
    7cc4:	e59c0000 	ldr	r0, [ip]
    7cc8:	ebffe6e9 	bl	1874 <g_strrstr@plt>
    7ccc:	e0871004 	add	r1, r7, r4
    7cd0:	e3a0200a 	mov	r2, #10
    7cd4:	e2804001 	add	r4, r0, #1
    7cd8:	e1a00004 	mov	r0, r4
    7cdc:	ebffe77a 	bl	1acc <g_strsplit@plt>
    7ce0:	e58d0048 	str	r0, [sp, #72]	@ 0x48
    7ce4:	e1a00004 	mov	r0, r4
    7ce8:	ebffe6e4 	bl	1880 <g_strdup@plt>
    7cec:	e59dc048 	ldr	ip, [sp, #72]	@ 0x48
    7cf0:	e59d1038 	ldr	r1, [sp, #56]	@ 0x38
    7cf4:	e59ce000 	ldr	lr, [ip]
    7cf8:	e35e0000 	cmp	lr, #0
    7cfc:	e5810028 	str	r0, [r1, #40]	@ 0x28
    7d00:	0a000026 	beq	7da0 <vpnc_get_interface_info+0x7b8>
    7d04:	e5de0000 	ldrb	r0, [lr]
    7d08:	e3500000 	cmp	r0, #0
    7d0c:	0a000023 	beq	7da0 <vpnc_get_interface_info+0x7b8>
    7d10:	e59d6030 	ldr	r6, [sp, #48]	@ 0x30
    7d14:	e28c4004 	add	r4, ip, #4
    7d18:	e59f5670 	ldr	r5, [pc, #1648]	@ 8390 <vpnc_get_interface_info+0xda8>
    7d1c:	e7978006 	ldr	r8, [r7, r6]
    7d20:	e59d6048 	ldr	r6, [sp, #72]	@ 0x48
    7d24:	e58d8014 	str	r8, [sp, #20]
    7d28:	e0878005 	add	r8, r7, r5
    7d2c:	e3a05000 	mov	r5, #0
    7d30:	ea000002 	b	7d40 <vpnc_get_interface_info+0x758>
    7d34:	e5de2000 	ldrb	r2, [lr]
    7d38:	e3520000 	cmp	r2, #0
    7d3c:	0a000017 	beq	7da0 <vpnc_get_interface_info+0x7b8>
    7d40:	e59d3014 	ldr	r3, [sp, #20]
    7d44:	e1a02008 	mov	r2, r8
    7d48:	e3a01007 	mov	r1, #7
    7d4c:	e593c000 	ldr	ip, [r3]
    7d50:	e1a03005 	mov	r3, r5
    7d54:	e2855001 	add	r5, r5, #1
    7d58:	e35c0000 	cmp	ip, #0
    7d5c:	e1a0000c 	mov	r0, ip
    7d60:	0a000002 	beq	7d70 <vpnc_get_interface_info+0x788>
    7d64:	e59cc000 	ldr	ip, [ip]
    7d68:	e35c0006 	cmp	ip, #6
    7d6c:	da000001 	ble	7d78 <vpnc_get_interface_info+0x790>
    7d70:	e58de000 	str	lr, [sp]
    7d74:	ebffe730 	bl	1a3c <PmLogPrint_@plt>
    7d78:	e5960000 	ldr	r0, [r6]
    7d7c:	e1a06004 	mov	r6, r4
    7d80:	ebffe6b8 	bl	1868 <json_object_new_string@plt>
    7d84:	e1a01000 	mov	r1, r0
    7d88:	e1a0000a 	mov	r0, sl
    7d8c:	ebffe742 	bl	1a9c <json_object_array_add@plt>
    7d90:	e594e000 	ldr	lr, [r4]
    7d94:	e2844004 	add	r4, r4, #4
    7d98:	e35e0000 	cmp	lr, #0
    7d9c:	1affffe4 	bne	7d34 <vpnc_get_interface_info+0x74c>
    7da0:	e59d0048 	ldr	r0, [sp, #72]	@ 0x48
    7da4:	ebffe760 	bl	1b2c <g_strfreev@plt>
    7da8:	e1a0000a 	mov	r0, sl
    7dac:	ebffe695 	bl	1808 <json_object_array_length@plt>
    7db0:	e3500000 	cmp	r0, #0
    7db4:	da000102 	ble	81c4 <vpnc_get_interface_info+0xbdc>
    7db8:	e59de030 	ldr	lr, [sp, #48]	@ 0x30
    7dbc:	e797100e 	ldr	r1, [r7, lr]
    7dc0:	e5910000 	ldr	r0, [r1]
    7dc4:	e3500000 	cmp	r0, #0
    7dc8:	0a000002 	beq	7dd8 <vpnc_get_interface_info+0x7f0>
    7dcc:	e5903000 	ldr	r3, [r0]
    7dd0:	e3530006 	cmp	r3, #6
    7dd4:	da000006 	ble	7df4 <vpnc_get_interface_info+0x80c>
    7dd8:	e59fe558 	ldr	lr, [pc, #1368]	@ 8338 <vpnc_get_interface_info+0xd50>
    7ddc:	e3a01007 	mov	r1, #7
    7de0:	e59f25ac 	ldr	r2, [pc, #1452]	@ 8394 <vpnc_get_interface_info+0xdac>
    7de4:	e087c00e 	add	ip, r7, lr
    7de8:	e0872002 	add	r2, r7, r2
    7dec:	e28c3020 	add	r3, ip, #32
    7df0:	ebffe711 	bl	1a3c <PmLogPrint_@plt>
    7df4:	e59f159c 	ldr	r1, [pc, #1436]	@ 8398 <vpnc_get_interface_info+0xdb0>
    7df8:	e1a0200a 	mov	r2, sl
    7dfc:	e59d0044 	ldr	r0, [sp, #68]	@ 0x44
    7e00:	e3a03000 	mov	r3, #0
    7e04:	e0871001 	add	r1, r7, r1
    7e08:	e58d303c 	str	r3, [sp, #60]	@ 0x3c
    7e0c:	ebffe6fe 	bl	1a0c <json_object_object_add@plt>
    7e10:	e59d0088 	ldr	r0, [sp, #136]	@ 0x88
    7e14:	e3a01001 	mov	r1, #1
    7e18:	ebffe6e0 	bl	19a0 <g_string_free@plt>
    7e1c:	eafffe35 	b	76f8 <vpnc_get_interface_info+0x110>
    7e20:	ebffe723 	bl	1ab4 <json_object_new_array@plt>
    7e24:	e250a000 	subs	sl, r0, #0
    7e28:	0a0000ce 	beq	8168 <vpnc_get_interface_info+0xb80>
    7e2c:	e59dc084 	ldr	ip, [sp, #132]	@ 0x84
    7e30:	e59f351c 	ldr	r3, [pc, #1308]	@ 8354 <vpnc_get_interface_info+0xd6c>
    7e34:	e59c0000 	ldr	r0, [ip]
    7e38:	e0871003 	add	r1, r7, r3
    7e3c:	ebffe68c 	bl	1874 <g_strrstr@plt>
    7e40:	e59f151c 	ldr	r1, [pc, #1308]	@ 8364 <vpnc_get_interface_info+0xd7c>
    7e44:	e3a0200a 	mov	r2, #10
    7e48:	e0871001 	add	r1, r7, r1
    7e4c:	e2800001 	add	r0, r0, #1
    7e50:	ebffe71d 	bl	1acc <g_strsplit@plt>
    7e54:	e58d004c 	str	r0, [sp, #76]	@ 0x4c
    7e58:	e590e000 	ldr	lr, [r0]
    7e5c:	e35e0000 	cmp	lr, #0
    7e60:	0a000026 	beq	7f00 <vpnc_get_interface_info+0x918>
    7e64:	e5de2000 	ldrb	r2, [lr]
    7e68:	e3520000 	cmp	r2, #0
    7e6c:	0a000023 	beq	7f00 <vpnc_get_interface_info+0x918>
    7e70:	e59d6030 	ldr	r6, [sp, #48]	@ 0x30
    7e74:	e2804004 	add	r4, r0, #4
    7e78:	e59f551c 	ldr	r5, [pc, #1308]	@ 839c <vpnc_get_interface_info+0xdb4>
    7e7c:	e7978006 	ldr	r8, [r7, r6]
    7e80:	e1a06000 	mov	r6, r0
    7e84:	e58d8018 	str	r8, [sp, #24]
    7e88:	e0878005 	add	r8, r7, r5
    7e8c:	e3a05000 	mov	r5, #0
    7e90:	ea000002 	b	7ea0 <vpnc_get_interface_info+0x8b8>
    7e94:	e5de1000 	ldrb	r1, [lr]
    7e98:	e3510000 	cmp	r1, #0
    7e9c:	0a000017 	beq	7f00 <vpnc_get_interface_info+0x918>
    7ea0:	e59d0018 	ldr	r0, [sp, #24]
    7ea4:	e1a03005 	mov	r3, r5
    7ea8:	e1a02008 	mov	r2, r8
    7eac:	e3a01007 	mov	r1, #7
    7eb0:	e2855001 	add	r5, r5, #1
    7eb4:	e590c000 	ldr	ip, [r0]
    7eb8:	e35c0000 	cmp	ip, #0
    7ebc:	e1a0000c 	mov	r0, ip
    7ec0:	0a000002 	beq	7ed0 <vpnc_get_interface_info+0x8e8>
    7ec4:	e59cc000 	ldr	ip, [ip]
    7ec8:	e35c0006 	cmp	ip, #6
    7ecc:	da000001 	ble	7ed8 <vpnc_get_interface_info+0x8f0>
    7ed0:	e58de000 	str	lr, [sp]
    7ed4:	ebffe6d8 	bl	1a3c <PmLogPrint_@plt>
    7ed8:	e5960000 	ldr	r0, [r6]
    7edc:	e1a06004 	mov	r6, r4
    7ee0:	ebffe660 	bl	1868 <json_object_new_string@plt>
    7ee4:	e1a01000 	mov	r1, r0
    7ee8:	e1a0000a 	mov	r0, sl
    7eec:	ebffe6ea 	bl	1a9c <json_object_array_add@plt>
    7ef0:	e594e000 	ldr	lr, [r4]
    7ef4:	e2844004 	add	r4, r4, #4
    7ef8:	e35e0000 	cmp	lr, #0
    7efc:	1affffe4 	bne	7e94 <vpnc_get_interface_info+0x8ac>
    7f00:	e59d004c 	ldr	r0, [sp, #76]	@ 0x4c
    7f04:	ebffe708 	bl	1b2c <g_strfreev@plt>
    7f08:	e1a0000a 	mov	r0, sl
    7f0c:	ebffe63d 	bl	1808 <json_object_array_length@plt>
    7f10:	e3500000 	cmp	r0, #0
    7f14:	da0000a7 	ble	81b8 <vpnc_get_interface_info+0xbd0>
    7f18:	e59d3030 	ldr	r3, [sp, #48]	@ 0x30
    7f1c:	e797e003 	ldr	lr, [r7, r3]
    7f20:	e59e0000 	ldr	r0, [lr]
    7f24:	e3500000 	cmp	r0, #0
    7f28:	0a000002 	beq	7f38 <vpnc_get_interface_info+0x950>
    7f2c:	e5902000 	ldr	r2, [r0]
    7f30:	e3520006 	cmp	r2, #6
    7f34:	da000006 	ble	7f54 <vpnc_get_interface_info+0x96c>
    7f38:	e59f33f8 	ldr	r3, [pc, #1016]	@ 8338 <vpnc_get_interface_info+0xd50>
    7f3c:	e3a01007 	mov	r1, #7
    7f40:	e59fe458 	ldr	lr, [pc, #1112]	@ 83a0 <vpnc_get_interface_info+0xdb8>
    7f44:	e087c003 	add	ip, r7, r3
    7f48:	e087200e 	add	r2, r7, lr
    7f4c:	e28c3020 	add	r3, ip, #32
    7f50:	ebffe6b9 	bl	1a3c <PmLogPrint_@plt>
    7f54:	e59f1448 	ldr	r1, [pc, #1096]	@ 83a4 <vpnc_get_interface_info+0xdbc>
    7f58:	e1a0200a 	mov	r2, sl
    7f5c:	e59d0040 	ldr	r0, [sp, #64]	@ 0x40
    7f60:	e0871001 	add	r1, r7, r1
    7f64:	ebffe6a8 	bl	1a0c <json_object_object_add@plt>
    7f68:	e59d0084 	ldr	r0, [sp, #132]	@ 0x84
    7f6c:	e3a01001 	mov	r1, #1
    7f70:	ebffe68a 	bl	19a0 <g_string_free@plt>
    7f74:	eafffde5 	b	7710 <vpnc_get_interface_info+0x128>
    7f78:	e59de07c 	ldr	lr, [sp, #124]	@ 0x7c
    7f7c:	e3a0100c 	mov	r1, #12
    7f80:	e59f43cc 	ldr	r4, [pc, #972]	@ 8354 <vpnc_get_interface_info+0xd6c>
    7f84:	e59e0000 	ldr	r0, [lr]
    7f88:	e0872004 	add	r2, r7, r4
    7f8c:	ebffe686 	bl	19ac <g_strstr_len@plt>
    7f90:	e2504000 	subs	r4, r0, #0
    7f94:	0a000010 	beq	7fdc <vpnc_get_interface_info+0x9f4>
    7f98:	e59d5030 	ldr	r5, [sp, #48]	@ 0x30
    7f9c:	e7973005 	ldr	r3, [r7, r5]
    7fa0:	e2845001 	add	r5, r4, #1
    7fa4:	e5930000 	ldr	r0, [r3]
    7fa8:	e3500000 	cmp	r0, #0
    7fac:	0a000002 	beq	7fbc <vpnc_get_interface_info+0x9d4>
    7fb0:	e5902000 	ldr	r2, [r0]
    7fb4:	e3520006 	cmp	r2, #6
    7fb8:	da000004 	ble	7fd0 <vpnc_get_interface_info+0x9e8>
    7fbc:	e59fc3e4 	ldr	ip, [pc, #996]	@ 83a8 <vpnc_get_interface_info+0xdc0>
    7fc0:	e3a01007 	mov	r1, #7
    7fc4:	e1a03005 	mov	r3, r5
    7fc8:	e087200c 	add	r2, r7, ip
    7fcc:	ebffe69a 	bl	1a3c <PmLogPrint_@plt>
    7fd0:	e5d41001 	ldrb	r1, [r4, #1]
    7fd4:	e3510000 	cmp	r1, #0
    7fd8:	1a00002b 	bne	808c <vpnc_get_interface_info+0xaa4>
    7fdc:	e59d007c 	ldr	r0, [sp, #124]	@ 0x7c
    7fe0:	e3a01001 	mov	r1, #1
    7fe4:	ebffe66d 	bl	19a0 <g_string_free@plt>
    7fe8:	eafffded 	b	77a4 <vpnc_get_interface_info+0x1bc>
    7fec:	e59d0030 	ldr	r0, [sp, #48]	@ 0x30
    7ff0:	e7971000 	ldr	r1, [r7, r0]
    7ff4:	e5910000 	ldr	r0, [r1]
    7ff8:	e3500000 	cmp	r0, #0
    7ffc:	0a000002 	beq	800c <vpnc_get_interface_info+0xa24>
    8000:	e5903000 	ldr	r3, [r0]
    8004:	e3530006 	cmp	r3, #6
    8008:	da000006 	ble	8028 <vpnc_get_interface_info+0xa40>
    800c:	e59fc324 	ldr	ip, [pc, #804]	@ 8338 <vpnc_get_interface_info+0xd50>
    8010:	e3a01007 	mov	r1, #7
    8014:	e59f2390 	ldr	r2, [pc, #912]	@ 83ac <vpnc_get_interface_info+0xdc4>
    8018:	e087e00c 	add	lr, r7, ip
    801c:	e0872002 	add	r2, r7, r2
    8020:	e28e3020 	add	r3, lr, #32
    8024:	ebffe684 	bl	1a3c <PmLogPrint_@plt>
    8028:	e59d3038 	ldr	r3, [sp, #56]	@ 0x38
    802c:	e593001c 	ldr	r0, [r3, #28]
    8030:	ebffe60c 	bl	1868 <json_object_new_string@plt>
    8034:	e59f133c 	ldr	r1, [pc, #828]	@ 8378 <vpnc_get_interface_info+0xd90>
    8038:	e0871001 	add	r1, r7, r1
    803c:	e1a02000 	mov	r2, r0
    8040:	e59d0044 	ldr	r0, [sp, #68]	@ 0x44
    8044:	ebffe670 	bl	1a0c <json_object_object_add@plt>
    8048:	e59d0080 	ldr	r0, [sp, #128]	@ 0x80
    804c:	e3a01001 	mov	r1, #1
    8050:	ebffe652 	bl	19a0 <g_string_free@plt>
    8054:	eafffdb3 	b	7728 <vpnc_get_interface_info+0x140>
    8058:	e59d0030 	ldr	r0, [sp, #48]	@ 0x30
    805c:	e797e000 	ldr	lr, [r7, r0]
    8060:	e59e0000 	ldr	r0, [lr]
    8064:	e3500000 	cmp	r0, #0
    8068:	0a000002 	beq	8078 <vpnc_get_interface_info+0xa90>
    806c:	e5901000 	ldr	r1, [r0]
    8070:	e3510002 	cmp	r1, #2
    8074:	dafffebf 	ble	7b78 <vpnc_get_interface_info+0x590>
    8078:	e3a01003 	mov	r1, #3
    807c:	e59d2024 	ldr	r2, [sp, #36]	@ 0x24
    8080:	e59d3020 	ldr	r3, [sp, #32]
    8084:	ebffe66c 	bl	1a3c <PmLogPrint_@plt>
    8088:	eafffeba 	b	7b78 <vpnc_get_interface_info+0x590>
    808c:	e59fe31c 	ldr	lr, [pc, #796]	@ 83b0 <vpnc_get_interface_info+0xdc8>
    8090:	e3a00001 	mov	r0, #1
    8094:	e087100e 	add	r1, r7, lr
    8098:	ebffebb8 	bl	2f80 <notify_notice_message>
    809c:	e1a00005 	mov	r0, r5
    80a0:	ebffe89a 	bl	2310 <notify_banner>
    80a4:	e59d007c 	ldr	r0, [sp, #124]	@ 0x7c
    80a8:	e3a01001 	mov	r1, #1
    80ac:	ebffe63b 	bl	19a0 <g_string_free@plt>
    80b0:	eafffdbd 	b	77ac <vpnc_get_interface_info+0x1c4>
    80b4:	e1a0000a 	mov	r0, sl
    80b8:	ebffe5d2 	bl	1808 <json_object_array_length@plt>
    80bc:	e3500000 	cmp	r0, #0
    80c0:	da000058 	ble	8228 <vpnc_get_interface_info+0xc40>
    80c4:	e59d2030 	ldr	r2, [sp, #48]	@ 0x30
    80c8:	e7973002 	ldr	r3, [r7, r2]
    80cc:	e5930000 	ldr	r0, [r3]
    80d0:	e3500000 	cmp	r0, #0
    80d4:	0a000002 	beq	80e4 <vpnc_get_interface_info+0xafc>
    80d8:	e590e000 	ldr	lr, [r0]
    80dc:	e35e0006 	cmp	lr, #6
    80e0:	da000006 	ble	8100 <vpnc_get_interface_info+0xb18>
    80e4:	e59f324c 	ldr	r3, [pc, #588]	@ 8338 <vpnc_get_interface_info+0xd50>
    80e8:	e3a01007 	mov	r1, #7
    80ec:	e59f22c0 	ldr	r2, [pc, #704]	@ 83b4 <vpnc_get_interface_info+0xdcc>
    80f0:	e087c003 	add	ip, r7, r3
    80f4:	e0872002 	add	r2, r7, r2
    80f8:	e28c3020 	add	r3, ip, #32
    80fc:	ebffe64e 	bl	1a3c <PmLogPrint_@plt>
    8100:	e59f12b0 	ldr	r1, [pc, #688]	@ 83b8 <vpnc_get_interface_info+0xdd0>
    8104:	e1a0200a 	mov	r2, sl
    8108:	e59d0044 	ldr	r0, [sp, #68]	@ 0x44
    810c:	e0871001 	add	r1, r7, r1
    8110:	ebffe63d 	bl	1a0c <json_object_object_add@plt>
    8114:	eaffffcb 	b	8048 <vpnc_get_interface_info+0xa60>
    8118:	e59d0030 	ldr	r0, [sp, #48]	@ 0x30
    811c:	e797e000 	ldr	lr, [r7, r0]
    8120:	e59e0000 	ldr	r0, [lr]
    8124:	e3500000 	cmp	r0, #0
    8128:	0a000004 	beq	8140 <vpnc_get_interface_info+0xb58>
    812c:	e5902000 	ldr	r2, [r0]
    8130:	e3520002 	cmp	r2, #2
    8134:	d3e02000 	mvnle	r2, #0
    8138:	d58d203c 	strle	r2, [sp, #60]	@ 0x3c
    813c:	daffff33 	ble	7e10 <vpnc_get_interface_info+0x828>
    8140:	e59f21f0 	ldr	r2, [pc, #496]	@ 8338 <vpnc_get_interface_info+0xd50>
    8144:	e3a01003 	mov	r1, #3
    8148:	e59fc26c 	ldr	ip, [pc, #620]	@ 83bc <vpnc_get_interface_info+0xdd4>
    814c:	e3e0e000 	mvn	lr, #0
    8150:	e0873002 	add	r3, r7, r2
    8154:	e58de03c 	str	lr, [sp, #60]	@ 0x3c
    8158:	e087200c 	add	r2, r7, ip
    815c:	e2833020 	add	r3, r3, #32
    8160:	ebffe635 	bl	1a3c <PmLogPrint_@plt>
    8164:	eaffff29 	b	7e10 <vpnc_get_interface_info+0x828>
    8168:	e59d0030 	ldr	r0, [sp, #48]	@ 0x30
    816c:	e797c000 	ldr	ip, [r7, r0]
    8170:	e59c0000 	ldr	r0, [ip]
    8174:	e3500000 	cmp	r0, #0
    8178:	0a000004 	beq	8190 <vpnc_get_interface_info+0xba8>
    817c:	e5902000 	ldr	r2, [r0]
    8180:	e3520002 	cmp	r2, #2
    8184:	d3e02000 	mvnle	r2, #0
    8188:	d58d203c 	strle	r2, [sp, #60]	@ 0x3c
    818c:	daffff75 	ble	7f68 <vpnc_get_interface_info+0x980>
    8190:	e59f31a0 	ldr	r3, [pc, #416]	@ 8338 <vpnc_get_interface_info+0xd50>
    8194:	e3e02000 	mvn	r2, #0
    8198:	e59fc220 	ldr	ip, [pc, #544]	@ 83c0 <vpnc_get_interface_info+0xdd8>
    819c:	e3a01003 	mov	r1, #3
    81a0:	e087e003 	add	lr, r7, r3
    81a4:	e58d203c 	str	r2, [sp, #60]	@ 0x3c
    81a8:	e28e3020 	add	r3, lr, #32
    81ac:	e087200c 	add	r2, r7, ip
    81b0:	ebffe621 	bl	1a3c <PmLogPrint_@plt>
    81b4:	eaffff6b 	b	7f68 <vpnc_get_interface_info+0x980>
    81b8:	e1a0000a 	mov	r0, sl
    81bc:	ebffe67b 	bl	1bb0 <json_object_put@plt>
    81c0:	eaffff68 	b	7f68 <vpnc_get_interface_info+0x980>
    81c4:	e1a0000a 	mov	r0, sl
    81c8:	e3a0c000 	mov	ip, #0
    81cc:	e58dc03c 	str	ip, [sp, #60]	@ 0x3c
    81d0:	ebffe676 	bl	1bb0 <json_object_put@plt>
    81d4:	eaffff0d 	b	7e10 <vpnc_get_interface_info+0x828>
    81d8:	e59d0030 	ldr	r0, [sp, #48]	@ 0x30
    81dc:	e797e000 	ldr	lr, [r7, r0]
    81e0:	e59e0000 	ldr	r0, [lr]
    81e4:	e3500000 	cmp	r0, #0
    81e8:	0a000004 	beq	8200 <vpnc_get_interface_info+0xc18>
    81ec:	e590c000 	ldr	ip, [r0]
    81f0:	e35c0002 	cmp	ip, #2
    81f4:	d3e02000 	mvnle	r2, #0
    81f8:	d58d203c 	strle	r2, [sp, #60]	@ 0x3c
    81fc:	daffff91 	ble	8048 <vpnc_get_interface_info+0xa60>
    8200:	e59fc130 	ldr	ip, [pc, #304]	@ 8338 <vpnc_get_interface_info+0xd50>
    8204:	e3a01003 	mov	r1, #3
    8208:	e59f21b4 	ldr	r2, [pc, #436]	@ 83c4 <vpnc_get_interface_info+0xddc>
    820c:	e3e0e000 	mvn	lr, #0
    8210:	e087300c 	add	r3, r7, ip
    8214:	e58de03c 	str	lr, [sp, #60]	@ 0x3c
    8218:	e0872002 	add	r2, r7, r2
    821c:	e2833020 	add	r3, r3, #32
    8220:	ebffe605 	bl	1a3c <PmLogPrint_@plt>
    8224:	eaffff87 	b	8048 <vpnc_get_interface_info+0xa60>
    8228:	e1a0000a 	mov	r0, sl
    822c:	ebffe65f 	bl	1bb0 <json_object_put@plt>
    8230:	eaffff84 	b	8048 <vpnc_get_interface_info+0xa60>
    8234:	ebffe645 	bl	1b50 <json_object_new_object@plt>
    8238:	e59dc030 	ldr	ip, [sp, #48]	@ 0x30
    823c:	e797100c 	ldr	r1, [r7, ip]
    8240:	e1a06000 	mov	r6, r0
    8244:	e5910000 	ldr	r0, [r1]
    8248:	e3500000 	cmp	r0, #0
    824c:	0a000002 	beq	825c <vpnc_get_interface_info+0xc74>
    8250:	e590e000 	ldr	lr, [r0]
    8254:	e35e0006 	cmp	lr, #6
    8258:	da000004 	ble	8270 <vpnc_get_interface_info+0xc88>
    825c:	e59f2164 	ldr	r2, [pc, #356]	@ 83c8 <vpnc_get_interface_info+0xde0>
    8260:	e3a01007 	mov	r1, #7
    8264:	e59d3020 	ldr	r3, [sp, #32]
    8268:	e0872002 	add	r2, r7, r2
    826c:	ebffe5f2 	bl	1a3c <PmLogPrint_@plt>
    8270:	e3560000 	cmp	r6, #0
    8274:	0a000019 	beq	82e0 <vpnc_get_interface_info+0xcf8>
    8278:	e5950000 	ldr	r0, [r5]
    827c:	ebffe579 	bl	1868 <json_object_new_string@plt>
    8280:	e59f30fc 	ldr	r3, [pc, #252]	@ 8384 <vpnc_get_interface_info+0xd9c>
    8284:	e0871003 	add	r1, r7, r3
    8288:	e1a02000 	mov	r2, r0
    828c:	e1a00006 	mov	r0, r6
    8290:	ebffe5dd 	bl	1a0c <json_object_object_add@plt>
    8294:	e5950004 	ldr	r0, [r5, #4]
    8298:	ebffe572 	bl	1868 <json_object_new_string@plt>
    829c:	e59fc0e8 	ldr	ip, [pc, #232]	@ 838c <vpnc_get_interface_info+0xda4>
    82a0:	e087100c 	add	r1, r7, ip
    82a4:	e1a02000 	mov	r2, r0
    82a8:	e1a00006 	mov	r0, r6
    82ac:	ebffe5d6 	bl	1a0c <json_object_object_add@plt>
    82b0:	e59d1038 	ldr	r1, [sp, #56]	@ 0x38
    82b4:	e591001c 	ldr	r0, [r1, #28]
    82b8:	ebffe56a 	bl	1868 <json_object_new_string@plt>
    82bc:	e59f30b4 	ldr	r3, [pc, #180]	@ 8378 <vpnc_get_interface_info+0xd90>
    82c0:	e0871003 	add	r1, r7, r3
    82c4:	e1a02000 	mov	r2, r0
    82c8:	e1a00006 	mov	r0, r6
    82cc:	ebffe5ce 	bl	1a0c <json_object_object_add@plt>
    82d0:	e1a0000a 	mov	r0, sl
    82d4:	e1a01006 	mov	r1, r6
    82d8:	ebffe5ef 	bl	1a9c <json_object_array_add@plt>
    82dc:	eafffe25 	b	7b78 <vpnc_get_interface_info+0x590>
    82e0:	e59d0030 	ldr	r0, [sp, #48]	@ 0x30
    82e4:	e797e000 	ldr	lr, [r7, r0]
    82e8:	e59e0000 	ldr	r0, [lr]
    82ec:	e3500000 	cmp	r0, #0
    82f0:	0a000004 	beq	8308 <vpnc_get_interface_info+0xd20>
    82f4:	e5901000 	ldr	r1, [r0]
    82f8:	e3510002 	cmp	r1, #2
    82fc:	d3e02000 	mvnle	r2, #0
    8300:	d58d203c 	strle	r2, [sp, #60]	@ 0x3c
    8304:	dafffe1b 	ble	7b78 <vpnc_get_interface_info+0x590>
    8308:	e59f20bc 	ldr	r2, [pc, #188]	@ 83cc <vpnc_get_interface_info+0xde4>
    830c:	e3a01003 	mov	r1, #3
    8310:	e59d3020 	ldr	r3, [sp, #32]
    8314:	e3e0c000 	mvn	ip, #0
    8318:	e0872002 	add	r2, r7, r2
    831c:	e58dc03c 	str	ip, [sp, #60]	@ 0x3c
    8320:	ebffe5c5 	bl	1a3c <PmLogPrint_@plt>
    8324:	eafffe13 	b	7b78 <vpnc_get_interface_info+0x590>
    8328:	0000bb34 	.word	0x0000bb34
    832c:	00000190 	.word	0x00000190
    8330:	fffffed4 	.word	0xfffffed4
    8334:	ffff70bc 	.word	0xffff70bc
    8338:	ffff5b34 	.word	0xffff5b34
    833c:	ffff745c 	.word	0xffff745c
    8340:	ffff7084 	.word	0xffff7084
    8344:	ffff74cc 	.word	0xffff74cc
    8348:	ffff748c 	.word	0xffff748c
    834c:	ffff7498 	.word	0xffff7498
    8350:	ffff7434 	.word	0xffff7434
    8354:	ffff70c4 	.word	0xffff70c4
    8358:	ffff70c8 	.word	0xffff70c8
    835c:	ffff6cf0 	.word	0xffff6cf0
    8360:	ffff7230 	.word	0xffff7230
    8364:	ffff7124 	.word	0xffff7124
    8368:	ffff7348 	.word	0xffff7348
    836c:	ffff72bc 	.word	0xffff72bc
    8370:	ffff728c 	.word	0xffff728c
    8374:	ffff732c 	.word	0xffff732c
    8378:	ffff72fc 	.word	0xffff72fc
    837c:	ffff70e0 	.word	0xffff70e0
    8380:	ffff70f8 	.word	0xffff70f8
    8384:	ffff64e8 	.word	0xffff64e8
    8388:	ffff710c 	.word	0xffff710c
    838c:	ffff711c 	.word	0xffff711c
    8390:	ffff7128 	.word	0xffff7128
    8394:	ffff7140 	.word	0xffff7140
    8398:	ffff716c 	.word	0xffff716c
    839c:	ffff71a4 	.word	0xffff71a4
    83a0:	ffff71bc 	.word	0xffff71bc
    83a4:	ffff71ec 	.word	0xffff71ec
    83a8:	ffff74f8 	.word	0xffff74f8
    83ac:	ffff73e8 	.word	0xffff73e8
    83b0:	ffff7504 	.word	0xffff7504
    83b4:	ffff7364 	.word	0xffff7364
    83b8:	ffff7398 	.word	0xffff7398
    83bc:	ffff7170 	.word	0xffff7170
    83c0:	ffff71fc 	.word	0xffff71fc
    83c4:	ffff73ac 	.word	0xffff73ac
    83c8:	ffff72c4 	.word	0xffff72c4
    83cc:	ffff7304 	.word	0xffff7304

000083d0 <handleVpncReadOutput>:
    83d0:	e92d4ff0 	push	{r4, r5, r6, r7, r8, r9, sl, fp, lr}
    83d4:	e24dd024 	sub	sp, sp, #36	@ 0x24
    83d8:	e59f7470 	ldr	r7, [pc, #1136]	@ 8850 <handleVpncReadOutput+0x480>
    83dc:	e3a03000 	mov	r3, #0
    83e0:	e58d000c 	str	r0, [sp, #12]
    83e4:	e1a06001 	mov	r6, r1
    83e8:	e59f0464 	ldr	r0, [pc, #1124]	@ 8854 <handleVpncReadOutput+0x484>
    83ec:	e58d2008 	str	r2, [sp, #8]
    83f0:	e08fa000 	add	sl, pc, r0
    83f4:	e58d3014 	str	r3, [sp, #20]
    83f8:	e58d301c 	str	r3, [sp, #28]
    83fc:	e79a2007 	ldr	r2, [sl, r7]
    8400:	e58d3018 	str	r3, [sp, #24]
    8404:	e5925000 	ldr	r5, [r2]
    8408:	e1550003 	cmp	r5, r3
    840c:	0a000032 	beq	84dc <handleVpncReadOutput+0x10c>
    8410:	e5951000 	ldr	r1, [r5]
    8414:	e3510006 	cmp	r1, #6
    8418:	ca00002f 	bgt	84dc <handleVpncReadOutput+0x10c>
    841c:	e2163010 	ands	r3, r6, #16
    8420:	0a00003d 	beq	851c <handleVpncReadOutput+0x14c>
    8424:	e79a4007 	ldr	r4, [sl, r7]
    8428:	e5940000 	ldr	r0, [r4]
    842c:	e3500000 	cmp	r0, #0
    8430:	0a000002 	beq	8440 <handleVpncReadOutput+0x70>
    8434:	e5905000 	ldr	r5, [r0]
    8438:	e3550002 	cmp	r5, #2
    843c:	da000006 	ble	845c <handleVpncReadOutput+0x8c>
    8440:	e59fe410 	ldr	lr, [pc, #1040]	@ 8858 <handleVpncReadOutput+0x488>
    8444:	e3a01003 	mov	r1, #3
    8448:	e59fb40c 	ldr	fp, [pc, #1036]	@ 885c <handleVpncReadOutput+0x48c>
    844c:	e08a600e 	add	r6, sl, lr
    8450:	e08a200b 	add	r2, sl, fp
    8454:	e2863038 	add	r3, r6, #56	@ 0x38
    8458:	ebffe577 	bl	1a3c <PmLogPrint_@plt>
    845c:	e59d000c 	ldr	r0, [sp, #12]
    8460:	e28d1018 	add	r1, sp, #24
    8464:	e28d2014 	add	r2, sp, #20
    8468:	e3a03000 	mov	r3, #0
    846c:	e28dc01c 	add	ip, sp, #28
    8470:	e58dc000 	str	ip, [sp]
    8474:	ebffe531 	bl	1940 <g_io_channel_read_line@plt>
    8478:	e3500000 	cmp	r0, #0
    847c:	1a00006f 	bne	8640 <handleVpncReadOutput+0x270>
    8480:	e79a1007 	ldr	r1, [sl, r7]
    8484:	e5910000 	ldr	r0, [r1]
    8488:	e3500000 	cmp	r0, #0
    848c:	0a000002 	beq	849c <handleVpncReadOutput+0xcc>
    8490:	e5907000 	ldr	r7, [r0]
    8494:	e3570002 	cmp	r7, #2
    8498:	da0000e1 	ble	8824 <handleVpncReadOutput+0x454>
    849c:	e59d401c 	ldr	r4, [sp, #28]
    84a0:	e5943008 	ldr	r3, [r4, #8]
    84a4:	e3530000 	cmp	r3, #0
    84a8:	11a02003 	movne	r2, r3
    84ac:	0a0000e4 	beq	8844 <handleVpncReadOutput+0x474>
    84b0:	e59fb3a0 	ldr	fp, [pc, #928]	@ 8858 <handleVpncReadOutput+0x488>
    84b4:	e3a01003 	mov	r1, #3
    84b8:	e58d2000 	str	r2, [sp]
    84bc:	e59f239c 	ldr	r2, [pc, #924]	@ 8860 <handleVpncReadOutput+0x490>
    84c0:	e08a600b 	add	r6, sl, fp
    84c4:	e2863038 	add	r3, r6, #56	@ 0x38
    84c8:	e59fb394 	ldr	fp, [pc, #916]	@ 8864 <handleVpncReadOutput+0x494>
    84cc:	e08a2002 	add	r2, sl, r2
    84d0:	ebffe559 	bl	1a3c <PmLogPrint_@plt>
    84d4:	e59d7018 	ldr	r7, [sp, #24]
    84d8:	ea0000bd 	b	87d4 <handleVpncReadOutput+0x404>
    84dc:	ebffe583 	bl	1af0 <getpid@plt>
    84e0:	e1a04000 	mov	r4, r0
    84e4:	e3a000e0 	mov	r0, #224	@ 0xe0
    84e8:	ebffe59e 	bl	1b68 <syscall@plt>
    84ec:	e59f3364 	ldr	r3, [pc, #868]	@ 8858 <handleVpncReadOutput+0x488>
    84f0:	e59f2370 	ldr	r2, [pc, #880]	@ 8868 <handleVpncReadOutput+0x498>
    84f4:	e3a01007 	mov	r1, #7
    84f8:	e08ac003 	add	ip, sl, r3
    84fc:	e58d4000 	str	r4, [sp]
    8500:	e28c3038 	add	r3, ip, #56	@ 0x38
    8504:	e08a2002 	add	r2, sl, r2
    8508:	e58d0004 	str	r0, [sp, #4]
    850c:	e1a00005 	mov	r0, r5
    8510:	ebffe549 	bl	1a3c <PmLogPrint_@plt>
    8514:	e2163010 	ands	r3, r6, #16
    8518:	1affffc1 	bne	8424 <handleVpncReadOutput+0x54>
    851c:	e59d000c 	ldr	r0, [sp, #12]
    8520:	e28d1018 	add	r1, sp, #24
    8524:	e28d2014 	add	r2, sp, #20
    8528:	e28dc01c 	add	ip, sp, #28
    852c:	e58dc000 	str	ip, [sp]
    8530:	ebffe502 	bl	1940 <g_io_channel_read_line@plt>
    8534:	e3500000 	cmp	r0, #0
    8538:	0a000084 	beq	8750 <handleVpncReadOutput+0x380>
    853c:	e79ac007 	ldr	ip, [sl, r7]
    8540:	e59c0000 	ldr	r0, [ip]
    8544:	e3500000 	cmp	r0, #0
    8548:	0a000002 	beq	8558 <handleVpncReadOutput+0x188>
    854c:	e5907000 	ldr	r7, [r0]
    8550:	e3570006 	cmp	r7, #6
    8554:	da00000a 	ble	8584 <handleVpncReadOutput+0x1b4>
    8558:	e59d4014 	ldr	r4, [sp, #20]
    855c:	e3a01007 	mov	r1, #7
    8560:	e59fe2f0 	ldr	lr, [pc, #752]	@ 8858 <handleVpncReadOutput+0x488>
    8564:	e59f2300 	ldr	r2, [pc, #768]	@ 886c <handleVpncReadOutput+0x49c>
    8568:	e58d4000 	str	r4, [sp]
    856c:	e08a300e 	add	r3, sl, lr
    8570:	e59d4018 	ldr	r4, [sp, #24]
    8574:	e08a2002 	add	r2, sl, r2
    8578:	e2833038 	add	r3, r3, #56	@ 0x38
    857c:	e58d4004 	str	r4, [sp, #4]
    8580:	ebffe52d 	bl	1a3c <PmLogPrint_@plt>
    8584:	e59d7018 	ldr	r7, [sp, #24]
    8588:	e3570000 	cmp	r7, #0
    858c:	0a0000a8 	beq	8834 <handleVpncReadOutput+0x464>
    8590:	e59d9014 	ldr	r9, [sp, #20]
    8594:	e3590000 	cmp	r9, #0
    8598:	0a0000a5 	beq	8834 <handleVpncReadOutput+0x464>
    859c:	e59f82c0 	ldr	r8, [pc, #704]	@ 8864 <handleVpncReadOutput+0x494>
    85a0:	e1a00007 	mov	r0, r7
    85a4:	e1a01009 	mov	r1, r9
    85a8:	e3a04000 	mov	r4, #0
    85ac:	e79a5008 	ldr	r5, [sl, r8]
    85b0:	e5952000 	ldr	r2, [r5]
    85b4:	e1a08005 	mov	r8, r5
    85b8:	ebffe4fb 	bl	19ac <g_strstr_len@plt>
    85bc:	e1a06005 	mov	r6, r5
    85c0:	e1500004 	cmp	r0, r4
    85c4:	03a04001 	moveq	r4, #1
    85c8:	0a00000a 	beq	85f8 <handleVpncReadOutput+0x228>
    85cc:	ea000013 	b	8620 <handleVpncReadOutput+0x250>
    85d0:	e2844001 	add	r4, r4, #1
    85d4:	e1a08005 	mov	r8, r5
    85d8:	e7952204 	ldr	r2, [r5, r4, lsl #4]
    85dc:	e0856204 	add	r6, r5, r4, lsl #4
    85e0:	ebffe4f1 	bl	19ac <g_strstr_len@plt>
    85e4:	e3500000 	cmp	r0, #0
    85e8:	1a00000c 	bne	8620 <handleVpncReadOutput+0x250>
    85ec:	e2844001 	add	r4, r4, #1
    85f0:	e3540013 	cmp	r4, #19
    85f4:	0a00008d 	beq	8830 <handleVpncReadOutput+0x460>
    85f8:	e1a01009 	mov	r1, r9
    85fc:	e7952204 	ldr	r2, [r5, r4, lsl #4]
    8600:	e1a00007 	mov	r0, r7
    8604:	e0856204 	add	r6, r5, r4, lsl #4
    8608:	ebffe4e7 	bl	19ac <g_strstr_len@plt>
    860c:	e1a08005 	mov	r8, r5
    8610:	e1a01009 	mov	r1, r9
    8614:	e3500000 	cmp	r0, #0
    8618:	e1a00007 	mov	r0, r7
    861c:	0affffeb 	beq	85d0 <handleVpncReadOutput+0x200>
    8620:	e1a01084 	lsl	r1, r4, #1
    8624:	e59d7018 	ldr	r7, [sp, #24]
    8628:	e2815001 	add	r5, r1, #1
    862c:	e5964004 	ldr	r4, [r6, #4]
    8630:	e0880185 	add	r0, r8, r5, lsl #3
    8634:	e7986185 	ldr	r6, [r8, r5, lsl #3]
    8638:	e5905004 	ldr	r5, [r0, #4]
    863c:	ea000059 	b	87a8 <handleVpncReadOutput+0x3d8>
    8640:	e79ae007 	ldr	lr, [sl, r7]
    8644:	e59e0000 	ldr	r0, [lr]
    8648:	e3500000 	cmp	r0, #0
    864c:	0a000034 	beq	8724 <handleVpncReadOutput+0x354>
    8650:	e590c000 	ldr	ip, [r0]
    8654:	e35c0006 	cmp	ip, #6
    8658:	ca000031 	bgt	8724 <handleVpncReadOutput+0x354>
    865c:	e59d7018 	ldr	r7, [sp, #24]
    8660:	e3570000 	cmp	r7, #0
    8664:	0a000059 	beq	87d0 <handleVpncReadOutput+0x400>
    8668:	e59d9014 	ldr	r9, [sp, #20]
    866c:	e3590000 	cmp	r9, #0
    8670:	0a000056 	beq	87d0 <handleVpncReadOutput+0x400>
    8674:	e59fb1e8 	ldr	fp, [pc, #488]	@ 8864 <handleVpncReadOutput+0x494>
    8678:	e1a00007 	mov	r0, r7
    867c:	e1a01009 	mov	r1, r9
    8680:	e3a04000 	mov	r4, #0
    8684:	e79a500b 	ldr	r5, [sl, fp]
    8688:	e5952000 	ldr	r2, [r5]
    868c:	e1a08005 	mov	r8, r5
    8690:	ebffe4c5 	bl	19ac <g_strstr_len@plt>
    8694:	e1a06005 	mov	r6, r5
    8698:	e1500004 	cmp	r0, r4
    869c:	03a04001 	moveq	r4, #1
    86a0:	0a00000a 	beq	86d0 <handleVpncReadOutput+0x300>
    86a4:	ea000013 	b	86f8 <handleVpncReadOutput+0x328>
    86a8:	e2844001 	add	r4, r4, #1
    86ac:	e1a08005 	mov	r8, r5
    86b0:	e7952204 	ldr	r2, [r5, r4, lsl #4]
    86b4:	e0856204 	add	r6, r5, r4, lsl #4
    86b8:	ebffe4bb 	bl	19ac <g_strstr_len@plt>
    86bc:	e3500000 	cmp	r0, #0
    86c0:	1a00000c 	bne	86f8 <handleVpncReadOutput+0x328>
    86c4:	e2844001 	add	r4, r4, #1
    86c8:	e3540013 	cmp	r4, #19
    86cc:	0a000012 	beq	871c <handleVpncReadOutput+0x34c>
    86d0:	e1a01009 	mov	r1, r9
    86d4:	e7952204 	ldr	r2, [r5, r4, lsl #4]
    86d8:	e1a00007 	mov	r0, r7
    86dc:	e0856204 	add	r6, r5, r4, lsl #4
    86e0:	ebffe4b1 	bl	19ac <g_strstr_len@plt>
    86e4:	e1a08005 	mov	r8, r5
    86e8:	e1a01009 	mov	r1, r9
    86ec:	e3500000 	cmp	r0, #0
    86f0:	e1a00007 	mov	r0, r7
    86f4:	0affffeb 	beq	86a8 <handleVpncReadOutput+0x2d8>
    86f8:	e1a02084 	lsl	r2, r4, #1
    86fc:	e5964004 	ldr	r4, [r6, #4]
    8700:	e2821001 	add	r1, r2, #1
    8704:	e3740001 	cmn	r4, #1
    8708:	e0880181 	add	r0, r8, r1, lsl #3
    870c:	e7986181 	ldr	r6, [r8, r1, lsl #3]
    8710:	159d7018 	ldrne	r7, [sp, #24]
    8714:	e5905004 	ldr	r5, [r0, #4]
    8718:	1a000022 	bne	87a8 <handleVpncReadOutput+0x3d8>
    871c:	e59d7018 	ldr	r7, [sp, #24]
    8720:	ea00002b 	b	87d4 <handleVpncReadOutput+0x404>
    8724:	e59f612c 	ldr	r6, [pc, #300]	@ 8858 <handleVpncReadOutput+0x488>
    8728:	e3a01007 	mov	r1, #7
    872c:	e59f5138 	ldr	r5, [pc, #312]	@ 886c <handleVpncReadOutput+0x49c>
    8730:	e59d4014 	ldr	r4, [sp, #20]
    8734:	e08a3006 	add	r3, sl, r6
    8738:	e59d7018 	ldr	r7, [sp, #24]
    873c:	e08a2005 	add	r2, sl, r5
    8740:	e2833038 	add	r3, r3, #56	@ 0x38
    8744:	e88d0090 	stm	sp, {r4, r7}
    8748:	ebffe4bb 	bl	1a3c <PmLogPrint_@plt>
    874c:	eaffffc2 	b	865c <handleVpncReadOutput+0x28c>
    8750:	e79a4007 	ldr	r4, [sl, r7]
    8754:	e5940000 	ldr	r0, [r4]
    8758:	e3500000 	cmp	r0, #0
    875c:	0a000002 	beq	876c <handleVpncReadOutput+0x39c>
    8760:	e5907000 	ldr	r7, [r0]
    8764:	e3570002 	cmp	r7, #2
    8768:	da000009 	ble	8794 <handleVpncReadOutput+0x3c4>
    876c:	e59de01c 	ldr	lr, [sp, #28]
    8770:	e3a01003 	mov	r1, #3
    8774:	e59f20dc 	ldr	r2, [pc, #220]	@ 8858 <handleVpncReadOutput+0x488>
    8778:	e59f60f0 	ldr	r6, [pc, #240]	@ 8870 <handleVpncReadOutput+0x4a0>
    877c:	e59e5008 	ldr	r5, [lr, #8]
    8780:	e08a3002 	add	r3, sl, r2
    8784:	e2833038 	add	r3, r3, #56	@ 0x38
    8788:	e08a2006 	add	r2, sl, r6
    878c:	e58d5000 	str	r5, [sp]
    8790:	ebffe4a9 	bl	1a3c <PmLogPrint_@plt>
    8794:	e59f10c8 	ldr	r1, [pc, #200]	@ 8864 <handleVpncReadOutput+0x494>
    8798:	e59d7018 	ldr	r7, [sp, #24]
    879c:	e79a0001 	ldr	r0, [sl, r1]
    87a0:	e9900050 	ldmib	r0, {r4, r6}
    87a4:	e590500c 	ldr	r5, [r0, #12]
    87a8:	e1a00007 	mov	r0, r7
    87ac:	ebffe40f 	bl	17f0 <g_free@plt>
    87b0:	e3540000 	cmp	r4, #0
    87b4:	1a00000d 	bne	87f0 <handleVpncReadOutput+0x420>
    87b8:	e59d000c 	ldr	r0, [sp, #12]
    87bc:	e59d1008 	ldr	r1, [sp, #8]
    87c0:	ebfffb88 	bl	75e8 <vpnc_get_interface_info>
    87c4:	e3a00001 	mov	r0, #1
    87c8:	e28dd024 	add	sp, sp, #36	@ 0x24
    87cc:	e8bd8ff0 	pop	{r4, r5, r6, r7, r8, r9, sl, fp, pc}
    87d0:	e59fb08c 	ldr	fp, [pc, #140]	@ 8864 <handleVpncReadOutput+0x494>
    87d4:	e79ae00b 	ldr	lr, [sl, fp]
    87d8:	e1a00007 	mov	r0, r7
    87dc:	e99e0050 	ldmib	lr, {r4, r6}
    87e0:	e59e500c 	ldr	r5, [lr, #12]
    87e4:	ebffe401 	bl	17f0 <g_free@plt>
    87e8:	e3540000 	cmp	r4, #0
    87ec:	0afffff1 	beq	87b8 <handleVpncReadOutput+0x3e8>
    87f0:	e3540001 	cmp	r4, #1
    87f4:	13a00001 	movne	r0, #1
    87f8:	1afffff2 	bne	87c8 <handleVpncReadOutput+0x3f8>
    87fc:	e1a01005 	mov	r1, r5
    8800:	e1a02006 	mov	r2, r6
    8804:	e59d0008 	ldr	r0, [sp, #8]
    8808:	ebfff8cd 	bl	6b44 <VpnDisconnected>
    880c:	e3a01000 	mov	r1, #0
    8810:	e59d000c 	ldr	r0, [sp, #12]
    8814:	e1a02001 	mov	r2, r1
    8818:	ebffe3f7 	bl	17fc <g_io_channel_shutdown@plt>
    881c:	e3a00000 	mov	r0, #0
    8820:	eaffffe8 	b	87c8 <handleVpncReadOutput+0x3f8>
    8824:	e59d7018 	ldr	r7, [sp, #24]
    8828:	e59fb034 	ldr	fp, [pc, #52]	@ 8864 <handleVpncReadOutput+0x494>
    882c:	eaffffe8 	b	87d4 <handleVpncReadOutput+0x404>
    8830:	e59d7018 	ldr	r7, [sp, #24]
    8834:	e1a00007 	mov	r0, r7
    8838:	ebffe3ec 	bl	17f0 <g_free@plt>
    883c:	e3a00001 	mov	r0, #1
    8840:	eaffffe0 	b	87c8 <handleVpncReadOutput+0x3f8>
    8844:	e59f5028 	ldr	r5, [pc, #40]	@ 8874 <handleVpncReadOutput+0x4a4>
    8848:	e08a2005 	add	r2, sl, r5
    884c:	eaffff17 	b	84b0 <handleVpncReadOutput+0xe0>
    8850:	00000190 	.word	0x00000190
    8854:	0000ad48 	.word	0x0000ad48
    8858:	ffff5b34 	.word	0xffff5b34
    885c:	ffff7520 	.word	0xffff7520
    8860:	ffff753c 	.word	0xffff753c
    8864:	0000018c 	.word	0x0000018c
    8868:	ffff5b84 	.word	0xffff5b84
    886c:	ffff7564 	.word	0xffff7564
    8870:	ffff757c 	.word	0xffff757c
    8874:	ffff6200 	.word	0xffff6200

Disassembly of section .fini:

00008878 <_fini>:
    8878:	e92d4010 	push	{r4, lr}
    887c:	e8bd8010 	pop	{r4, pc}
